ASxxxx Linker V03.00 + NoICE + sdld,  page 1.
Hexadecimal  [32-Bits]

Area                                    Addr        Size        Decimal Bytes (Attributes)
--------------------------------        ----        ----        ------- ----- ------------
.  .ABS.                            00000000    00000000 =           0. bytes (ABS,CON)

      Value  Global                              Global Defined In Module
      -----  --------------------------------   ------------------------
     00000000  .__.ABS.                           
     00000000  l__BSEG                         
     00000000  l__BSS                          
     00000000  l__CABS                         
     00000000  l__DABS                         
     00000000  l__HEADER                       
     00000000  l__HEAP                         
     00000000  l__HOME                         
     00000000  s__CABS                         
     00000000  s__CABS0                        
     00000000  s__CABS1                        
     00000000  s__CABS2                        
     00000000  s__CABS3                        
     00000000  s__CABS4                        
     00000000  s__DABS                         
     00000000  s__HEADER                       
     00000000  s__HEADER0                      
     00000000  s__HEADER1                      
     00000000  s__HEADER2                      
     00000000  s__HEADER3                      
     00000000  s__HEADER4                      
     00000000  s__HEADER5                      
     00000001  l__GSFINAL                      
     00000003  l__HEADER3                      
     00000003  l__HEADER4                      
     00000006  l__HEADER0                      
     00000009  l__HEADER1                      
     0000000A  l__HEADER2                      
     0000000E  l__CABS1                        
     0000000E  l__CABS2                        
     0000000F  l__GSINIT                       
     00000010  l__CABS0                        
     00000010  l__CABS4                        
     00000038  l__CABS3                        
     00000046  l__INITIALIZED                  
     00000046  l__INITIALIZER                  
     000000BE  G$VDPDataPort$0$0                  asm_manager
     000000BF  G$VDPControlPort$0$0               asm_manager
     0000012A  l__HEADER5                      
     00000200  s__CODE                         
     0000029F  l__DATA                         
     000019C6  l__BANK13                       
     00001F88  l__BANK15                       
     00002245  l__BANK9                        
     000022E4  l__BANK8                        
     00002713  l__BANK6                        
     000027B8  l__BANK14                       
     00002962  l__BANK7                        
     0000300A  l__BANK11                       
     000030D0  l__CODE                         
ASxxxx Linker V03.00 + NoICE + sdld,  page 2.
Hexadecimal  [32-Bits]

Area                                    Addr        Size        Decimal Bytes (Attributes)
--------------------------------        ----        ----        ------- ----- ------------
.  .ABS.                            00000000    00000000 =           0. bytes (ABS,CON)

      Value  Global                              Global Defined In Module
      -----  --------------------------------   ------------------------
     000032D0  s__HOME                         
     000032D0  s__INITIALIZER                  
     00003316  s__GSINIT                       
     00003325  s__GSFINAL                      
     00003C8C  l__BANK2                        
     00003C8C  l__BANK3                        
     00003C8C  l__BANK4                        
     00003C8C  l__BANK5                        
     00003CF3  l__BANK12                       
     00003DB9  l__BANK10                       
     00008000  G$SMS_SRAM$0$0                     _sms_manager
     00008000  _SMS_SRAM                          SMSlib_loadTileMap
     00008000  s__BANK10                       
     00008000  s__BANK11                       
     00008000  s__BANK12                       
     00008000  s__BANK13                       
     00008000  s__BANK14                       
     00008000  s__BANK15                       
     00008000  s__BANK2                        
     00008000  s__BANK3                        
     00008000  s__BANK4                        
     00008000  s__BANK5                        
     00008000  s__BANK6                        
     00008000  s__BANK7                        
     00008000  s__BANK8                        
     00008000  s__BANK9                        
     0000C000  s__DATA                         
     0000C29F  s__INITIALIZED                  
     0000C2E5  s__BSEG                         
     0000C2E5  s__BSS                          
     0000C2E5  s__HEAP                         
     0000FFFC  G$SRAM_bank_to_be_mapped_on_slot   _sms_manager
     0000FFFC  _SRAM_bank_to_be_mapped_on_slot2   SMSlib_loadTileMap
     0000FFFF  G$ROM_bank_to_be_mapped_on_slot2   _sms_manager
     0000FFFF  _ROM_bank_to_be_mapped_on_slot2    SMSlib_loadTileMap

ASxxxx Linker V03.00 + NoICE + sdld,  page 3.
Hexadecimal  [32-Bits]

Area                                    Addr        Size        Decimal Bytes (Attributes)
--------------------------------        ----        ----        ------- ----- ------------
_CODE                               00000200    000030D0 =       12496. bytes (REL,CON)

      Value  Global                              Global Defined In Module
      -----  --------------------------------   ------------------------
     00000200  __clock                            crt0
     00000204  _exit                              crt0
     0000020A  A$main$85                          main
     0000020A  C$main.c$3$0$0                     main
     0000020A  C$main.c$9$1$64                    main
     0000020A  G$main$0$0                         main
     0000020A  _main                              main
     0000020D  A$main$89                          main
     0000020D  C$main.c$10$1$64                   main
     00000210  A$main$93                          main
     00000210  C$main.c$11$1$64                   main
     00000213  A$main$97                          main
     00000213  C$main.c$13$1$64                   main
     00000216  A$main$98                          main
     00000217  A$main$99                          main
     00000218  A$main$100                         main
     00000219  A$main$101                         main
     0000021C  A$main$102                         main
     0000021D  A$main$106                         main
     0000021D  C$main.c$14$1$64                   main
     00000220  A$main$110                         main
     00000220  C$main.c$15$1$64                   main
     00000223  A$main$111                         main
     00000224  A$main$112                         main
     00000227  A$main$113                         main
     00000228  A$main$117                         main
     00000228  C$main.c$17$1$64                   main
     0000022B  A$main$121                         main
     0000022B  C$main.c$18$1$64                   main
     0000022E  A$main$125                         main
     0000022E  C$main.c$19$1$64                   main
     00000231  A$main$129                         main
     00000231  C$main.c$22$1$64                   main
     00000234  A$main$133                         main
     00000234  C$main.c$23$1$64                   main
     00000237  A$main$137                         main
     00000237  C$main.c$25$1$64                   main
     0000023A  A$main$141                         main
     0000023A  C$main.c$26$1$64                   main
     0000023D  A$main$145                         main
     0000023D  C$main.c$27$1$64                   main
     00000240  A$main$149                         main
     00000240  C$main.c$28$1$64                   main
     00000243  A$main$153                         main
     00000243  C$main.c$29$1$64                   main
     00000246  A$main$157                         main
     00000246  C$main.c$30$1$64                   main
     00000249  A$main$161                         main
     00000249  C$main.c$41$1$64                   main
     0000024B  A$main$162                         main
ASxxxx Linker V03.00 + NoICE + sdld,  page 4.
Hexadecimal  [32-Bits]

Area                                    Addr        Size        Decimal Bytes (Attributes)
--------------------------------        ----        ----        ------- ----- ------------
_CODE                               00000200    000030D0 =       12496. bytes (REL,CON)

      Value  Global                              Global Defined In Module
      -----  --------------------------------   ------------------------
     0000024C  A$main$163                         main
     0000024D  A$main$164                         main
     00000250  A$main$165                         main
     00000251  A$main$169                         main
     00000251  C$main.c$44$1$64                   main
     00000254  A$main$173                         main
     00000254  C$main.c$46$1$64                   main
     00000257  A$main$178                         main
     00000257  C$main.c$49$3$66                   main
     0000025A  A$main$182                         main
     0000025A  C$main.c$50$3$66                   main
     0000025D  A$main$186                         main
     0000025D  C$main.c$52$3$66                   main
     00000260  A$main$190                         main
     00000260  C$main.c$54$3$66                   main
     00000263  A$main$194                         main
     00000263  C$main.c$55$3$66                   main
     00000266  A$main$198                         main
     00000266  C$main.c$56$3$66                   main
     00000269  A$main$202                         main
     00000269  C$main.c$58$3$66                   main
     0000026C  A$main$206                         main
     0000026C  C$main.c$59$3$66                   main
     0000026F  A$main$211                         main
     0000026F  C$main.c$61$2$65                   main
     0000026F  XG$main$0$0                        main
     00000271  _PSGStop                           PSGlib
     00000298  _PSGResume                         PSGlib
     000002E4  _PSGPlay                           PSGlib
     00000311  _PSGCancelLoop                     PSGlib
     00000317  _PSGPlayNoRepeat                   PSGlib
     00000326  _PSGGetStatus                      PSGlib
     0000032E  _PSGSilenceChannels                PSGlib
     0000033F  _PSGRestoreVolumes                 PSGlib
     0000043E  _PSGSetMusicVolumeAttenuation      PSGlib
     0000052D  _PSGSFXStop                        PSGlib
     000005F7  _PSGSFXPlay                        PSGlib
     00000644  _PSGSFXCancelLoop                  PSGlib
     0000064A  _PSGSFXGetStatus                   PSGlib
     00000652  _PSGSFXPlayLoop                    PSGlib
     00000673  _PSGFrame                          PSGlib
     0000078C  _PSGSFXFrame                       PSGlib
     00000812  A$_sms_manager$138                 _sms_manager
     00000812  C$_sms_manager.c$12$0$0            _sms_manager
     00000812  C$_sms_manager.c$14$1$76           _sms_manager
     00000812  C$_sms_manager.c$15$1$76           _sms_manager
     00000812  G$devkit_SMS_init$0$0              _sms_manager
     00000812  XG$devkit_SMS_init$0$0             _sms_manager
     00000812  _devkit_SMS_init                   _sms_manager
     00000815  A$_sms_manager$151                 _sms_manager
     00000815  C$_sms_manager.c$16$1$76           _sms_manager
ASxxxx Linker V03.00 + NoICE + sdld,  page 5.
Hexadecimal  [32-Bits]

Area                                    Addr        Size        Decimal Bytes (Attributes)
--------------------------------        ----        ----        ------- ----- ------------
_CODE                               00000200    000030D0 =       12496. bytes (REL,CON)

      Value  Global                              Global Defined In Module
      -----  --------------------------------   ------------------------
     00000815  C$_sms_manager.c$18$1$77           _sms_manager
     00000815  G$devkit_SMS_displayOn$0$0         _sms_manager
     00000815  _devkit_SMS_displayOn              _sms_manager
     00000818  A$_sms_manager$156                 _sms_manager
     00000818  C$_sms_manager.c$19$1$77           _sms_manager
     00000818  XG$devkit_SMS_displayOn$0$0        _sms_manager
     0000081B  A$_sms_manager$169                 _sms_manager
     0000081B  C$_sms_manager.c$20$1$77           _sms_manager
     0000081B  C$_sms_manager.c$22$1$78           _sms_manager
     0000081B  G$devkit_SMS_displayOff$0$0        _sms_manager
     0000081B  _devkit_SMS_displayOff             _sms_manager
     0000081E  A$_sms_manager$174                 _sms_manager
     0000081E  C$_sms_manager.c$23$1$78           _sms_manager
     0000081E  XG$devkit_SMS_displayOff$0$0       _sms_manager
     00000821  A$_sms_manager$187                 _sms_manager
     00000821  C$_sms_manager.c$24$1$78           _sms_manager
     00000821  C$_sms_manager.c$26$1$80           _sms_manager
     00000821  G$devkit_SMS_mapROMBank$0$0        _sms_manager
     00000821  _devkit_SMS_mapROMBank             _sms_manager
     00000824  A$_sms_manager$188                 _sms_manager
     00000825  A$_sms_manager$189                 _sms_manager
     00000826  A$_sms_manager$190                 _sms_manager
     00000829  A$_sms_manager$195                 _sms_manager
     00000829  C$_sms_manager.c$27$1$80           _sms_manager
     00000829  XG$devkit_SMS_mapROMBank$0$0       _sms_manager
     0000082A  A$_sms_manager$208                 _sms_manager
     0000082A  C$_sms_manager.c$29$1$80           _sms_manager
     0000082A  C$_sms_manager.c$31$1$82           _sms_manager
     0000082A  G$devkit_SMS_setBGScrollX$0$0      _sms_manager
     0000082A  _devkit_SMS_setBGScrollX           _sms_manager
     0000082E  A$_sms_manager$209                 _sms_manager
     00000830  A$_sms_manager$210                 _sms_manager
     00000833  A$_sms_manager$215                 _sms_manager
     00000833  C$_sms_manager.c$32$1$82           _sms_manager
     00000833  XG$devkit_SMS_setBGScrollX$0$0     _sms_manager
     00000836  A$_sms_manager$228                 _sms_manager
     00000836  C$_sms_manager.c$33$1$82           _sms_manager
     00000836  C$_sms_manager.c$35$1$84           _sms_manager
     00000836  G$devkit_SMS_setBGScrollY$0$0      _sms_manager
     00000836  _devkit_SMS_setBGScrollY           _sms_manager
     0000083A  A$_sms_manager$229                 _sms_manager
     0000083C  A$_sms_manager$230                 _sms_manager
     0000083F  A$_sms_manager$235                 _sms_manager
     0000083F  C$_sms_manager.c$36$1$84           _sms_manager
     0000083F  XG$devkit_SMS_setBGScrollY$0$0     _sms_manager
     00000842  A$_sms_manager$248                 _sms_manager
     00000842  C$_sms_manager.c$38$1$84           _sms_manager
     00000842  C$_sms_manager.c$40$1$85           _sms_manager
     00000842  G$devkit_SMS_enableSRAM$0$0        _sms_manager
     00000842  _devkit_SMS_enableSRAM             _sms_manager
     00000845  A$_sms_manager$249                 _sms_manager
ASxxxx Linker V03.00 + NoICE + sdld,  page 6.
Hexadecimal  [32-Bits]

Area                                    Addr        Size        Decimal Bytes (Attributes)
--------------------------------        ----        ----        ------- ----- ------------
_CODE                               00000200    000030D0 =       12496. bytes (REL,CON)

      Value  Global                              Global Defined In Module
      -----  --------------------------------   ------------------------
     00000847  A$_sms_manager$254                 _sms_manager
     00000847  C$_sms_manager.c$41$1$85           _sms_manager
     00000847  XG$devkit_SMS_enableSRAM$0$0       _sms_manager
     00000848  A$_sms_manager$267                 _sms_manager
     00000848  C$_sms_manager.c$42$1$85           _sms_manager
     00000848  C$_sms_manager.c$44$1$87           _sms_manager
     00000848  G$devkit_SMS_enableSRAMBank$0$0    _sms_manager
     00000848  _devkit_SMS_enableSRAMBank         _sms_manager
     0000084B  A$_sms_manager$268                 _sms_manager
     0000084C  A$_sms_manager$269                 _sms_manager
     0000084D  A$_sms_manager$270                 _sms_manager
     0000084E  A$_sms_manager$271                 _sms_manager
     0000084F  A$_sms_manager$272                 _sms_manager
     00000851  A$_sms_manager$273                 _sms_manager
     00000853  A$_sms_manager$274                 _sms_manager
     00000856  A$_sms_manager$279                 _sms_manager
     00000856  C$_sms_manager.c$45$1$87           _sms_manager
     00000856  XG$devkit_SMS_enableSRAMBank$0$0   _sms_manager
     00000857  A$_sms_manager$292                 _sms_manager
     00000857  C$_sms_manager.c$46$1$87           _sms_manager
     00000857  C$_sms_manager.c$48$1$88           _sms_manager
     00000857  G$devkit_SMS_disableSRAM$0$0       _sms_manager
     00000857  _devkit_SMS_disableSRAM            _sms_manager
     0000085A  A$_sms_manager$293                 _sms_manager
     0000085C  A$_sms_manager$298                 _sms_manager
     0000085C  C$_sms_manager.c$49$1$88           _sms_manager
     0000085C  XG$devkit_SMS_disableSRAM$0$0      _sms_manager
     0000085D  A$_sms_manager$311                 _sms_manager
     0000085D  C$_sms_manager.c$52$1$88           _sms_manager
     0000085D  C$_sms_manager.c$54$1$90           _sms_manager
     0000085D  G$devkit_SMS_setSpriteMode$0$0     _sms_manager
     0000085D  _devkit_SMS_setSpriteMode          _sms_manager
     00000861  A$_sms_manager$312                 _sms_manager
     00000863  A$_sms_manager$313                 _sms_manager
     00000866  A$_sms_manager$318                 _sms_manager
     00000866  C$_sms_manager.c$55$1$90           _sms_manager
     00000866  XG$devkit_SMS_setSpriteMode$0$0    _sms_manager
     00000869  A$_sms_manager$331                 _sms_manager
     00000869  C$_sms_manager.c$56$1$90           _sms_manager
     00000869  C$_sms_manager.c$58$1$91           _sms_manager
     00000869  G$devkit_SMS_useFirstHalfTilesfo   _sms_manager
     00000869  _devkit_SMS_useFirstHalfTilesfor   _sms_manager
     0000086B  A$_sms_manager$336                 _sms_manager
     0000086B  C$_sms_manager.c$59$1$91           _sms_manager
     0000086B  XG$devkit_SMS_useFirstHalfTilesf   _sms_manager
     0000086E  A$_sms_manager$349                 _sms_manager
     0000086E  C$_sms_manager.c$60$1$91           _sms_manager
     0000086E  C$_sms_manager.c$62$1$92           _sms_manager
     0000086E  G$devkit_SMS_useFirstHalfTilesfo   _sms_manager
     0000086E  _devkit_SMS_useFirstHalfTilesfor   _sms_manager
     00000870  A$_sms_manager$354                 _sms_manager
ASxxxx Linker V03.00 + NoICE + sdld,  page 7.
Hexadecimal  [32-Bits]

Area                                    Addr        Size        Decimal Bytes (Attributes)
--------------------------------        ----        ----        ------- ----- ------------
_CODE                               00000200    000030D0 =       12496. bytes (REL,CON)

      Value  Global                              Global Defined In Module
      -----  --------------------------------   ------------------------
     00000870  C$_sms_manager.c$63$1$92           _sms_manager
     00000870  XG$devkit_SMS_useFirstHalfTilesf   _sms_manager
     00000873  A$_sms_manager$367                 _sms_manager
     00000873  C$_sms_manager.c$64$1$92           _sms_manager
     00000873  C$_sms_manager.c$66$1$94           _sms_manager
     00000873  G$devkit_SMS_VDPturnOnFeature$0$   _sms_manager
     00000873  _devkit_SMS_VDPturnOnFeature       _sms_manager
     00000874  A$_sms_manager$368                 _sms_manager
     00000875  A$_sms_manager$369                 _sms_manager
     00000876  A$_sms_manager$370                 _sms_manager
     00000877  A$_sms_manager$375                 _sms_manager
     00000877  C$_sms_manager.c$67$1$94           _sms_manager
     00000877  XG$devkit_SMS_VDPturnOnFeature$0   _sms_manager
     0000087A  A$_sms_manager$388                 _sms_manager
     0000087A  C$_sms_manager.c$69$1$94           _sms_manager
     0000087A  C$_sms_manager.c$71$1$96           _sms_manager
     0000087A  G$devkit_SMS_loadPSGaidencompres   _sms_manager
     0000087A  _devkit_SMS_loadPSGaidencompress   _sms_manager
     0000087D  A$_sms_manager$389                 _sms_manager
     0000087E  A$_sms_manager$390                 _sms_manager
     0000087F  A$_sms_manager$391                 _sms_manager
     00000880  A$_sms_manager$392                 _sms_manager
     00000881  A$_sms_manager$393                 _sms_manager
     00000882  A$_sms_manager$394                 _sms_manager
     00000885  A$_sms_manager$395                 _sms_manager
     00000886  A$_sms_manager$396                 _sms_manager
     00000887  A$_sms_manager$397                 _sms_manager
     00000888  A$_sms_manager$398                 _sms_manager
     00000889  A$_sms_manager$399                 _sms_manager
     0000088A  A$_sms_manager$400                 _sms_manager
     0000088D  A$_sms_manager$401                 _sms_manager
     0000088E  A$_sms_manager$402                 _sms_manager
     0000088F  A$_sms_manager$407                 _sms_manager
     0000088F  C$_sms_manager.c$72$1$96           _sms_manager
     0000088F  XG$devkit_SMS_loadPSGaidencompre   _sms_manager
     00000890  A$_sms_manager$420                 _sms_manager
     00000890  C$_sms_manager.c$73$1$96           _sms_manager
     00000890  C$_sms_manager.c$75$1$98           _sms_manager
     00000890  G$devkit_SMS_loadSTMcompressedTi   _sms_manager
     00000890  _devkit_SMS_loadSTMcompressedTil   _sms_manager
     00000892  A$_sms_manager$421                 _sms_manager
     00000893  A$_sms_manager$422                 _sms_manager
     00000894  A$_sms_manager$423                 _sms_manager
     00000897  A$_sms_manager$424                 _sms_manager
     00000898  A$_sms_manager$425                 _sms_manager
     00000899  A$_sms_manager$426                 _sms_manager
     0000089A  A$_sms_manager$427                 _sms_manager
     0000089B  A$_sms_manager$428                 _sms_manager
     0000089C  A$_sms_manager$429                 _sms_manager
     0000089F  A$_sms_manager$430                 _sms_manager
     000008A0  A$_sms_manager$431                 _sms_manager
ASxxxx Linker V03.00 + NoICE + sdld,  page 8.
Hexadecimal  [32-Bits]

Area                                    Addr        Size        Decimal Bytes (Attributes)
--------------------------------        ----        ----        ------- ----- ------------
_CODE                               00000200    000030D0 =       12496. bytes (REL,CON)

      Value  Global                              Global Defined In Module
      -----  --------------------------------   ------------------------
     000008A1  A$_sms_manager$432                 _sms_manager
     000008A2  A$_sms_manager$433                 _sms_manager
     000008A3  A$_sms_manager$434                 _sms_manager
     000008A6  A$_sms_manager$435                 _sms_manager
     000008A7  A$_sms_manager$436                 _sms_manager
     000008A8  A$_sms_manager$437                 _sms_manager
     000008A9  A$_sms_manager$438                 _sms_manager
     000008AA  A$_sms_manager$439                 _sms_manager
     000008AD  A$_sms_manager$440                 _sms_manager
     000008AE  A$_sms_manager$441                 _sms_manager
     000008AF  A$_sms_manager$442                 _sms_manager
     000008B0  A$_sms_manager$447                 _sms_manager
     000008B0  C$_sms_manager.c$76$1$98           _sms_manager
     000008B0  XG$devkit_SMS_loadSTMcompressedT   _sms_manager
     000008B1  A$_sms_manager$460                 _sms_manager
     000008B1  C$_sms_manager.c$78$1$98           _sms_manager
     000008B1  C$_sms_manager.c$80$1$100          _sms_manager
     000008B1  G$devkit_SMS_loadBGPalette$0$0     _sms_manager
     000008B1  _devkit_SMS_loadBGPalette          _sms_manager
     000008B2  A$_sms_manager$461                 _sms_manager
     000008B3  A$_sms_manager$462                 _sms_manager
     000008B4  A$_sms_manager$463                 _sms_manager
     000008B5  A$_sms_manager$468                 _sms_manager
     000008B5  C$_sms_manager.c$81$1$100          _sms_manager
     000008B5  XG$devkit_SMS_loadBGPalette$0$0    _sms_manager
     000008B8  A$_sms_manager$481                 _sms_manager
     000008B8  C$_sms_manager.c$82$1$100          _sms_manager
     000008B8  C$_sms_manager.c$84$1$102          _sms_manager
     000008B8  G$devkit_SMS_loadSpritePalette$0   _sms_manager
     000008B8  _devkit_SMS_loadSpritePalette      _sms_manager
     000008B9  A$_sms_manager$482                 _sms_manager
     000008BA  A$_sms_manager$483                 _sms_manager
     000008BB  A$_sms_manager$484                 _sms_manager
     000008BC  A$_sms_manager$489                 _sms_manager
     000008BC  C$_sms_manager.c$85$1$102          _sms_manager
     000008BC  XG$devkit_SMS_loadSpritePalette$   _sms_manager
     000008BF  A$_sms_manager$502                 _sms_manager
     000008BF  C$_sms_manager.c$86$1$102          _sms_manager
     000008BF  C$_sms_manager.c$88$1$104          _sms_manager
     000008BF  G$devkit_SMS_setBGPaletteColor$0   _sms_manager
     000008BF  _devkit_SMS_setBGPaletteColor      _sms_manager
     000008C2  A$_sms_manager$503                 _sms_manager
     000008C3  A$_sms_manager$504                 _sms_manager
     000008C4  A$_sms_manager$505                 _sms_manager
     000008C5  A$_sms_manager$506                 _sms_manager
     000008C6  A$_sms_manager$507                 _sms_manager
     000008C9  A$_sms_manager$508                 _sms_manager
     000008CA  A$_sms_manager$509                 _sms_manager
     000008CB  A$_sms_manager$510                 _sms_manager
     000008CC  A$_sms_manager$511                 _sms_manager
     000008CF  A$_sms_manager$512                 _sms_manager
ASxxxx Linker V03.00 + NoICE + sdld,  page 9.
Hexadecimal  [32-Bits]

Area                                    Addr        Size        Decimal Bytes (Attributes)
--------------------------------        ----        ----        ------- ----- ------------
_CODE                               00000200    000030D0 =       12496. bytes (REL,CON)

      Value  Global                              Global Defined In Module
      -----  --------------------------------   ------------------------
     000008D0  A$_sms_manager$513                 _sms_manager
     000008D1  A$_sms_manager$514                 _sms_manager
     000008D2  A$_sms_manager$515                 _sms_manager
     000008D3  A$_sms_manager$516                 _sms_manager
     000008D4  A$_sms_manager$517                 _sms_manager
     000008D5  A$_sms_manager$518                 _sms_manager
     000008D7  A$_sms_manager$519                 _sms_manager
     000008D8  A$_sms_manager$520                 _sms_manager
     000008D9  A$_sms_manager$524                 _sms_manager
     000008D9  C$_sms_manager.c$89$1$104          _sms_manager
     000008DA  A$_sms_manager$525                 _sms_manager
     000008DB  A$_sms_manager$526                 _sms_manager
     000008DE  A$_sms_manager$527                 _sms_manager
     000008DF  A$_sms_manager$528                 _sms_manager
     000008E0  A$_sms_manager$529                 _sms_manager
     000008E1  A$_sms_manager$530                 _sms_manager
     000008E2  A$_sms_manager$531                 _sms_manager
     000008E5  A$_sms_manager$532                 _sms_manager
     000008E6  A$_sms_manager$537                 _sms_manager
     000008E6  C$_sms_manager.c$90$1$104          _sms_manager
     000008E6  XG$devkit_SMS_setBGPaletteColor$   _sms_manager
     000008E7  A$_sms_manager$550                 _sms_manager
     000008E7  C$_sms_manager.c$91$1$104          _sms_manager
     000008E7  C$_sms_manager.c$93$1$106          _sms_manager
     000008E7  G$devkit_SMS_setSpritePaletteCol   _sms_manager
     000008E7  _devkit_SMS_setSpritePaletteColo   _sms_manager
     000008EA  A$_sms_manager$551                 _sms_manager
     000008EB  A$_sms_manager$552                 _sms_manager
     000008EC  A$_sms_manager$553                 _sms_manager
     000008ED  A$_sms_manager$554                 _sms_manager
     000008EE  A$_sms_manager$555                 _sms_manager
     000008F1  A$_sms_manager$556                 _sms_manager
     000008F2  A$_sms_manager$557                 _sms_manager
     000008F3  A$_sms_manager$558                 _sms_manager
     000008F4  A$_sms_manager$559                 _sms_manager
     000008F7  A$_sms_manager$560                 _sms_manager
     000008F8  A$_sms_manager$561                 _sms_manager
     000008F9  A$_sms_manager$562                 _sms_manager
     000008FA  A$_sms_manager$563                 _sms_manager
     000008FB  A$_sms_manager$564                 _sms_manager
     000008FC  A$_sms_manager$565                 _sms_manager
     000008FD  A$_sms_manager$566                 _sms_manager
     000008FF  A$_sms_manager$567                 _sms_manager
     00000900  A$_sms_manager$568                 _sms_manager
     00000901  A$_sms_manager$572                 _sms_manager
     00000901  C$_sms_manager.c$94$1$106          _sms_manager
     00000902  A$_sms_manager$573                 _sms_manager
     00000903  A$_sms_manager$574                 _sms_manager
     00000906  A$_sms_manager$575                 _sms_manager
     00000907  A$_sms_manager$576                 _sms_manager
     00000908  A$_sms_manager$577                 _sms_manager
ASxxxx Linker V03.00 + NoICE + sdld,  page 10.
Hexadecimal  [32-Bits]

Area                                    Addr        Size        Decimal Bytes (Attributes)
--------------------------------        ----        ----        ------- ----- ------------
_CODE                               00000200    000030D0 =       12496. bytes (REL,CON)

      Value  Global                              Global Defined In Module
      -----  --------------------------------   ------------------------
     00000909  A$_sms_manager$578                 _sms_manager
     0000090A  A$_sms_manager$579                 _sms_manager
     0000090D  A$_sms_manager$580                 _sms_manager
     0000090E  A$_sms_manager$585                 _sms_manager
     0000090E  C$_sms_manager.c$95$1$106          _sms_manager
     0000090E  XG$devkit_SMS_setSpritePaletteCo   _sms_manager
     0000090F  A$_sms_manager$595                 _sms_manager
     0000090F  C$_sms_manager.c$97$1$106          _sms_manager
     0000090F  G$devkit_SMS_setNextTileatXY$0$0   _sms_manager
     0000090F  _devkit_SMS_setNextTileatXY        _sms_manager
     00000911  A$_sms_manager$596                 _sms_manager
     00000915  A$_sms_manager$597                 _sms_manager
     00000917  A$_sms_manager$601                 _sms_manager
     00000917  C$_sms_manager.c$99$1$108          _sms_manager
     0000091A  A$_sms_manager$602                 _sms_manager
     0000091C  A$_sms_manager$603                 _sms_manager
     0000091D  A$_sms_manager$604                 _sms_manager
     0000091E  A$_sms_manager$605                 _sms_manager
     0000091F  A$_sms_manager$606                 _sms_manager
     00000920  A$_sms_manager$607                 _sms_manager
     00000921  A$_sms_manager$608                 _sms_manager
     00000922  A$_sms_manager$609                 _sms_manager
     00000923  A$_sms_manager$610                 _sms_manager
     00000924  A$_sms_manager$611                 _sms_manager
     00000926  A$_sms_manager$612                 _sms_manager
     00000927  A$_sms_manager$613                 _sms_manager
     0000092A  A$_sms_manager$614                 _sms_manager
     0000092C  A$_sms_manager$615                 _sms_manager
     0000092D  A$_sms_manager$616                 _sms_manager
     0000092E  A$_sms_manager$617                 _sms_manager
     0000092F  A$_sms_manager$618                 _sms_manager
     00000930  A$_sms_manager$619                 _sms_manager
     00000931  A$_sms_manager$620                 _sms_manager
     00000932  A$_sms_manager$621                 _sms_manager
     00000933  A$_sms_manager$626                 _sms_manager
     00000933  C$_sms_manager.c$100$1$108         _sms_manager
     00000933  XG$devkit_SMS_setNextTileatXY$0$   _sms_manager
     00000935  A$_sms_manager$627                 _sms_manager
     00000938  A$_sms_manager$640                 _sms_manager
     00000938  C$_sms_manager.c$101$1$108         _sms_manager
     00000938  C$_sms_manager.c$103$1$110         _sms_manager
     00000938  G$devkit_SMS_setTile$0$0           _sms_manager
     00000938  _devkit_SMS_setTile                _sms_manager
     0000093C  A$_sms_manager$641                 _sms_manager
     0000093E  A$_sms_manager$642                 _sms_manager
     00000941  A$_sms_manager$643                 _sms_manager
     00000943  A$_sms_manager$648                 _sms_manager
     00000943  C$_sms_manager.c$104$1$110         _sms_manager
     00000943  XG$devkit_SMS_setTile$0$0          _sms_manager
     00000946  A$_sms_manager$661                 _sms_manager
     00000946  C$_sms_manager.c$105$1$110         _sms_manager
ASxxxx Linker V03.00 + NoICE + sdld,  page 11.
Hexadecimal  [32-Bits]

Area                                    Addr        Size        Decimal Bytes (Attributes)
--------------------------------        ----        ----        ------- ----- ------------
_CODE                               00000200    000030D0 =       12496. bytes (REL,CON)

      Value  Global                              Global Defined In Module
      -----  --------------------------------   ------------------------
     00000946  C$_sms_manager.c$107$1$112         _sms_manager
     00000946  G$devkit_SMS_loadTileMap$0$0       _sms_manager
     00000946  _devkit_SMS_loadTileMap            _sms_manager
     00000949  A$_sms_manager$662                 _sms_manager
     0000094A  A$_sms_manager$663                 _sms_manager
     0000094B  A$_sms_manager$664                 _sms_manager
     0000094C  A$_sms_manager$665                 _sms_manager
     0000094D  A$_sms_manager$666                 _sms_manager
     00000950  A$_sms_manager$667                 _sms_manager
     00000951  A$_sms_manager$668                 _sms_manager
     00000952  A$_sms_manager$669                 _sms_manager
     00000953  A$_sms_manager$670                 _sms_manager
     00000954  A$_sms_manager$671                 _sms_manager
     00000955  A$_sms_manager$672                 _sms_manager
     00000956  A$_sms_manager$673                 _sms_manager
     00000957  A$_sms_manager$674                 _sms_manager
     0000095A  A$_sms_manager$675                 _sms_manager
     0000095B  A$_sms_manager$676                 _sms_manager
     0000095C  A$_sms_manager$677                 _sms_manager
     0000095D  A$_sms_manager$678                 _sms_manager
     0000095E  A$_sms_manager$679                 _sms_manager
     00000961  A$_sms_manager$680                 _sms_manager
     00000962  A$_sms_manager$681                 _sms_manager
     00000963  A$_sms_manager$682                 _sms_manager
     00000964  A$_sms_manager$683                 _sms_manager
     00000965  A$_sms_manager$684                 _sms_manager
     00000968  A$_sms_manager$685                 _sms_manager
     0000096B  A$_sms_manager$686                 _sms_manager
     0000096C  A$_sms_manager$687                 _sms_manager
     0000096D  A$_sms_manager$692                 _sms_manager
     0000096D  C$_sms_manager.c$108$1$112         _sms_manager
     0000096D  XG$devkit_SMS_loadTileMap$0$0      _sms_manager
     0000096E  A$_sms_manager$705                 _sms_manager
     0000096E  C$_sms_manager.c$110$1$112         _sms_manager
     0000096E  C$_sms_manager.c$112$1$114         _sms_manager
     0000096E  G$devkit_SMS_addSprite$0$0         _sms_manager
     0000096E  _devkit_SMS_addSprite              _sms_manager
     00000971  A$_sms_manager$706                 _sms_manager
     00000972  A$_sms_manager$707                 _sms_manager
     00000973  A$_sms_manager$708                 _sms_manager
     00000974  A$_sms_manager$709                 _sms_manager
     00000975  A$_sms_manager$710                 _sms_manager
     00000978  A$_sms_manager$711                 _sms_manager
     00000979  A$_sms_manager$712                 _sms_manager
     0000097A  A$_sms_manager$713                 _sms_manager
     0000097B  A$_sms_manager$714                 _sms_manager
     0000097C  A$_sms_manager$715                 _sms_manager
     0000097F  A$_sms_manager$716                 _sms_manager
     00000980  A$_sms_manager$717                 _sms_manager
     00000981  A$_sms_manager$718                 _sms_manager
     00000982  A$_sms_manager$719                 _sms_manager
ASxxxx Linker V03.00 + NoICE + sdld,  page 12.
Hexadecimal  [32-Bits]

Area                                    Addr        Size        Decimal Bytes (Attributes)
--------------------------------        ----        ----        ------- ----- ------------
_CODE                               00000200    000030D0 =       12496. bytes (REL,CON)

      Value  Global                              Global Defined In Module
      -----  --------------------------------   ------------------------
     00000983  A$_sms_manager$720                 _sms_manager
     00000986  A$_sms_manager$721                 _sms_manager
     00000987  A$_sms_manager$722                 _sms_manager
     00000988  A$_sms_manager$727                 _sms_manager
     00000988  C$_sms_manager.c$113$1$114         _sms_manager
     00000988  XG$devkit_SMS_addSprite$0$0        _sms_manager
     00000989  A$_sms_manager$737                 _sms_manager
     00000989  C$_sms_manager.c$114$1$114         _sms_manager
     00000989  G$devkit_SMS_addSprite_bulk8$0$0   _sms_manager
     00000989  _devkit_SMS_addSprite_bulk8        _sms_manager
     0000098B  A$_sms_manager$738                 _sms_manager
     0000098F  A$_sms_manager$739                 _sms_manager
     00000991  A$_sms_manager$743                 _sms_manager
     00000991  C$_sms_manager.c$116$1$116         _sms_manager
     00000994  A$_sms_manager$744                 _sms_manager
     00000997  A$_sms_manager$745                 _sms_manager
     00000998  A$_sms_manager$746                 _sms_manager
     0000099B  A$_sms_manager$747                 _sms_manager
     0000099E  A$_sms_manager$748                 _sms_manager
     0000099F  A$_sms_manager$749                 _sms_manager
     000009A2  A$_sms_manager$750                 _sms_manager
     000009A3  A$_sms_manager$751                 _sms_manager
     000009A4  A$_sms_manager$755                 _sms_manager
     000009A4  C$_sms_manager.c$117$1$116         _sms_manager
     000009A7  A$_sms_manager$756                 _sms_manager
     000009AA  A$_sms_manager$757                 _sms_manager
     000009AB  A$_sms_manager$758                 _sms_manager
     000009AE  A$_sms_manager$759                 _sms_manager
     000009B0  A$_sms_manager$760                 _sms_manager
     000009B1  A$_sms_manager$761                 _sms_manager
     000009B2  A$_sms_manager$762                 _sms_manager
     000009B3  A$_sms_manager$763                 _sms_manager
     000009B6  A$_sms_manager$764                 _sms_manager
     000009B7  A$_sms_manager$765                 _sms_manager
     000009B8  A$_sms_manager$766                 _sms_manager
     000009B9  A$_sms_manager$767                 _sms_manager
     000009BA  A$_sms_manager$768                 _sms_manager
     000009BD  A$_sms_manager$769                 _sms_manager
     000009BE  A$_sms_manager$770                 _sms_manager
     000009BF  A$_sms_manager$771                 _sms_manager
     000009C0  A$_sms_manager$775                 _sms_manager
     000009C0  C$_sms_manager.c$119$1$116         _sms_manager
     000009C3  A$_sms_manager$776                 _sms_manager
     000009C6  A$_sms_manager$777                 _sms_manager
     000009C7  A$_sms_manager$778                 _sms_manager
     000009C8  A$_sms_manager$779                 _sms_manager
     000009CB  A$_sms_manager$780                 _sms_manager
     000009CD  A$_sms_manager$781                 _sms_manager
     000009CE  A$_sms_manager$782                 _sms_manager
     000009CF  A$_sms_manager$783                 _sms_manager
     000009D0  A$_sms_manager$784                 _sms_manager
ASxxxx Linker V03.00 + NoICE + sdld,  page 13.
Hexadecimal  [32-Bits]

Area                                    Addr        Size        Decimal Bytes (Attributes)
--------------------------------        ----        ----        ------- ----- ------------
_CODE                               00000200    000030D0 =       12496. bytes (REL,CON)

      Value  Global                              Global Defined In Module
      -----  --------------------------------   ------------------------
     000009D1  A$_sms_manager$785                 _sms_manager
     000009D2  A$_sms_manager$786                 _sms_manager
     000009D3  A$_sms_manager$787                 _sms_manager
     000009D6  A$_sms_manager$788                 _sms_manager
     000009D7  A$_sms_manager$789                 _sms_manager
     000009D8  A$_sms_manager$790                 _sms_manager
     000009DB  A$_sms_manager$791                 _sms_manager
     000009DC  A$_sms_manager$792                 _sms_manager
     000009DD  A$_sms_manager$793                 _sms_manager
     000009DE  A$_sms_manager$794                 _sms_manager
     000009DF  A$_sms_manager$798                 _sms_manager
     000009DF  C$_sms_manager.c$120$1$116         _sms_manager
     000009E2  A$_sms_manager$799                 _sms_manager
     000009E5  A$_sms_manager$800                 _sms_manager
     000009E6  A$_sms_manager$801                 _sms_manager
     000009E7  A$_sms_manager$802                 _sms_manager
     000009E8  A$_sms_manager$803                 _sms_manager
     000009E9  A$_sms_manager$804                 _sms_manager
     000009EA  A$_sms_manager$805                 _sms_manager
     000009EB  A$_sms_manager$806                 _sms_manager
     000009EC  A$_sms_manager$807                 _sms_manager
     000009EF  A$_sms_manager$808                 _sms_manager
     000009F0  A$_sms_manager$809                 _sms_manager
     000009F1  A$_sms_manager$810                 _sms_manager
     000009F2  A$_sms_manager$814                 _sms_manager
     000009F2  C$_sms_manager.c$122$1$116         _sms_manager
     000009F5  A$_sms_manager$815                 _sms_manager
     000009F7  A$_sms_manager$816                 _sms_manager
     000009F8  A$_sms_manager$817                 _sms_manager
     000009FB  A$_sms_manager$818                 _sms_manager
     000009FD  A$_sms_manager$819                 _sms_manager
     000009FE  A$_sms_manager$820                 _sms_manager
     00000A01  A$_sms_manager$821                 _sms_manager
     00000A03  A$_sms_manager$822                 _sms_manager
     00000A04  A$_sms_manager$823                 _sms_manager
     00000A05  A$_sms_manager$824                 _sms_manager
     00000A06  A$_sms_manager$825                 _sms_manager
     00000A07  A$_sms_manager$826                 _sms_manager
     00000A08  A$_sms_manager$827                 _sms_manager
     00000A09  A$_sms_manager$828                 _sms_manager
     00000A0C  A$_sms_manager$829                 _sms_manager
     00000A0D  A$_sms_manager$830                 _sms_manager
     00000A0E  A$_sms_manager$831                 _sms_manager
     00000A11  A$_sms_manager$832                 _sms_manager
     00000A12  A$_sms_manager$833                 _sms_manager
     00000A13  A$_sms_manager$834                 _sms_manager
     00000A14  A$_sms_manager$835                 _sms_manager
     00000A15  A$_sms_manager$839                 _sms_manager
     00000A15  C$_sms_manager.c$123$1$116         _sms_manager
     00000A18  A$_sms_manager$840                 _sms_manager
     00000A1A  A$_sms_manager$841                 _sms_manager
ASxxxx Linker V03.00 + NoICE + sdld,  page 14.
Hexadecimal  [32-Bits]

Area                                    Addr        Size        Decimal Bytes (Attributes)
--------------------------------        ----        ----        ------- ----- ------------
_CODE                               00000200    000030D0 =       12496. bytes (REL,CON)

      Value  Global                              Global Defined In Module
      -----  --------------------------------   ------------------------
     00000A1B  A$_sms_manager$842                 _sms_manager
     00000A1E  A$_sms_manager$843                 _sms_manager
     00000A20  A$_sms_manager$844                 _sms_manager
     00000A21  A$_sms_manager$845                 _sms_manager
     00000A22  A$_sms_manager$846                 _sms_manager
     00000A23  A$_sms_manager$847                 _sms_manager
     00000A24  A$_sms_manager$848                 _sms_manager
     00000A25  A$_sms_manager$849                 _sms_manager
     00000A28  A$_sms_manager$850                 _sms_manager
     00000A29  A$_sms_manager$851                 _sms_manager
     00000A2A  A$_sms_manager$852                 _sms_manager
     00000A2B  A$_sms_manager$856                 _sms_manager
     00000A2B  C$_sms_manager.c$125$1$116         _sms_manager
     00000A2E  A$_sms_manager$857                 _sms_manager
     00000A30  A$_sms_manager$858                 _sms_manager
     00000A31  A$_sms_manager$859                 _sms_manager
     00000A34  A$_sms_manager$860                 _sms_manager
     00000A36  A$_sms_manager$861                 _sms_manager
     00000A37  A$_sms_manager$862                 _sms_manager
     00000A3A  A$_sms_manager$863                 _sms_manager
     00000A3C  A$_sms_manager$864                 _sms_manager
     00000A3D  A$_sms_manager$865                 _sms_manager
     00000A3E  A$_sms_manager$866                 _sms_manager
     00000A3F  A$_sms_manager$867                 _sms_manager
     00000A40  A$_sms_manager$868                 _sms_manager
     00000A41  A$_sms_manager$869                 _sms_manager
     00000A42  A$_sms_manager$870                 _sms_manager
     00000A45  A$_sms_manager$871                 _sms_manager
     00000A46  A$_sms_manager$872                 _sms_manager
     00000A47  A$_sms_manager$873                 _sms_manager
     00000A4A  A$_sms_manager$874                 _sms_manager
     00000A4B  A$_sms_manager$875                 _sms_manager
     00000A4C  A$_sms_manager$876                 _sms_manager
     00000A4D  A$_sms_manager$877                 _sms_manager
     00000A4E  A$_sms_manager$881                 _sms_manager
     00000A4E  C$_sms_manager.c$126$1$116         _sms_manager
     00000A51  A$_sms_manager$882                 _sms_manager
     00000A53  A$_sms_manager$883                 _sms_manager
     00000A54  A$_sms_manager$884                 _sms_manager
     00000A57  A$_sms_manager$885                 _sms_manager
     00000A59  A$_sms_manager$886                 _sms_manager
     00000A5A  A$_sms_manager$887                 _sms_manager
     00000A5B  A$_sms_manager$888                 _sms_manager
     00000A5C  A$_sms_manager$889                 _sms_manager
     00000A5D  A$_sms_manager$890                 _sms_manager
     00000A60  A$_sms_manager$891                 _sms_manager
     00000A61  A$_sms_manager$892                 _sms_manager
     00000A62  A$_sms_manager$893                 _sms_manager
     00000A64  A$_sms_manager$898                 _sms_manager
     00000A64  C$_sms_manager.c$127$1$116         _sms_manager
     00000A64  XG$devkit_SMS_addSprite_bulk8$0$   _sms_manager
ASxxxx Linker V03.00 + NoICE + sdld,  page 15.
Hexadecimal  [32-Bits]

Area                                    Addr        Size        Decimal Bytes (Attributes)
--------------------------------        ----        ----        ------- ----- ------------
_CODE                               00000200    000030D0 =       12496. bytes (REL,CON)

      Value  Global                              Global Defined In Module
      -----  --------------------------------   ------------------------
     00000A65  A$_sms_manager$908                 _sms_manager
     00000A65  C$_sms_manager.c$128$1$116         _sms_manager
     00000A65  G$devkit_SMS_addSprite_bulk12$0$   _sms_manager
     00000A65  _devkit_SMS_addSprite_bulk12       _sms_manager
     00000A67  A$_sms_manager$909                 _sms_manager
     00000A6B  A$_sms_manager$910                 _sms_manager
     00000A6D  A$_sms_manager$914                 _sms_manager
     00000A6D  C$_sms_manager.c$130$1$118         _sms_manager
     00000A70  A$_sms_manager$915                 _sms_manager
     00000A71  A$_sms_manager$916                 _sms_manager
     00000A72  A$_sms_manager$917                 _sms_manager
     00000A75  A$_sms_manager$918                 _sms_manager
     00000A76  A$_sms_manager$919                 _sms_manager
     00000A79  A$_sms_manager$920                 _sms_manager
     00000A7A  A$_sms_manager$921                 _sms_manager
     00000A7B  A$_sms_manager$922                 _sms_manager
     00000A7E  A$_sms_manager$923                 _sms_manager
     00000A7F  A$_sms_manager$924                 _sms_manager
     00000A80  A$_sms_manager$925                 _sms_manager
     00000A81  A$_sms_manager$929                 _sms_manager
     00000A81  C$_sms_manager.c$131$1$118         _sms_manager
     00000A82  A$_sms_manager$930                 _sms_manager
     00000A83  A$_sms_manager$931                 _sms_manager
     00000A86  A$_sms_manager$932                 _sms_manager
     00000A88  A$_sms_manager$933                 _sms_manager
     00000A89  A$_sms_manager$934                 _sms_manager
     00000A8A  A$_sms_manager$935                 _sms_manager
     00000A8B  A$_sms_manager$936                 _sms_manager
     00000A8C  A$_sms_manager$937                 _sms_manager
     00000A8F  A$_sms_manager$938                 _sms_manager
     00000A90  A$_sms_manager$939                 _sms_manager
     00000A91  A$_sms_manager$940                 _sms_manager
     00000A92  A$_sms_manager$941                 _sms_manager
     00000A93  A$_sms_manager$942                 _sms_manager
     00000A96  A$_sms_manager$943                 _sms_manager
     00000A97  A$_sms_manager$944                 _sms_manager
     00000A98  A$_sms_manager$945                 _sms_manager
     00000A99  A$_sms_manager$949                 _sms_manager
     00000A99  C$_sms_manager.c$132$1$118         _sms_manager
     00000A9A  A$_sms_manager$950                 _sms_manager
     00000A9B  A$_sms_manager$951                 _sms_manager
     00000A9C  A$_sms_manager$952                 _sms_manager
     00000A9F  A$_sms_manager$953                 _sms_manager
     00000AA1  A$_sms_manager$954                 _sms_manager
     00000AA2  A$_sms_manager$955                 _sms_manager
     00000AA3  A$_sms_manager$956                 _sms_manager
     00000AA4  A$_sms_manager$957                 _sms_manager
     00000AA5  A$_sms_manager$958                 _sms_manager
     00000AA6  A$_sms_manager$959                 _sms_manager
     00000AA9  A$_sms_manager$960                 _sms_manager
     00000AAA  A$_sms_manager$961                 _sms_manager
ASxxxx Linker V03.00 + NoICE + sdld,  page 16.
Hexadecimal  [32-Bits]

Area                                    Addr        Size        Decimal Bytes (Attributes)
--------------------------------        ----        ----        ------- ----- ------------
_CODE                               00000200    000030D0 =       12496. bytes (REL,CON)

      Value  Global                              Global Defined In Module
      -----  --------------------------------   ------------------------
     00000AAD  A$_sms_manager$962                 _sms_manager
     00000AAE  A$_sms_manager$963                 _sms_manager
     00000AAF  A$_sms_manager$964                 _sms_manager
     00000AB0  A$_sms_manager$965                 _sms_manager
     00000AB1  A$_sms_manager$969                 _sms_manager
     00000AB1  C$_sms_manager.c$134$1$118         _sms_manager
     00000AB2  A$_sms_manager$970                 _sms_manager
     00000AB3  A$_sms_manager$971                 _sms_manager
     00000AB4  A$_sms_manager$972                 _sms_manager
     00000AB5  A$_sms_manager$973                 _sms_manager
     00000AB8  A$_sms_manager$974                 _sms_manager
     00000ABA  A$_sms_manager$975                 _sms_manager
     00000ABB  A$_sms_manager$976                 _sms_manager
     00000ABC  A$_sms_manager$977                 _sms_manager
     00000ABD  A$_sms_manager$978                 _sms_manager
     00000ABE  A$_sms_manager$979                 _sms_manager
     00000ABF  A$_sms_manager$980                 _sms_manager
     00000AC0  A$_sms_manager$981                 _sms_manager
     00000AC1  A$_sms_manager$982                 _sms_manager
     00000AC4  A$_sms_manager$983                 _sms_manager
     00000AC5  A$_sms_manager$984                 _sms_manager
     00000AC6  A$_sms_manager$985                 _sms_manager
     00000AC9  A$_sms_manager$986                 _sms_manager
     00000ACA  A$_sms_manager$987                 _sms_manager
     00000ACB  A$_sms_manager$988                 _sms_manager
     00000ACC  A$_sms_manager$989                 _sms_manager
     00000ACD  A$_sms_manager$993                 _sms_manager
     00000ACD  C$_sms_manager.c$135$1$118         _sms_manager
     00000ACE  A$_sms_manager$994                 _sms_manager
     00000AD0  A$_sms_manager$995                 _sms_manager
     00000AD1  A$_sms_manager$996                 _sms_manager
     00000AD2  A$_sms_manager$997                 _sms_manager
     00000AD3  A$_sms_manager$998                 _sms_manager
     00000AD4  A$_sms_manager$999                 _sms_manager
     00000AD5  A$_sms_manager$1000                _sms_manager
     00000AD6  A$_sms_manager$1001                _sms_manager
     00000AD9  A$_sms_manager$1002                _sms_manager
     00000ADA  A$_sms_manager$1003                _sms_manager
     00000ADB  A$_sms_manager$1004                _sms_manager
     00000ADC  A$_sms_manager$1005                _sms_manager
     00000ADD  A$_sms_manager$1009                _sms_manager
     00000ADD  C$_sms_manager.c$136$1$118         _sms_manager
     00000ADE  A$_sms_manager$1010                _sms_manager
     00000AE0  A$_sms_manager$1011                _sms_manager
     00000AE1  A$_sms_manager$1012                _sms_manager
     00000AE2  A$_sms_manager$1013                _sms_manager
     00000AE3  A$_sms_manager$1014                _sms_manager
     00000AE4  A$_sms_manager$1015                _sms_manager
     00000AE5  A$_sms_manager$1016                _sms_manager
     00000AE6  A$_sms_manager$1017                _sms_manager
     00000AE9  A$_sms_manager$1018                _sms_manager
ASxxxx Linker V03.00 + NoICE + sdld,  page 17.
Hexadecimal  [32-Bits]

Area                                    Addr        Size        Decimal Bytes (Attributes)
--------------------------------        ----        ----        ------- ----- ------------
_CODE                               00000200    000030D0 =       12496. bytes (REL,CON)

      Value  Global                              Global Defined In Module
      -----  --------------------------------   ------------------------
     00000AEA  A$_sms_manager$1019                _sms_manager
     00000AEB  A$_sms_manager$1020                _sms_manager
     00000AEC  A$_sms_manager$1021                _sms_manager
     00000AED  A$_sms_manager$1025                _sms_manager
     00000AED  C$_sms_manager.c$138$1$118         _sms_manager
     00000AEE  A$_sms_manager$1026                _sms_manager
     00000AF0  A$_sms_manager$1027                _sms_manager
     00000AF1  A$_sms_manager$1028                _sms_manager
     00000AF4  A$_sms_manager$1029                _sms_manager
     00000AF6  A$_sms_manager$1030                _sms_manager
     00000AF7  A$_sms_manager$1031                _sms_manager
     00000AF8  A$_sms_manager$1032                _sms_manager
     00000AF9  A$_sms_manager$1033                _sms_manager
     00000AFA  A$_sms_manager$1034                _sms_manager
     00000AFB  A$_sms_manager$1035                _sms_manager
     00000AFC  A$_sms_manager$1036                _sms_manager
     00000AFD  A$_sms_manager$1037                _sms_manager
     00000B00  A$_sms_manager$1038                _sms_manager
     00000B01  A$_sms_manager$1039                _sms_manager
     00000B02  A$_sms_manager$1040                _sms_manager
     00000B05  A$_sms_manager$1041                _sms_manager
     00000B06  A$_sms_manager$1042                _sms_manager
     00000B07  A$_sms_manager$1043                _sms_manager
     00000B08  A$_sms_manager$1044                _sms_manager
     00000B09  A$_sms_manager$1048                _sms_manager
     00000B09  C$_sms_manager.c$139$1$118         _sms_manager
     00000B0A  A$_sms_manager$1049                _sms_manager
     00000B0C  A$_sms_manager$1050                _sms_manager
     00000B0D  A$_sms_manager$1051                _sms_manager
     00000B0E  A$_sms_manager$1052                _sms_manager
     00000B0F  A$_sms_manager$1053                _sms_manager
     00000B10  A$_sms_manager$1054                _sms_manager
     00000B11  A$_sms_manager$1055                _sms_manager
     00000B12  A$_sms_manager$1056                _sms_manager
     00000B13  A$_sms_manager$1057                _sms_manager
     00000B16  A$_sms_manager$1058                _sms_manager
     00000B17  A$_sms_manager$1059                _sms_manager
     00000B18  A$_sms_manager$1060                _sms_manager
     00000B19  A$_sms_manager$1061                _sms_manager
     00000B1A  A$_sms_manager$1065                _sms_manager
     00000B1A  C$_sms_manager.c$140$1$118         _sms_manager
     00000B1B  A$_sms_manager$1066                _sms_manager
     00000B1D  A$_sms_manager$1067                _sms_manager
     00000B1E  A$_sms_manager$1068                _sms_manager
     00000B1F  A$_sms_manager$1069                _sms_manager
     00000B20  A$_sms_manager$1070                _sms_manager
     00000B21  A$_sms_manager$1071                _sms_manager
     00000B22  A$_sms_manager$1072                _sms_manager
     00000B23  A$_sms_manager$1073                _sms_manager
     00000B26  A$_sms_manager$1074                _sms_manager
     00000B27  A$_sms_manager$1075                _sms_manager
ASxxxx Linker V03.00 + NoICE + sdld,  page 18.
Hexadecimal  [32-Bits]

Area                                    Addr        Size        Decimal Bytes (Attributes)
--------------------------------        ----        ----        ------- ----- ------------
_CODE                               00000200    000030D0 =       12496. bytes (REL,CON)

      Value  Global                              Global Defined In Module
      -----  --------------------------------   ------------------------
     00000B28  A$_sms_manager$1076                _sms_manager
     00000B29  A$_sms_manager$1077                _sms_manager
     00000B2A  A$_sms_manager$1081                _sms_manager
     00000B2A  C$_sms_manager.c$142$1$118         _sms_manager
     00000B2B  A$_sms_manager$1082                _sms_manager
     00000B2D  A$_sms_manager$1083                _sms_manager
     00000B2E  A$_sms_manager$1084                _sms_manager
     00000B31  A$_sms_manager$1085                _sms_manager
     00000B33  A$_sms_manager$1086                _sms_manager
     00000B34  A$_sms_manager$1087                _sms_manager
     00000B35  A$_sms_manager$1088                _sms_manager
     00000B36  A$_sms_manager$1089                _sms_manager
     00000B37  A$_sms_manager$1090                _sms_manager
     00000B38  A$_sms_manager$1091                _sms_manager
     00000B39  A$_sms_manager$1092                _sms_manager
     00000B3A  A$_sms_manager$1093                _sms_manager
     00000B3D  A$_sms_manager$1094                _sms_manager
     00000B3E  A$_sms_manager$1095                _sms_manager
     00000B3F  A$_sms_manager$1096                _sms_manager
     00000B42  A$_sms_manager$1097                _sms_manager
     00000B43  A$_sms_manager$1098                _sms_manager
     00000B44  A$_sms_manager$1099                _sms_manager
     00000B45  A$_sms_manager$1100                _sms_manager
     00000B46  A$_sms_manager$1104                _sms_manager
     00000B46  C$_sms_manager.c$143$1$118         _sms_manager
     00000B47  A$_sms_manager$1105                _sms_manager
     00000B49  A$_sms_manager$1106                _sms_manager
     00000B4A  A$_sms_manager$1107                _sms_manager
     00000B4B  A$_sms_manager$1108                _sms_manager
     00000B4C  A$_sms_manager$1109                _sms_manager
     00000B4D  A$_sms_manager$1110                _sms_manager
     00000B4E  A$_sms_manager$1111                _sms_manager
     00000B4F  A$_sms_manager$1112                _sms_manager
     00000B50  A$_sms_manager$1113                _sms_manager
     00000B53  A$_sms_manager$1114                _sms_manager
     00000B54  A$_sms_manager$1115                _sms_manager
     00000B55  A$_sms_manager$1116                _sms_manager
     00000B56  A$_sms_manager$1117                _sms_manager
     00000B57  A$_sms_manager$1121                _sms_manager
     00000B57  C$_sms_manager.c$144$1$118         _sms_manager
     00000B58  A$_sms_manager$1122                _sms_manager
     00000B5A  A$_sms_manager$1123                _sms_manager
     00000B5B  A$_sms_manager$1124                _sms_manager
     00000B5C  A$_sms_manager$1125                _sms_manager
     00000B5D  A$_sms_manager$1126                _sms_manager
     00000B5E  A$_sms_manager$1127                _sms_manager
     00000B5F  A$_sms_manager$1128                _sms_manager
     00000B60  A$_sms_manager$1129                _sms_manager
     00000B63  A$_sms_manager$1130                _sms_manager
     00000B64  A$_sms_manager$1131                _sms_manager
     00000B65  A$_sms_manager$1132                _sms_manager
ASxxxx Linker V03.00 + NoICE + sdld,  page 19.
Hexadecimal  [32-Bits]

Area                                    Addr        Size        Decimal Bytes (Attributes)
--------------------------------        ----        ----        ------- ----- ------------
_CODE                               00000200    000030D0 =       12496. bytes (REL,CON)

      Value  Global                              Global Defined In Module
      -----  --------------------------------   ------------------------
     00000B67  A$_sms_manager$1137                _sms_manager
     00000B67  C$_sms_manager.c$145$1$118         _sms_manager
     00000B67  XG$devkit_SMS_addSprite_bulk12$0   _sms_manager
     00000B68  A$_sms_manager$1154                _sms_manager
     00000B68  C$_sms_manager.c$147$1$118         _sms_manager
     00000B68  C$_sms_manager.c$149$1$119         _sms_manager
     00000B68  C$_sms_manager.c$150$1$119         _sms_manager
     00000B68  G$devkit_SMS_initSprites$0$0       _sms_manager
     00000B68  XG$devkit_SMS_initSprites$0$0      _sms_manager
     00000B68  _devkit_SMS_initSprites            _sms_manager
     00000B6B  A$_sms_manager$1171                _sms_manager
     00000B6B  C$_sms_manager.c$151$1$119         _sms_manager
     00000B6B  C$_sms_manager.c$153$1$120         _sms_manager
     00000B6B  C$_sms_manager.c$154$1$120         _sms_manager
     00000B6B  G$devkit_SMS_finalizeSprites$0$0   _sms_manager
     00000B6B  XG$devkit_SMS_finalizeSprites$0$   _sms_manager
     00000B6B  _devkit_SMS_finalizeSprites        _sms_manager
     00000B6E  A$_sms_manager$1188                _sms_manager
     00000B6E  C$_sms_manager.c$155$1$120         _sms_manager
     00000B6E  C$_sms_manager.c$157$1$121         _sms_manager
     00000B6E  C$_sms_manager.c$158$1$121         _sms_manager
     00000B6E  G$devkit_SMS_waitForVBlank$0$0     _sms_manager
     00000B6E  XG$devkit_SMS_waitForVBlank$0$0    _sms_manager
     00000B6E  _devkit_SMS_waitForVBlank          _sms_manager
     00000B71  A$_sms_manager$1205                _sms_manager
     00000B71  C$_sms_manager.c$159$1$121         _sms_manager
     00000B71  C$_sms_manager.c$161$1$122         _sms_manager
     00000B71  C$_sms_manager.c$162$1$122         _sms_manager
     00000B71  G$devkit_SMS_copySpritestoSAT$0$   _sms_manager
     00000B71  XG$devkit_SMS_copySpritestoSAT$0   _sms_manager
     00000B71  _devkit_SMS_copySpritestoSAT       _sms_manager
     00000B74  A$_sms_manager$1222                _sms_manager
     00000B74  C$_sms_manager.c$163$1$122         _sms_manager
     00000B74  C$_sms_manager.c$165$1$123         _sms_manager
     00000B74  C$_sms_manager.c$166$1$123         _sms_manager
     00000B74  G$devkit_UNSAFE_SMS_copySpritest   _sms_manager
     00000B74  XG$devkit_UNSAFE_SMS_copySprites   _sms_manager
     00000B74  _devkit_UNSAFE_SMS_copySpritesto   _sms_manager
     00000B77  A$_sms_manager$1239                _sms_manager
     00000B77  C$_sms_manager.c$168$1$123         _sms_manager
     00000B77  C$_sms_manager.c$170$1$124         _sms_manager
     00000B77  C$_sms_manager.c$171$1$124         _sms_manager
     00000B77  G$devkit_SMS_queryPauseRequested   _sms_manager
     00000B77  XG$devkit_SMS_queryPauseRequeste   _sms_manager
     00000B77  _devkit_SMS_queryPauseRequested    _sms_manager
     00000B7A  A$_sms_manager$1256                _sms_manager
     00000B7A  C$_sms_manager.c$172$1$124         _sms_manager
     00000B7A  C$_sms_manager.c$174$1$125         _sms_manager
     00000B7A  C$_sms_manager.c$175$1$125         _sms_manager
     00000B7A  G$devkit_SMS_resetPauseRequest$0   _sms_manager
     00000B7A  XG$devkit_SMS_resetPauseRequest$   _sms_manager
ASxxxx Linker V03.00 + NoICE + sdld,  page 20.
Hexadecimal  [32-Bits]

Area                                    Addr        Size        Decimal Bytes (Attributes)
--------------------------------        ----        ----        ------- ----- ------------
_CODE                               00000200    000030D0 =       12496. bytes (REL,CON)

      Value  Global                              Global Defined In Module
      -----  --------------------------------   ------------------------
     00000B7A  _devkit_SMS_resetPauseRequest      _sms_manager
     00000B7D  A$_sms_manager$1269                _sms_manager
     00000B7D  C$_sms_manager.c$177$1$125         _sms_manager
     00000B7D  C$_sms_manager.c$179$1$126         _sms_manager
     00000B7D  G$devkit_isCollisionDetected$0$0   _sms_manager
     00000B7D  _devkit_isCollisionDetected        _sms_manager
     00000B80  A$_sms_manager$1270                _sms_manager
     00000B82  A$_sms_manager$1271                _sms_manager
     00000B83  A$_sms_manager$1276                _sms_manager
     00000B83  C$_sms_manager.c$180$1$126         _sms_manager
     00000B83  XG$devkit_isCollisionDetected$0$   _sms_manager
     00000B84  A$_sms_manager$1293                _sms_manager
     00000B84  C$_sms_manager.c$183$1$126         _sms_manager
     00000B84  C$_sms_manager.c$185$1$127         _sms_manager
     00000B84  C$_sms_manager.c$186$1$127         _sms_manager
     00000B84  G$devkit_SMS_getKeysStatus$0$0     _sms_manager
     00000B84  XG$devkit_SMS_getKeysStatus$0$0    _sms_manager
     00000B84  _devkit_SMS_getKeysStatus          _sms_manager
     00000B87  A$_sms_manager$1306                _sms_manager
     00000B87  C$_sms_manager.c$187$1$127         _sms_manager
     00000B87  C$_sms_manager.c$189$1$128         _sms_manager
     00000B87  G$devkit_PORT_A_KEY_UP$0$0         _sms_manager
     00000B87  _devkit_PORT_A_KEY_UP              _sms_manager
     00000B8A  A$_sms_manager$1311                _sms_manager
     00000B8A  C$_sms_manager.c$190$1$128         _sms_manager
     00000B8A  XG$devkit_PORT_A_KEY_UP$0$0        _sms_manager
     00000B8B  A$_sms_manager$1324                _sms_manager
     00000B8B  C$_sms_manager.c$191$1$128         _sms_manager
     00000B8B  C$_sms_manager.c$193$1$129         _sms_manager
     00000B8B  G$devkit_PORT_A_KEY_DOWN$0$0       _sms_manager
     00000B8B  _devkit_PORT_A_KEY_DOWN            _sms_manager
     00000B8E  A$_sms_manager$1329                _sms_manager
     00000B8E  C$_sms_manager.c$194$1$129         _sms_manager
     00000B8E  XG$devkit_PORT_A_KEY_DOWN$0$0      _sms_manager
     00000B8F  A$_sms_manager$1342                _sms_manager
     00000B8F  C$_sms_manager.c$195$1$129         _sms_manager
     00000B8F  C$_sms_manager.c$197$1$130         _sms_manager
     00000B8F  G$devkit_PORT_A_KEY_LEFT$0$0       _sms_manager
     00000B8F  _devkit_PORT_A_KEY_LEFT            _sms_manager
     00000B92  A$_sms_manager$1347                _sms_manager
     00000B92  C$_sms_manager.c$198$1$130         _sms_manager
     00000B92  XG$devkit_PORT_A_KEY_LEFT$0$0      _sms_manager
     00000B93  A$_sms_manager$1360                _sms_manager
     00000B93  C$_sms_manager.c$199$1$130         _sms_manager
     00000B93  C$_sms_manager.c$201$1$131         _sms_manager
     00000B93  G$devkit_PORT_A_KEY_RIGHT$0$0      _sms_manager
     00000B93  _devkit_PORT_A_KEY_RIGHT           _sms_manager
     00000B96  A$_sms_manager$1365                _sms_manager
     00000B96  C$_sms_manager.c$202$1$131         _sms_manager
     00000B96  XG$devkit_PORT_A_KEY_RIGHT$0$0     _sms_manager
     00000B97  A$_sms_manager$1378                _sms_manager
ASxxxx Linker V03.00 + NoICE + sdld,  page 21.
Hexadecimal  [32-Bits]

Area                                    Addr        Size        Decimal Bytes (Attributes)
--------------------------------        ----        ----        ------- ----- ------------
_CODE                               00000200    000030D0 =       12496. bytes (REL,CON)

      Value  Global                              Global Defined In Module
      -----  --------------------------------   ------------------------
     00000B97  C$_sms_manager.c$203$1$131         _sms_manager
     00000B97  C$_sms_manager.c$205$1$132         _sms_manager
     00000B97  G$devkit_PORT_A_KEY_1$0$0          _sms_manager
     00000B97  _devkit_PORT_A_KEY_1               _sms_manager
     00000B9A  A$_sms_manager$1383                _sms_manager
     00000B9A  C$_sms_manager.c$206$1$132         _sms_manager
     00000B9A  XG$devkit_PORT_A_KEY_1$0$0         _sms_manager
     00000B9B  A$_sms_manager$1396                _sms_manager
     00000B9B  C$_sms_manager.c$207$1$132         _sms_manager
     00000B9B  C$_sms_manager.c$209$1$133         _sms_manager
     00000B9B  G$devkit_PORT_A_KEY_2$0$0          _sms_manager
     00000B9B  _devkit_PORT_A_KEY_2               _sms_manager
     00000B9E  A$_sms_manager$1401                _sms_manager
     00000B9E  C$_sms_manager.c$210$1$133         _sms_manager
     00000B9E  XG$devkit_PORT_A_KEY_2$0$0         _sms_manager
     00000B9F  A$_sms_manager$1414                _sms_manager
     00000B9F  C$_sms_manager.c$213$1$133         _sms_manager
     00000B9F  C$_sms_manager.c$215$1$134         _sms_manager
     00000B9F  G$devkit_SPRITEMODE_NORMAL$0$0     _sms_manager
     00000B9F  _devkit_SPRITEMODE_NORMAL          _sms_manager
     00000BA1  A$_sms_manager$1419                _sms_manager
     00000BA1  C$_sms_manager.c$216$1$134         _sms_manager
     00000BA1  XG$devkit_SPRITEMODE_NORMAL$0$0    _sms_manager
     00000BA2  A$_sms_manager$1432                _sms_manager
     00000BA2  C$_sms_manager.c$217$1$134         _sms_manager
     00000BA2  C$_sms_manager.c$219$1$135         _sms_manager
     00000BA2  G$devkit_VDPFEATURE_HIDEFIRSTCOL   _sms_manager
     00000BA2  _devkit_VDPFEATURE_HIDEFIRSTCOL    _sms_manager
     00000BA5  A$_sms_manager$1437                _sms_manager
     00000BA5  C$_sms_manager.c$220$1$135         _sms_manager
     00000BA5  XG$devkit_VDPFEATURE_HIDEFIRSTCO   _sms_manager
     00000BA6  F_sms_manager$__str_0$0$0          _sms_manager
     00000BB4  F_sms_manager$__str_1$0$0          _sms_manager
     00000BC2  F_sms_manager$__str_2$0$0          _sms_manager
     00000BFA  A$_snd_manager$83                  _snd_manager
     00000BFA  C$_snd_manager.c$11$1$31           _snd_manager
     00000BFA  C$_snd_manager.c$9$0$0             _snd_manager
     00000BFA  G$devkit_PSGPlay$0$0               _snd_manager
     00000BFA  _devkit_PSGPlay                    _snd_manager
     00000BFB  A$_snd_manager$84                  _snd_manager
     00000BFC  A$_snd_manager$85                  _snd_manager
     00000BFD  A$_snd_manager$86                  _snd_manager
     00000BFE  A$_snd_manager$87                  _snd_manager
     00000BFF  A$_snd_manager$88                  _snd_manager
     00000C02  A$_snd_manager$89                  _snd_manager
     00000C03  A$_snd_manager$94                  _snd_manager
     00000C03  C$_snd_manager.c$12$1$31           _snd_manager
     00000C03  XG$devkit_PSGPlay$0$0              _snd_manager
     00000C04  A$_snd_manager$107                 _snd_manager
     00000C04  C$_snd_manager.c$13$1$31           _snd_manager
     00000C04  C$_snd_manager.c$15$1$33           _snd_manager
ASxxxx Linker V03.00 + NoICE + sdld,  page 22.
Hexadecimal  [32-Bits]

Area                                    Addr        Size        Decimal Bytes (Attributes)
--------------------------------        ----        ----        ------- ----- ------------
_CODE                               00000200    000030D0 =       12496. bytes (REL,CON)

      Value  Global                              Global Defined In Module
      -----  --------------------------------   ------------------------
     00000C04  G$devkit_PSGPlayNoRepeat$0$0       _snd_manager
     00000C04  _devkit_PSGPlayNoRepeat            _snd_manager
     00000C05  A$_snd_manager$108                 _snd_manager
     00000C06  A$_snd_manager$109                 _snd_manager
     00000C07  A$_snd_manager$110                 _snd_manager
     00000C08  A$_snd_manager$111                 _snd_manager
     00000C09  A$_snd_manager$112                 _snd_manager
     00000C0C  A$_snd_manager$113                 _snd_manager
     00000C0D  A$_snd_manager$118                 _snd_manager
     00000C0D  C$_snd_manager.c$16$1$33           _snd_manager
     00000C0D  XG$devkit_PSGPlayNoRepeat$0$0      _snd_manager
     00000C0E  A$_snd_manager$135                 _snd_manager
     00000C0E  C$_snd_manager.c$17$1$33           _snd_manager
     00000C0E  C$_snd_manager.c$19$1$35           _snd_manager
     00000C0E  C$_snd_manager.c$20$1$35           _snd_manager
     00000C0E  G$devkit_PSGStop$0$0               _snd_manager
     00000C0E  XG$devkit_PSGStop$0$0              _snd_manager
     00000C0E  _devkit_PSGStop                    _snd_manager
     00000C11  A$_snd_manager$152                 _snd_manager
     00000C11  C$_snd_manager.c$21$1$35           _snd_manager
     00000C11  C$_snd_manager.c$23$1$37           _snd_manager
     00000C11  C$_snd_manager.c$24$1$37           _snd_manager
     00000C11  G$devkit_PSGResume$0$0             _snd_manager
     00000C11  XG$devkit_PSGResume$0$0            _snd_manager
     00000C11  _devkit_PSGResume                  _snd_manager
     00000C14  A$_snd_manager$169                 _snd_manager
     00000C14  C$_snd_manager.c$25$1$37           _snd_manager
     00000C14  C$_snd_manager.c$27$1$39           _snd_manager
     00000C14  C$_snd_manager.c$28$1$39           _snd_manager
     00000C14  G$devkit_PSGGetStatus$0$0          _snd_manager
     00000C14  XG$devkit_PSGGetStatus$0$0         _snd_manager
     00000C14  _devkit_PSGGetStatus               _snd_manager
     00000C17  A$_snd_manager$182                 _snd_manager
     00000C17  C$_snd_manager.c$29$1$39           _snd_manager
     00000C17  C$_snd_manager.c$31$1$41           _snd_manager
     00000C17  G$devkit_PSGSetMusicVolumeAttenu   _snd_manager
     00000C17  _devkit_PSGSetMusicVolumeAttenua   _snd_manager
     00000C1A  A$_snd_manager$183                 _snd_manager
     00000C1B  A$_snd_manager$184                 _snd_manager
     00000C1C  A$_snd_manager$185                 _snd_manager
     00000C1D  A$_snd_manager$186                 _snd_manager
     00000C1E  A$_snd_manager$187                 _snd_manager
     00000C21  A$_snd_manager$188                 _snd_manager
     00000C22  A$_snd_manager$193                 _snd_manager
     00000C22  C$_snd_manager.c$32$1$41           _snd_manager
     00000C22  XG$devkit_PSGSetMusicVolumeAtten   _snd_manager
     00000C23  A$_snd_manager$206                 _snd_manager
     00000C23  C$_snd_manager.c$34$1$41           _snd_manager
     00000C23  C$_snd_manager.c$36$1$43           _snd_manager
     00000C23  G$devkit_PSGSFXPlay$0$0            _snd_manager
     00000C23  _devkit_PSGSFXPlay                 _snd_manager
ASxxxx Linker V03.00 + NoICE + sdld,  page 23.
Hexadecimal  [32-Bits]

Area                                    Addr        Size        Decimal Bytes (Attributes)
--------------------------------        ----        ----        ------- ----- ------------
_CODE                               00000200    000030D0 =       12496. bytes (REL,CON)

      Value  Global                              Global Defined In Module
      -----  --------------------------------   ------------------------
     00000C26  A$_snd_manager$207                 _snd_manager
     00000C27  A$_snd_manager$208                 _snd_manager
     00000C28  A$_snd_manager$209                 _snd_manager
     00000C29  A$_snd_manager$210                 _snd_manager
     00000C2A  A$_snd_manager$211                 _snd_manager
     00000C2D  A$_snd_manager$212                 _snd_manager
     00000C2E  A$_snd_manager$213                 _snd_manager
     00000C2F  A$_snd_manager$214                 _snd_manager
     00000C30  A$_snd_manager$215                 _snd_manager
     00000C31  A$_snd_manager$216                 _snd_manager
     00000C32  A$_snd_manager$217                 _snd_manager
     00000C35  A$_snd_manager$218                 _snd_manager
     00000C36  A$_snd_manager$219                 _snd_manager
     00000C37  A$_snd_manager$224                 _snd_manager
     00000C37  C$_snd_manager.c$37$1$43           _snd_manager
     00000C37  XG$devkit_PSGSFXPlay$0$0           _snd_manager
     00000C38  A$_snd_manager$241                 _snd_manager
     00000C38  C$_snd_manager.c$38$1$43           _snd_manager
     00000C38  C$_snd_manager.c$40$1$45           _snd_manager
     00000C38  C$_snd_manager.c$41$1$45           _snd_manager
     00000C38  G$devkit_PSGSFXStop$0$0            _snd_manager
     00000C38  XG$devkit_PSGSFXStop$0$0           _snd_manager
     00000C38  _devkit_PSGSFXStop                 _snd_manager
     00000C3B  A$_snd_manager$258                 _snd_manager
     00000C3B  C$_snd_manager.c$42$1$45           _snd_manager
     00000C3B  C$_snd_manager.c$44$1$47           _snd_manager
     00000C3B  C$_snd_manager.c$45$1$47           _snd_manager
     00000C3B  G$devkit_PSGSFXGetStatus$0$0       _snd_manager
     00000C3B  XG$devkit_PSGSFXGetStatus$0$0      _snd_manager
     00000C3B  _devkit_PSGSFXGetStatus            _snd_manager
     00000C3E  A$_snd_manager$275                 _snd_manager
     00000C3E  C$_snd_manager.c$47$1$47           _snd_manager
     00000C3E  C$_snd_manager.c$49$1$49           _snd_manager
     00000C3E  C$_snd_manager.c$50$1$49           _snd_manager
     00000C3E  G$devkit_PSGSilenceChannels$0$0    _snd_manager
     00000C3E  XG$devkit_PSGSilenceChannels$0$0   _snd_manager
     00000C3E  _devkit_PSGSilenceChannels         _snd_manager
     00000C41  A$_snd_manager$292                 _snd_manager
     00000C41  C$_snd_manager.c$51$1$49           _snd_manager
     00000C41  C$_snd_manager.c$53$1$51           _snd_manager
     00000C41  C$_snd_manager.c$54$1$51           _snd_manager
     00000C41  G$devkit_PSGRestoreVolumes$0$0     _snd_manager
     00000C41  XG$devkit_PSGRestoreVolumes$0$0    _snd_manager
     00000C41  _devkit_PSGRestoreVolumes          _snd_manager
     00000C44  A$_snd_manager$309                 _snd_manager
     00000C44  C$_snd_manager.c$56$1$51           _snd_manager
     00000C44  C$_snd_manager.c$58$1$53           _snd_manager
     00000C44  C$_snd_manager.c$59$1$53           _snd_manager
     00000C44  G$devkit_PSGFrame$0$0              _snd_manager
     00000C44  XG$devkit_PSGFrame$0$0             _snd_manager
     00000C44  _devkit_PSGFrame                   _snd_manager
ASxxxx Linker V03.00 + NoICE + sdld,  page 24.
Hexadecimal  [32-Bits]

Area                                    Addr        Size        Decimal Bytes (Attributes)
--------------------------------        ----        ----        ------- ----- ------------
_CODE                               00000200    000030D0 =       12496. bytes (REL,CON)

      Value  Global                              Global Defined In Module
      -----  --------------------------------   ------------------------
     00000C47  A$_snd_manager$326                 _snd_manager
     00000C47  C$_snd_manager.c$60$1$53           _snd_manager
     00000C47  C$_snd_manager.c$62$1$55           _snd_manager
     00000C47  C$_snd_manager.c$63$1$55           _snd_manager
     00000C47  G$devkit_PSGSFXFrame$0$0           _snd_manager
     00000C47  XG$devkit_PSGSFXFrame$0$0          _snd_manager
     00000C47  _devkit_PSGSFXFrame                _snd_manager
     00000C4A  A$_snd_manager$339                 _snd_manager
     00000C4A  C$_snd_manager.c$66$1$55           _snd_manager
     00000C4A  C$_snd_manager.c$68$1$56           _snd_manager
     00000C4A  G$devkit_SFX_CHANNEL2$0$0          _snd_manager
     00000C4A  _devkit_SFX_CHANNEL2               _snd_manager
     00000C4C  A$_snd_manager$344                 _snd_manager
     00000C4C  C$_snd_manager.c$69$1$56           _snd_manager
     00000C4C  XG$devkit_SFX_CHANNEL2$0$0         _snd_manager
     00000C4D  A$_snd_manager$357                 _snd_manager
     00000C4D  C$_snd_manager.c$70$1$56           _snd_manager
     00000C4D  C$_snd_manager.c$72$1$57           _snd_manager
     00000C4D  G$devkit_SFX_CHANNEL3$0$0          _snd_manager
     00000C4D  _devkit_SFX_CHANNEL3               _snd_manager
     00000C4F  A$_snd_manager$362                 _snd_manager
     00000C4F  C$_snd_manager.c$73$1$57           _snd_manager
     00000C4F  XG$devkit_SFX_CHANNEL3$0$0         _snd_manager
     00000C50  A$_snd_manager$375                 _snd_manager
     00000C50  C$_snd_manager.c$74$1$57           _snd_manager
     00000C50  C$_snd_manager.c$76$1$58           _snd_manager
     00000C50  G$devkit_SFX_CHANNELS2AND3$0$0     _snd_manager
     00000C50  _devkit_SFX_CHANNELS2AND3          _snd_manager
     00000C52  A$_snd_manager$380                 _snd_manager
     00000C52  C$_snd_manager.c$77$1$58           _snd_manager
     00000C52  XG$devkit_SFX_CHANNELS2AND3$0$0    _snd_manager
     00000C53  A$actor_manager$63                 actor_manager
     00000C53  C$actor_manager.c$22$0$0           actor_manager
     00000C53  C$actor_manager.c$24$1$21          actor_manager
     00000C53  G$engine_actor_manager_init$0$0    actor_manager
     00000C53  _engine_actor_manager_init         actor_manager
     00000C56  A$actor_manager$64                 actor_manager
     00000C59  A$actor_manager$68                 actor_manager
     00000C59  C$actor_manager.c$25$1$21          actor_manager
     00000C5C  A$actor_manager$69                 actor_manager
     00000C5F  A$actor_manager$73                 actor_manager
     00000C5F  C$actor_manager.c$26$1$21          actor_manager
     00000C62  A$actor_manager$74                 actor_manager
     00000C65  A$actor_manager$78                 actor_manager
     00000C65  C$actor_manager.c$27$1$21          actor_manager
     00000C68  A$actor_manager$79                 actor_manager
     00000C6B  A$actor_manager$83                 actor_manager
     00000C6B  C$actor_manager.c$28$1$21          actor_manager
     00000C6E  A$actor_manager$84                 actor_manager
     00000C71  A$actor_manager$88                 actor_manager
     00000C71  C$actor_manager.c$29$1$21          actor_manager
ASxxxx Linker V03.00 + NoICE + sdld,  page 25.
Hexadecimal  [32-Bits]

Area                                    Addr        Size        Decimal Bytes (Attributes)
--------------------------------        ----        ----        ------- ----- ------------
_CODE                               00000200    000030D0 =       12496. bytes (REL,CON)

      Value  Global                              Global Defined In Module
      -----  --------------------------------   ------------------------
     00000C74  A$actor_manager$89                 actor_manager
     00000C77  A$actor_manager$93                 actor_manager
     00000C77  C$actor_manager.c$30$1$21          actor_manager
     00000C7A  A$actor_manager$94                 actor_manager
     00000C7D  A$actor_manager$98                 actor_manager
     00000C7D  C$actor_manager.c$31$1$21          actor_manager
     00000C80  A$actor_manager$99                 actor_manager
     00000C83  A$actor_manager$103                actor_manager
     00000C83  C$actor_manager.c$32$1$21          actor_manager
     00000C86  A$actor_manager$104                actor_manager
     00000C89  A$actor_manager$108                actor_manager
     00000C89  C$actor_manager.c$33$1$21          actor_manager
     00000C8C  A$actor_manager$109                actor_manager
     00000C8F  A$actor_manager$113                actor_manager
     00000C8F  C$actor_manager.c$34$1$21          actor_manager
     00000C92  A$actor_manager$114                actor_manager
     00000C95  A$actor_manager$118                actor_manager
     00000C95  C$actor_manager.c$35$1$21          actor_manager
     00000C98  A$actor_manager$119                actor_manager
     00000C9B  A$actor_manager$123                actor_manager
     00000C9B  C$actor_manager.c$36$1$21          actor_manager
     00000C9E  A$actor_manager$124                actor_manager
     00000CA1  A$actor_manager$128                actor_manager
     00000CA1  C$actor_manager.c$37$1$21          actor_manager
     00000CA4  A$actor_manager$129                actor_manager
     00000CA7  A$actor_manager$133                actor_manager
     00000CA7  C$actor_manager.c$38$1$21          actor_manager
     00000CAA  A$actor_manager$134                actor_manager
     00000CAD  A$actor_manager$138                actor_manager
     00000CAD  C$actor_manager.c$39$1$21          actor_manager
     00000CB0  A$actor_manager$139                actor_manager
     00000CB3  A$actor_manager$144                actor_manager
     00000CB3  C$actor_manager.c$40$1$21          actor_manager
     00000CB3  XG$engine_actor_manager_init$0$0   actor_manager
     00000CB4  A$actor_manager$154                actor_manager
     00000CB4  C$actor_manager.c$42$1$21          actor_manager
     00000CB4  G$engine_actor_manager_draw$0$0    actor_manager
     00000CB4  _engine_actor_manager_draw         actor_manager
     00000CB6  A$actor_manager$155                actor_manager
     00000CBA  A$actor_manager$156                actor_manager
     00000CBC  A$actor_manager$160                actor_manager
     00000CBC  C$actor_manager.c$44$1$23          actor_manager
     00000CBF  A$actor_manager$161                actor_manager
     00000CC2  A$actor_manager$162                actor_manager
     00000CC4  A$actor_manager$163                actor_manager
     00000CC5  A$actor_manager$164                actor_manager
     00000CC6  A$actor_manager$165                actor_manager
     00000CC7  A$actor_manager$166                actor_manager
     00000CC8  A$actor_manager$167                actor_manager
     00000CC9  A$actor_manager$168                actor_manager
     00000CCA  A$actor_manager$173                actor_manager
ASxxxx Linker V03.00 + NoICE + sdld,  page 26.
Hexadecimal  [32-Bits]

Area                                    Addr        Size        Decimal Bytes (Attributes)
--------------------------------        ----        ----        ------- ----- ------------
_CODE                               00000200    000030D0 =       12496. bytes (REL,CON)

      Value  Global                              Global Defined In Module
      -----  --------------------------------   ------------------------
     00000CCA  C$actor_manager.c$45$1$23          actor_manager
     00000CCA  XG$engine_actor_manager_draw$0$0   actor_manager
     00000CCC  A$actor_manager$174                actor_manager
     00000CCF  A$actor_manager$187                actor_manager
     00000CCF  C$actor_manager.c$47$1$23          actor_manager
     00000CCF  C$actor_manager.c$49$1$25          actor_manager
     00000CCF  Factor_manager$draw_impl$0$0       actor_manager
     00000CD2  A$actor_manager$188                actor_manager
     00000CD3  A$actor_manager$189                actor_manager
     00000CD4  A$actor_manager$190                actor_manager
     00000CD5  A$actor_manager$191                actor_manager
     00000CD6  A$actor_manager$192                actor_manager
     00000CD9  A$actor_manager$193                actor_manager
     00000CDA  A$actor_manager$197                actor_manager
     00000CDA  C$actor_manager.c$50$1$25          actor_manager
     00000CDD  A$actor_manager$198                actor_manager
     00000CDE  A$actor_manager$199                actor_manager
     00000CDF  A$actor_manager$200                actor_manager
     00000CE0  A$actor_manager$201                actor_manager
     00000CE1  A$actor_manager$202                actor_manager
     00000CE4  A$actor_manager$203                actor_manager
     00000CE5  A$actor_manager$204                actor_manager
     00000CE6  A$actor_manager$205                actor_manager
     00000CE9  A$actor_manager$206                actor_manager
     00000CEA  A$actor_manager$207                actor_manager
     00000CEB  A$actor_manager$211                actor_manager
     00000CEB  C$actor_manager.c$51$1$25          actor_manager
     00000CEE  A$actor_manager$212                actor_manager
     00000CEF  A$actor_manager$213                actor_manager
     00000CF0  A$actor_manager$214                actor_manager
     00000CF1  A$actor_manager$215                actor_manager
     00000CF2  A$actor_manager$216                actor_manager
     00000CF3  A$actor_manager$217                actor_manager
     00000CF6  A$actor_manager$218                actor_manager
     00000CF7  A$actor_manager$219                actor_manager
     00000CFA  A$actor_manager$220                actor_manager
     00000CFB  A$actor_manager$221                actor_manager
     00000CFC  A$actor_manager$225                actor_manager
     00000CFC  C$actor_manager.c$52$1$25          actor_manager
     00000CFF  A$actor_manager$226                actor_manager
     00000D00  A$actor_manager$227                actor_manager
     00000D01  A$actor_manager$228                actor_manager
     00000D02  A$actor_manager$229                actor_manager
     00000D03  A$actor_manager$230                actor_manager
     00000D04  A$actor_manager$231                actor_manager
     00000D07  A$actor_manager$232                actor_manager
     00000D08  A$actor_manager$237                actor_manager
     00000D08  C$actor_manager.c$53$1$25          actor_manager
     00000D08  XFactor_manager$draw_impl$0$0      actor_manager
     00000D09  A$actor_manager$250                actor_manager
     00000D09  C$actor_manager.c$55$1$25          actor_manager
ASxxxx Linker V03.00 + NoICE + sdld,  page 27.
Hexadecimal  [32-Bits]

Area                                    Addr        Size        Decimal Bytes (Attributes)
--------------------------------        ----        ----        ------- ----- ------------
_CODE                               00000200    000030D0 =       12496. bytes (REL,CON)

      Value  Global                              Global Defined In Module
      -----  --------------------------------   ------------------------
     00000D09  C$actor_manager.c$57$1$26          actor_manager
     00000D09  Factor_manager$draw_actor00$0$0    actor_manager
     00000D0C  A$actor_manager$251                actor_manager
     00000D0D  A$actor_manager$252                actor_manager
     00000D10  A$actor_manager$253                actor_manager
     00000D11  A$actor_manager$254                actor_manager
     00000D14  A$actor_manager$255                actor_manager
     00000D15  A$actor_manager$256                actor_manager
     00000D17  A$actor_manager$257                actor_manager
     00000D18  A$actor_manager$258                actor_manager
     00000D19  A$actor_manager$259                actor_manager
     00000D1C  A$actor_manager$260                actor_manager
     00000D1F  A$actor_manager$261                actor_manager
     00000D20  A$actor_manager$262                actor_manager
     00000D21  A$actor_manager$267                actor_manager
     00000D21  C$actor_manager.c$58$1$26          actor_manager
     00000D21  XFactor_manager$draw_actor00$0$0   actor_manager
     00000D22  A$actor_manager$280                actor_manager
     00000D22  C$actor_manager.c$59$1$26          actor_manager
     00000D22  C$actor_manager.c$61$1$27          actor_manager
     00000D22  Factor_manager$draw_actor01$0$0    actor_manager
     00000D25  A$actor_manager$281                actor_manager
     00000D26  A$actor_manager$282                actor_manager
     00000D29  A$actor_manager$283                actor_manager
     00000D2A  A$actor_manager$284                actor_manager
     00000D2D  A$actor_manager$285                actor_manager
     00000D2E  A$actor_manager$286                actor_manager
     00000D30  A$actor_manager$287                actor_manager
     00000D31  A$actor_manager$288                actor_manager
     00000D32  A$actor_manager$289                actor_manager
     00000D35  A$actor_manager$290                actor_manager
     00000D38  A$actor_manager$291                actor_manager
     00000D39  A$actor_manager$292                actor_manager
     00000D3A  A$actor_manager$297                actor_manager
     00000D3A  C$actor_manager.c$62$1$27          actor_manager
     00000D3A  XFactor_manager$draw_actor01$0$0   actor_manager
     00000D3B  A$actor_manager$310                actor_manager
     00000D3B  C$actor_manager.c$63$1$27          actor_manager
     00000D3B  C$actor_manager.c$65$1$28          actor_manager
     00000D3B  Factor_manager$draw_actor02$0$0    actor_manager
     00000D3E  A$actor_manager$311                actor_manager
     00000D3F  A$actor_manager$312                actor_manager
     00000D42  A$actor_manager$313                actor_manager
     00000D43  A$actor_manager$314                actor_manager
     00000D46  A$actor_manager$315                actor_manager
     00000D47  A$actor_manager$316                actor_manager
     00000D49  A$actor_manager$317                actor_manager
     00000D4A  A$actor_manager$318                actor_manager
     00000D4B  A$actor_manager$319                actor_manager
     00000D4E  A$actor_manager$320                actor_manager
     00000D51  A$actor_manager$321                actor_manager
ASxxxx Linker V03.00 + NoICE + sdld,  page 28.
Hexadecimal  [32-Bits]

Area                                    Addr        Size        Decimal Bytes (Attributes)
--------------------------------        ----        ----        ------- ----- ------------
_CODE                               00000200    000030D0 =       12496. bytes (REL,CON)

      Value  Global                              Global Defined In Module
      -----  --------------------------------   ------------------------
     00000D52  A$actor_manager$322                actor_manager
     00000D53  A$actor_manager$327                actor_manager
     00000D53  C$actor_manager.c$66$1$28          actor_manager
     00000D53  XFactor_manager$draw_actor02$0$0   actor_manager
     00000D54  A$actor_manager$340                actor_manager
     00000D54  C$actor_manager.c$67$1$28          actor_manager
     00000D54  C$actor_manager.c$69$1$29          actor_manager
     00000D54  Factor_manager$draw_actor03$0$0    actor_manager
     00000D57  A$actor_manager$341                actor_manager
     00000D58  A$actor_manager$342                actor_manager
     00000D5B  A$actor_manager$343                actor_manager
     00000D5C  A$actor_manager$344                actor_manager
     00000D5F  A$actor_manager$345                actor_manager
     00000D60  A$actor_manager$346                actor_manager
     00000D62  A$actor_manager$347                actor_manager
     00000D63  A$actor_manager$348                actor_manager
     00000D64  A$actor_manager$349                actor_manager
     00000D67  A$actor_manager$350                actor_manager
     00000D6A  A$actor_manager$351                actor_manager
     00000D6B  A$actor_manager$352                actor_manager
     00000D6C  A$actor_manager$357                actor_manager
     00000D6C  C$actor_manager.c$70$1$29          actor_manager
     00000D6C  XFactor_manager$draw_actor03$0$0   actor_manager
     00000D6D  A$actor_manager$370                actor_manager
     00000D6D  C$actor_manager.c$71$1$29          actor_manager
     00000D6D  C$actor_manager.c$73$1$30          actor_manager
     00000D6D  Factor_manager$draw_actor04$0$0    actor_manager
     00000D70  A$actor_manager$371                actor_manager
     00000D71  A$actor_manager$372                actor_manager
     00000D74  A$actor_manager$373                actor_manager
     00000D75  A$actor_manager$374                actor_manager
     00000D78  A$actor_manager$375                actor_manager
     00000D79  A$actor_manager$376                actor_manager
     00000D7B  A$actor_manager$377                actor_manager
     00000D7C  A$actor_manager$378                actor_manager
     00000D7D  A$actor_manager$379                actor_manager
     00000D80  A$actor_manager$380                actor_manager
     00000D83  A$actor_manager$381                actor_manager
     00000D84  A$actor_manager$382                actor_manager
     00000D85  A$actor_manager$387                actor_manager
     00000D85  C$actor_manager.c$74$1$30          actor_manager
     00000D85  XFactor_manager$draw_actor04$0$0   actor_manager
     00000D86  A$actor_manager$400                actor_manager
     00000D86  C$actor_manager.c$75$1$30          actor_manager
     00000D86  C$actor_manager.c$77$1$31          actor_manager
     00000D86  Factor_manager$draw_actor05$0$0    actor_manager
     00000D89  A$actor_manager$401                actor_manager
     00000D8A  A$actor_manager$402                actor_manager
     00000D8D  A$actor_manager$403                actor_manager
     00000D8E  A$actor_manager$404                actor_manager
     00000D91  A$actor_manager$405                actor_manager
ASxxxx Linker V03.00 + NoICE + sdld,  page 29.
Hexadecimal  [32-Bits]

Area                                    Addr        Size        Decimal Bytes (Attributes)
--------------------------------        ----        ----        ------- ----- ------------
_CODE                               00000200    000030D0 =       12496. bytes (REL,CON)

      Value  Global                              Global Defined In Module
      -----  --------------------------------   ------------------------
     00000D92  A$actor_manager$406                actor_manager
     00000D94  A$actor_manager$407                actor_manager
     00000D95  A$actor_manager$408                actor_manager
     00000D96  A$actor_manager$409                actor_manager
     00000D99  A$actor_manager$410                actor_manager
     00000D9C  A$actor_manager$411                actor_manager
     00000D9D  A$actor_manager$412                actor_manager
     00000D9E  A$actor_manager$417                actor_manager
     00000D9E  C$actor_manager.c$78$1$31          actor_manager
     00000D9E  XFactor_manager$draw_actor05$0$0   actor_manager
     00000D9F  A$actor_manager$430                actor_manager
     00000D9F  C$actor_manager.c$79$1$31          actor_manager
     00000D9F  C$actor_manager.c$81$1$32          actor_manager
     00000D9F  Factor_manager$draw_actor06$0$0    actor_manager
     00000DA2  A$actor_manager$431                actor_manager
     00000DA3  A$actor_manager$432                actor_manager
     00000DA6  A$actor_manager$433                actor_manager
     00000DA7  A$actor_manager$434                actor_manager
     00000DAA  A$actor_manager$435                actor_manager
     00000DAB  A$actor_manager$436                actor_manager
     00000DAD  A$actor_manager$437                actor_manager
     00000DAE  A$actor_manager$438                actor_manager
     00000DAF  A$actor_manager$439                actor_manager
     00000DB2  A$actor_manager$440                actor_manager
     00000DB5  A$actor_manager$441                actor_manager
     00000DB6  A$actor_manager$442                actor_manager
     00000DB7  A$actor_manager$447                actor_manager
     00000DB7  C$actor_manager.c$82$1$32          actor_manager
     00000DB7  XFactor_manager$draw_actor06$0$0   actor_manager
     00000DB8  A$actor_manager$460                actor_manager
     00000DB8  C$actor_manager.c$83$1$32          actor_manager
     00000DB8  C$actor_manager.c$85$1$33          actor_manager
     00000DB8  Factor_manager$draw_actor07$0$0    actor_manager
     00000DBB  A$actor_manager$461                actor_manager
     00000DBC  A$actor_manager$462                actor_manager
     00000DBF  A$actor_manager$463                actor_manager
     00000DC0  A$actor_manager$464                actor_manager
     00000DC3  A$actor_manager$465                actor_manager
     00000DC4  A$actor_manager$466                actor_manager
     00000DC6  A$actor_manager$467                actor_manager
     00000DC7  A$actor_manager$468                actor_manager
     00000DC8  A$actor_manager$469                actor_manager
     00000DCB  A$actor_manager$470                actor_manager
     00000DCE  A$actor_manager$471                actor_manager
     00000DCF  A$actor_manager$472                actor_manager
     00000DD0  A$actor_manager$477                actor_manager
     00000DD0  C$actor_manager.c$86$1$33          actor_manager
     00000DD0  XFactor_manager$draw_actor07$0$0   actor_manager
     00000DD1  A$actor_manager$490                actor_manager
     00000DD1  C$actor_manager.c$88$1$33          actor_manager
     00000DD1  C$actor_manager.c$90$1$34          actor_manager
ASxxxx Linker V03.00 + NoICE + sdld,  page 30.
Hexadecimal  [32-Bits]

Area                                    Addr        Size        Decimal Bytes (Attributes)
--------------------------------        ----        ----        ------- ----- ------------
_CODE                               00000200    000030D0 =       12496. bytes (REL,CON)

      Value  Global                              Global Defined In Module
      -----  --------------------------------   ------------------------
     00000DD1  Factor_manager$draw_actor08$0$0    actor_manager
     00000DD4  A$actor_manager$491                actor_manager
     00000DD5  A$actor_manager$492                actor_manager
     00000DD8  A$actor_manager$493                actor_manager
     00000DD9  A$actor_manager$494                actor_manager
     00000DDC  A$actor_manager$495                actor_manager
     00000DDD  A$actor_manager$496                actor_manager
     00000DDF  A$actor_manager$497                actor_manager
     00000DE0  A$actor_manager$498                actor_manager
     00000DE1  A$actor_manager$499                actor_manager
     00000DE4  A$actor_manager$500                actor_manager
     00000DE7  A$actor_manager$501                actor_manager
     00000DE8  A$actor_manager$502                actor_manager
     00000DE9  A$actor_manager$507                actor_manager
     00000DE9  C$actor_manager.c$91$1$34          actor_manager
     00000DE9  XFactor_manager$draw_actor08$0$0   actor_manager
     00000DEA  A$actor_manager$520                actor_manager
     00000DEA  C$actor_manager.c$92$1$34          actor_manager
     00000DEA  C$actor_manager.c$94$1$35          actor_manager
     00000DEA  Factor_manager$draw_actor09$0$0    actor_manager
     00000DED  A$actor_manager$521                actor_manager
     00000DEE  A$actor_manager$522                actor_manager
     00000DF1  A$actor_manager$523                actor_manager
     00000DF2  A$actor_manager$524                actor_manager
     00000DF5  A$actor_manager$525                actor_manager
     00000DF6  A$actor_manager$526                actor_manager
     00000DF8  A$actor_manager$527                actor_manager
     00000DF9  A$actor_manager$528                actor_manager
     00000DFA  A$actor_manager$529                actor_manager
     00000DFD  A$actor_manager$530                actor_manager
     00000E00  A$actor_manager$531                actor_manager
     00000E01  A$actor_manager$532                actor_manager
     00000E02  A$actor_manager$537                actor_manager
     00000E02  C$actor_manager.c$95$1$35          actor_manager
     00000E02  XFactor_manager$draw_actor09$0$0   actor_manager
     00000E03  A$actor_manager$550                actor_manager
     00000E03  C$actor_manager.c$96$1$35          actor_manager
     00000E03  C$actor_manager.c$98$1$36          actor_manager
     00000E03  Factor_manager$draw_actor10$0$0    actor_manager
     00000E06  A$actor_manager$551                actor_manager
     00000E07  A$actor_manager$552                actor_manager
     00000E0A  A$actor_manager$553                actor_manager
     00000E0B  A$actor_manager$554                actor_manager
     00000E0E  A$actor_manager$555                actor_manager
     00000E0F  A$actor_manager$556                actor_manager
     00000E11  A$actor_manager$557                actor_manager
     00000E12  A$actor_manager$558                actor_manager
     00000E13  A$actor_manager$559                actor_manager
     00000E16  A$actor_manager$560                actor_manager
     00000E19  A$actor_manager$561                actor_manager
     00000E1A  A$actor_manager$562                actor_manager
ASxxxx Linker V03.00 + NoICE + sdld,  page 31.
Hexadecimal  [32-Bits]

Area                                    Addr        Size        Decimal Bytes (Attributes)
--------------------------------        ----        ----        ------- ----- ------------
_CODE                               00000200    000030D0 =       12496. bytes (REL,CON)

      Value  Global                              Global Defined In Module
      -----  --------------------------------   ------------------------
     00000E1B  A$actor_manager$567                actor_manager
     00000E1B  C$actor_manager.c$99$1$36          actor_manager
     00000E1B  XFactor_manager$draw_actor10$0$0   actor_manager
     00000E1C  A$actor_manager$580                actor_manager
     00000E1C  C$actor_manager.c$100$1$36         actor_manager
     00000E1C  C$actor_manager.c$102$1$37         actor_manager
     00000E1C  Factor_manager$draw_actor11$0$0    actor_manager
     00000E1F  A$actor_manager$581                actor_manager
     00000E20  A$actor_manager$582                actor_manager
     00000E23  A$actor_manager$583                actor_manager
     00000E24  A$actor_manager$584                actor_manager
     00000E27  A$actor_manager$585                actor_manager
     00000E28  A$actor_manager$586                actor_manager
     00000E2A  A$actor_manager$587                actor_manager
     00000E2B  A$actor_manager$588                actor_manager
     00000E2C  A$actor_manager$589                actor_manager
     00000E2F  A$actor_manager$590                actor_manager
     00000E32  A$actor_manager$591                actor_manager
     00000E33  A$actor_manager$592                actor_manager
     00000E34  A$actor_manager$597                actor_manager
     00000E34  C$actor_manager.c$103$1$37         actor_manager
     00000E34  XFactor_manager$draw_actor11$0$0   actor_manager
     00000E35  A$actor_manager$610                actor_manager
     00000E35  C$actor_manager.c$104$1$37         actor_manager
     00000E35  C$actor_manager.c$106$1$38         actor_manager
     00000E35  Factor_manager$draw_actor12$0$0    actor_manager
     00000E38  A$actor_manager$611                actor_manager
     00000E39  A$actor_manager$612                actor_manager
     00000E3C  A$actor_manager$613                actor_manager
     00000E3D  A$actor_manager$614                actor_manager
     00000E40  A$actor_manager$615                actor_manager
     00000E41  A$actor_manager$616                actor_manager
     00000E43  A$actor_manager$617                actor_manager
     00000E44  A$actor_manager$618                actor_manager
     00000E45  A$actor_manager$619                actor_manager
     00000E48  A$actor_manager$620                actor_manager
     00000E4B  A$actor_manager$621                actor_manager
     00000E4C  A$actor_manager$622                actor_manager
     00000E4D  A$actor_manager$627                actor_manager
     00000E4D  C$actor_manager.c$107$1$38         actor_manager
     00000E4D  XFactor_manager$draw_actor12$0$0   actor_manager
     00000E4E  A$actor_manager$640                actor_manager
     00000E4E  C$actor_manager.c$108$1$38         actor_manager
     00000E4E  C$actor_manager.c$110$1$39         actor_manager
     00000E4E  Factor_manager$draw_actor13$0$0    actor_manager
     00000E51  A$actor_manager$641                actor_manager
     00000E52  A$actor_manager$642                actor_manager
     00000E55  A$actor_manager$643                actor_manager
     00000E56  A$actor_manager$644                actor_manager
     00000E59  A$actor_manager$645                actor_manager
     00000E5A  A$actor_manager$646                actor_manager
ASxxxx Linker V03.00 + NoICE + sdld,  page 32.
Hexadecimal  [32-Bits]

Area                                    Addr        Size        Decimal Bytes (Attributes)
--------------------------------        ----        ----        ------- ----- ------------
_CODE                               00000200    000030D0 =       12496. bytes (REL,CON)

      Value  Global                              Global Defined In Module
      -----  --------------------------------   ------------------------
     00000E5C  A$actor_manager$647                actor_manager
     00000E5D  A$actor_manager$648                actor_manager
     00000E5E  A$actor_manager$649                actor_manager
     00000E61  A$actor_manager$650                actor_manager
     00000E64  A$actor_manager$651                actor_manager
     00000E65  A$actor_manager$652                actor_manager
     00000E66  A$actor_manager$657                actor_manager
     00000E66  C$actor_manager.c$111$1$39         actor_manager
     00000E66  XFactor_manager$draw_actor13$0$0   actor_manager
     00000E67  A$actor_manager$670                actor_manager
     00000E67  C$actor_manager.c$112$1$39         actor_manager
     00000E67  C$actor_manager.c$114$1$40         actor_manager
     00000E67  Factor_manager$draw_actor14$0$0    actor_manager
     00000E6A  A$actor_manager$671                actor_manager
     00000E6B  A$actor_manager$672                actor_manager
     00000E6E  A$actor_manager$673                actor_manager
     00000E6F  A$actor_manager$674                actor_manager
     00000E72  A$actor_manager$675                actor_manager
     00000E73  A$actor_manager$676                actor_manager
     00000E75  A$actor_manager$677                actor_manager
     00000E76  A$actor_manager$678                actor_manager
     00000E77  A$actor_manager$679                actor_manager
     00000E7A  A$actor_manager$680                actor_manager
     00000E7D  A$actor_manager$681                actor_manager
     00000E7E  A$actor_manager$682                actor_manager
     00000E7F  A$actor_manager$687                actor_manager
     00000E7F  C$actor_manager.c$115$1$40         actor_manager
     00000E7F  XFactor_manager$draw_actor14$0$0   actor_manager
     00000E80  A$actor_manager$700                actor_manager
     00000E80  C$actor_manager.c$116$1$40         actor_manager
     00000E80  C$actor_manager.c$118$1$41         actor_manager
     00000E80  Factor_manager$draw_actor15$0$0    actor_manager
     00000E83  A$actor_manager$701                actor_manager
     00000E84  A$actor_manager$702                actor_manager
     00000E87  A$actor_manager$703                actor_manager
     00000E88  A$actor_manager$704                actor_manager
     00000E8B  A$actor_manager$705                actor_manager
     00000E8C  A$actor_manager$706                actor_manager
     00000E8E  A$actor_manager$707                actor_manager
     00000E8F  A$actor_manager$708                actor_manager
     00000E90  A$actor_manager$709                actor_manager
     00000E93  A$actor_manager$710                actor_manager
     00000E96  A$actor_manager$711                actor_manager
     00000E97  A$actor_manager$712                actor_manager
     00000E98  A$actor_manager$717                actor_manager
     00000E98  C$actor_manager.c$119$1$41         actor_manager
     00000E98  XFactor_manager$draw_actor15$0$0   actor_manager
     00000E99  A$asm_manager$59                   asm_manager
     00000E99  C$asm_manager.c$11$0$0             asm_manager
     00000E99  C$asm_manager.c$30$1$1             asm_manager
     00000E99  G$engine_asm_manager_clear_VRAM$   asm_manager
ASxxxx Linker V03.00 + NoICE + sdld,  page 33.
Hexadecimal  [32-Bits]

Area                                    Addr        Size        Decimal Bytes (Attributes)
--------------------------------        ----        ----        ------- ----- ------------
_CODE                               00000200    000030D0 =       12496. bytes (REL,CON)

      Value  Global                              Global Defined In Module
      -----  --------------------------------   ------------------------
     00000E99  _engine_asm_manager_clear_VRAM     asm_manager
     00000E9B  A$asm_manager$60                   asm_manager
     00000E9D  A$asm_manager$61                   asm_manager
     00000E9F  A$asm_manager$62                   asm_manager
     00000EA1  A$asm_manager$63                   asm_manager
     00000EA4  A$asm_manager$65                   asm_manager
     00000EA6  A$asm_manager$66                   asm_manager
     00000EA8  A$asm_manager$67                   asm_manager
     00000EA9  A$asm_manager$68                   asm_manager
     00000EAA  A$asm_manager$69                   asm_manager
     00000EAB  A$asm_manager$70                   asm_manager
     00000EAE  A$asm_manager$75                   asm_manager
     00000EAE  C$asm_manager.c$33$1$1             asm_manager
     00000EAE  XG$engine_asm_manager_clear_VRAM   asm_manager
     00000EAF  A$audio_manager$82                 audio_manager
     00000EAF  C$audio_manager.c$31$0$0           audio_manager
     00000EAF  C$audio_manager.c$33$1$39          audio_manager
     00000EAF  G$engine_audio_manager_init$0$0    audio_manager
     00000EAF  _engine_audio_manager_init         audio_manager
     00000EB2  A$audio_manager$83                 audio_manager
     00000EB4  A$audio_manager$84                 audio_manager
     00000EB7  A$audio_manager$85                 audio_manager
     00000EB9  A$audio_manager$89                 audio_manager
     00000EB9  C$audio_manager.c$34$1$39          audio_manager
     00000EBC  A$audio_manager$90                 audio_manager
     00000EBE  A$audio_manager$94                 audio_manager
     00000EBE  C$audio_manager.c$35$1$39          audio_manager
     00000EC1  A$audio_manager$95                 audio_manager
     00000EC3  A$audio_manager$99                 audio_manager
     00000EC3  C$audio_manager.c$36$1$39          audio_manager
     00000EC6  A$audio_manager$100                audio_manager
     00000EC7  A$audio_manager$101                audio_manager
     00000EC9  A$audio_manager$102                audio_manager
     00000ECA  A$audio_manager$103                audio_manager
     00000ECD  A$audio_manager$104                audio_manager
     00000ECE  A$audio_manager$105                audio_manager
     00000ECF  A$audio_manager$110                audio_manager
     00000ECF  C$audio_manager.c$37$1$39          audio_manager
     00000ECF  XG$engine_audio_manager_init$0$0   audio_manager
     00000ED0  A$audio_manager$123                audio_manager
     00000ED0  C$audio_manager.c$39$1$39          audio_manager
     00000ED0  C$audio_manager.c$41$1$40          audio_manager
     00000ED0  G$engine_audio_manager_start_mus   audio_manager
     00000ED0  _engine_audio_manager_start_musi   audio_manager
     00000ED2  A$audio_manager$124                audio_manager
     00000ED3  A$audio_manager$125                audio_manager
     00000ED4  A$audio_manager$126                audio_manager
     00000ED7  A$audio_manager$127                audio_manager
     00000ED8  A$audio_manager$128                audio_manager
     00000EDB  A$audio_manager$129                audio_manager
     00000EDC  A$audio_manager$130                audio_manager
ASxxxx Linker V03.00 + NoICE + sdld,  page 34.
Hexadecimal  [32-Bits]

Area                                    Addr        Size        Decimal Bytes (Attributes)
--------------------------------        ----        ----        ------- ----- ------------
_CODE                               00000200    000030D0 =       12496. bytes (REL,CON)

      Value  Global                              Global Defined In Module
      -----  --------------------------------   ------------------------
     00000EDD  A$audio_manager$135                audio_manager
     00000EDD  C$audio_manager.c$42$1$40          audio_manager
     00000EDD  XG$engine_audio_manager_start_mu   audio_manager
     00000EDE  A$audio_manager$148                audio_manager
     00000EDE  C$audio_manager.c$44$1$40          audio_manager
     00000EDE  C$audio_manager.c$46$1$41          audio_manager
     00000EDE  G$engine_audio_manager_finish_mu   audio_manager
     00000EDE  _engine_audio_manager_finish_mus   audio_manager
     00000EE0  A$audio_manager$149                audio_manager
     00000EE1  A$audio_manager$150                audio_manager
     00000EE2  A$audio_manager$151                audio_manager
     00000EE5  A$audio_manager$152                audio_manager
     00000EE6  A$audio_manager$153                audio_manager
     00000EE9  A$audio_manager$154                audio_manager
     00000EEA  A$audio_manager$155                audio_manager
     00000EEB  A$audio_manager$160                audio_manager
     00000EEB  C$audio_manager.c$47$1$41          audio_manager
     00000EEB  XG$engine_audio_manager_finish_m   audio_manager
     00000EEC  A$audio_manager$177                audio_manager
     00000EEC  C$audio_manager.c$49$1$41          audio_manager
     00000EEC  C$audio_manager.c$51$1$42          audio_manager
     00000EEC  C$audio_manager.c$52$1$42          audio_manager
     00000EEC  G$engine_audio_manager_stop_musi   audio_manager
     00000EEC  XG$engine_audio_manager_stop_mus   audio_manager
     00000EEC  _engine_audio_manager_stop_music   audio_manager
     00000EEF  A$audio_manager$190                audio_manager
     00000EEF  C$audio_manager.c$55$1$42          audio_manager
     00000EEF  C$audio_manager.c$57$1$43          audio_manager
     00000EEF  G$engine_audio_manager_sound_rig   audio_manager
     00000EEF  _engine_audio_manager_sound_righ   audio_manager
     00000EF2  A$audio_manager$191                audio_manager
     00000EF3  A$audio_manager$192                audio_manager
     00000EF6  A$audio_manager$193                audio_manager
     00000EF7  A$audio_manager$198                audio_manager
     00000EF7  C$audio_manager.c$58$1$43          audio_manager
     00000EF7  XG$engine_audio_manager_sound_ri   audio_manager
     00000EF8  A$audio_manager$211                audio_manager
     00000EF8  C$audio_manager.c$59$1$43          audio_manager
     00000EF8  C$audio_manager.c$61$1$44          audio_manager
     00000EF8  G$engine_audio_manager_sound_wro   audio_manager
     00000EF8  _engine_audio_manager_sound_wron   audio_manager
     00000EFB  A$audio_manager$212                audio_manager
     00000EFC  A$audio_manager$213                audio_manager
     00000EFF  A$audio_manager$214                audio_manager
     00000F00  A$audio_manager$219                audio_manager
     00000F00  C$audio_manager.c$62$1$44          audio_manager
     00000F00  XG$engine_audio_manager_sound_wr   audio_manager
     00000F01  A$audio_manager$232                audio_manager
     00000F01  C$audio_manager.c$63$1$44          audio_manager
     00000F01  C$audio_manager.c$65$1$45          audio_manager
     00000F01  G$engine_audio_manager_sound_che   audio_manager
ASxxxx Linker V03.00 + NoICE + sdld,  page 35.
Hexadecimal  [32-Bits]

Area                                    Addr        Size        Decimal Bytes (Attributes)
--------------------------------        ----        ----        ------- ----- ------------
_CODE                               00000200    000030D0 =       12496. bytes (REL,CON)

      Value  Global                              Global Defined In Module
      -----  --------------------------------   ------------------------
     00000F01  _engine_audio_manager_sound_chea   audio_manager
     00000F04  A$audio_manager$233                audio_manager
     00000F05  A$audio_manager$234                audio_manager
     00000F08  A$audio_manager$235                audio_manager
     00000F09  A$audio_manager$240                audio_manager
     00000F09  C$audio_manager.c$66$1$45          audio_manager
     00000F09  XG$engine_audio_manager_sound_ch   audio_manager
     00000F0A  A$audio_manager$253                audio_manager
     00000F0A  C$audio_manager.c$67$1$45          audio_manager
     00000F0A  C$audio_manager.c$69$1$46          audio_manager
     00000F0A  G$engine_audio_manager_sound_woo   audio_manager
     00000F0A  _engine_audio_manager_sound_wooh   audio_manager
     00000F0D  A$audio_manager$254                audio_manager
     00000F0E  A$audio_manager$255                audio_manager
     00000F0F  A$audio_manager$256                audio_manager
     00000F12  A$audio_manager$257                audio_manager
     00000F13  A$audio_manager$262                audio_manager
     00000F13  C$audio_manager.c$70$1$46          audio_manager
     00000F13  XG$engine_audio_manager_sound_wo   audio_manager
     00000F14  A$audio_manager$275                audio_manager
     00000F14  C$audio_manager.c$71$1$46          audio_manager
     00000F14  C$audio_manager.c$73$1$46          audio_manager
     00000F14  G$engine_audio_manager_sound_doh   audio_manager
     00000F14  _engine_audio_manager_sound_doh    audio_manager
     00000F17  A$audio_manager$276                audio_manager
     00000F18  A$audio_manager$280                audio_manager
     00000F18  C$audio_manager.c$74$1$47          audio_manager
     00000F19  A$audio_manager$281                audio_manager
     00000F1B  A$audio_manager$282                audio_manager
     00000F1C  A$audio_manager$283                audio_manager
     00000F1F  A$audio_manager$284                audio_manager
     00000F20  A$audio_manager$285                audio_manager
     00000F21  A$audio_manager$286                audio_manager
     00000F24  A$audio_manager$287                audio_manager
     00000F25  A$audio_manager$288                audio_manager
     00000F26  A$audio_manager$289                audio_manager
     00000F27  A$audio_manager$290                audio_manager
     00000F2A  A$audio_manager$291                audio_manager
     00000F2B  A$audio_manager$296                audio_manager
     00000F2B  C$audio_manager.c$77$1$47          audio_manager
     00000F2B  XG$engine_audio_manager_sound_do   audio_manager
     00000F2C  A$audio_manager$309                audio_manager
     00000F2C  C$audio_manager.c$79$1$47          audio_manager
     00000F2C  C$audio_manager.c$81$1$49          audio_manager
     00000F2C  Faudio_manager$play_music$0$0      audio_manager
     00000F2F  A$audio_manager$310                audio_manager
     00000F30  A$audio_manager$314                audio_manager
     00000F30  C$audio_manager.c$83$2$50          audio_manager
     00000F31  A$audio_manager$318                audio_manager
     00000F31  C$audio_manager.c$86$1$49          audio_manager
     00000F34  A$audio_manager$319                audio_manager
ASxxxx Linker V03.00 + NoICE + sdld,  page 36.
Hexadecimal  [32-Bits]

Area                                    Addr        Size        Decimal Bytes (Attributes)
--------------------------------        ----        ----        ------- ----- ------------
_CODE                               00000200    000030D0 =       12496. bytes (REL,CON)

      Value  Global                              Global Defined In Module
      -----  --------------------------------   ------------------------
     00000F35  A$audio_manager$320                audio_manager
     00000F36  A$audio_manager$321                audio_manager
     00000F37  A$audio_manager$322                audio_manager
     00000F38  A$audio_manager$323                audio_manager
     00000F3B  A$audio_manager$324                audio_manager
     00000F3C  A$audio_manager$328                audio_manager
     00000F3C  C$audio_manager.c$87$1$49          audio_manager
     00000F3D  A$audio_manager$329                audio_manager
     00000F3E  A$audio_manager$330                audio_manager
     00000F3F  A$audio_manager$331                audio_manager
     00000F40  A$audio_manager$332                audio_manager
     00000F41  A$audio_manager$333                audio_manager
     00000F44  A$audio_manager$334                audio_manager
     00000F45  A$audio_manager$339                audio_manager
     00000F45  C$audio_manager.c$88$1$49          audio_manager
     00000F45  XFaudio_manager$play_music$0$0     audio_manager
     00000F46  A$audio_manager$352                audio_manager
     00000F46  C$audio_manager.c$90$1$49          audio_manager
     00000F46  C$audio_manager.c$92$1$52          audio_manager
     00000F46  Faudio_manager$play_sound$0$0      audio_manager
     00000F49  A$audio_manager$353                audio_manager
     00000F4A  A$audio_manager$357                audio_manager
     00000F4A  C$audio_manager.c$94$2$53          audio_manager
     00000F4B  A$audio_manager$361                audio_manager
     00000F4B  C$audio_manager.c$97$1$52          audio_manager
     00000F4E  A$audio_manager$362                audio_manager
     00000F4F  A$audio_manager$363                audio_manager
     00000F50  A$audio_manager$364                audio_manager
     00000F51  A$audio_manager$365                audio_manager
     00000F52  A$audio_manager$366                audio_manager
     00000F53  A$audio_manager$367                audio_manager
     00000F54  A$audio_manager$368                audio_manager
     00000F55  A$audio_manager$369                audio_manager
     00000F56  A$audio_manager$370                audio_manager
     00000F59  A$audio_manager$371                audio_manager
     00000F5A  A$audio_manager$372                audio_manager
     00000F5B  A$audio_manager$377                audio_manager
     00000F5B  C$audio_manager.c$98$1$52          audio_manager
     00000F5B  XFaudio_manager$play_sound$0$0     audio_manager
     00000F5C  A$content_manager$65               content_manager
     00000F5C  C$content_manager.c$12$0$0         content_manager
     00000F5C  C$content_manager.c$15$1$19        content_manager
     00000F5C  G$engine_content_manager_load_fo   content_manager
     00000F5C  _engine_content_manager_load_fon   content_manager
     00000F5F  A$content_manager$66               content_manager
     00000F60  A$content_manager$67               content_manager
     00000F63  A$content_manager$68               content_manager
     00000F64  A$content_manager$69               content_manager
     00000F67  A$content_manager$70               content_manager
     00000F68  A$content_manager$71               content_manager
     00000F69  A$content_manager$75               content_manager
ASxxxx Linker V03.00 + NoICE + sdld,  page 37.
Hexadecimal  [32-Bits]

Area                                    Addr        Size        Decimal Bytes (Attributes)
--------------------------------        ----        ----        ------- ----- ------------
_CODE                               00000200    000030D0 =       12496. bytes (REL,CON)

      Value  Global                              Global Defined In Module
      -----  --------------------------------   ------------------------
     00000F69  C$content_manager.c$16$1$19        content_manager
     00000F6C  A$content_manager$76               content_manager
     00000F6D  A$content_manager$77               content_manager
     00000F70  A$content_manager$78               content_manager
     00000F71  A$content_manager$83               content_manager
     00000F71  C$content_manager.c$17$1$19        content_manager
     00000F71  XG$engine_content_manager_load_f   content_manager
     00000F72  A$content_manager$96               content_manager
     00000F72  C$content_manager.c$19$1$19        content_manager
     00000F72  C$content_manager.c$22$1$20        content_manager
     00000F72  G$engine_content_manager_load_sp   content_manager
     00000F72  _engine_content_manager_load_spr   content_manager
     00000F75  A$content_manager$97               content_manager
     00000F76  A$content_manager$98               content_manager
     00000F79  A$content_manager$99               content_manager
     00000F7A  A$content_manager$100              content_manager
     00000F7D  A$content_manager$101              content_manager
     00000F7E  A$content_manager$105              content_manager
     00000F7E  C$content_manager.c$23$1$20        content_manager
     00000F81  A$content_manager$106              content_manager
     00000F82  A$content_manager$107              content_manager
     00000F85  A$content_manager$108              content_manager
     00000F86  A$content_manager$109              content_manager
     00000F89  A$content_manager$110              content_manager
     00000F8A  A$content_manager$114              content_manager
     00000F8A  C$content_manager.c$24$1$20        content_manager
     00000F8D  A$content_manager$115              content_manager
     00000F8E  A$content_manager$116              content_manager
     00000F91  A$content_manager$117              content_manager
     00000F92  A$content_manager$118              content_manager
     00000F95  A$content_manager$119              content_manager
     00000F96  A$content_manager$120              content_manager
     00000F97  A$content_manager$124              content_manager
     00000F97  C$content_manager.c$25$1$20        content_manager
     00000F9A  A$content_manager$125              content_manager
     00000F9B  A$content_manager$126              content_manager
     00000F9E  A$content_manager$127              content_manager
     00000F9F  A$content_manager$132              content_manager
     00000F9F  C$content_manager.c$26$1$20        content_manager
     00000F9F  XG$engine_content_manager_load_s   content_manager
     00000FA0  A$content_manager$145              content_manager
     00000FA0  C$content_manager.c$28$1$20        content_manager
     00000FA0  C$content_manager.c$30$1$21        content_manager
     00000FA0  G$engine_content_manager_load_sp   content_manager
     00000FA0  _engine_content_manager_load_spr   content_manager
     00000FA3  A$content_manager$146              content_manager
     00000FA4  A$content_manager$147              content_manager
     00000FA6  A$content_manager$148              content_manager
     00000FA7  A$content_manager$149              content_manager
     00000FAA  A$content_manager$150              content_manager
     00000FAB  A$content_manager$151              content_manager
ASxxxx Linker V03.00 + NoICE + sdld,  page 38.
Hexadecimal  [32-Bits]

Area                                    Addr        Size        Decimal Bytes (Attributes)
--------------------------------        ----        ----        ------- ----- ------------
_CODE                               00000200    000030D0 =       12496. bytes (REL,CON)

      Value  Global                              Global Defined In Module
      -----  --------------------------------   ------------------------
     00000FAC  A$content_manager$156              content_manager
     00000FAC  C$content_manager.c$31$1$21        content_manager
     00000FAC  XG$engine_content_manager_load_s   content_manager
     00000FAD  A$content_manager$169              content_manager
     00000FAD  C$content_manager.c$33$1$21        content_manager
     00000FAD  C$content_manager.c$35$1$22        content_manager
     00000FAD  G$engine_content_manager_splash$   content_manager
     00000FAD  _engine_content_manager_splash     content_manager
     00000FAF  A$content_manager$170              content_manager
     00000FB0  A$content_manager$171              content_manager
     00000FB1  A$content_manager$172              content_manager
     00000FB4  A$content_manager$173              content_manager
     00000FB5  A$content_manager$177              content_manager
     00000FB5  C$content_manager.c$36$1$22        content_manager
     00000FB8  A$content_manager$178              content_manager
     00000FB9  A$content_manager$179              content_manager
     00000FBC  A$content_manager$180              content_manager
     00000FBD  A$content_manager$181              content_manager
     00000FC0  A$content_manager$182              content_manager
     00000FC1  A$content_manager$183              content_manager
     00000FC2  A$content_manager$187              content_manager
     00000FC2  C$content_manager.c$37$1$22        content_manager
     00000FC5  A$content_manager$188              content_manager
     00000FC6  A$content_manager$189              content_manager
     00000FC9  A$content_manager$190              content_manager
     00000FCA  A$content_manager$191              content_manager
     00000FCD  A$content_manager$192              content_manager
     00000FCE  A$content_manager$193              content_manager
     00000FCF  A$content_manager$197              content_manager
     00000FCF  C$content_manager.c$38$1$22        content_manager
     00000FD2  A$content_manager$198              content_manager
     00000FD3  A$content_manager$199              content_manager
     00000FD6  A$content_manager$200              content_manager
     00000FD7  A$content_manager$205              content_manager
     00000FD7  C$content_manager.c$39$1$22        content_manager
     00000FD7  XG$engine_content_manager_splash   content_manager
     00000FD8  A$content_manager$218              content_manager
     00000FD8  C$content_manager.c$41$1$22        content_manager
     00000FD8  C$content_manager.c$43$1$23        content_manager
     00000FD8  G$engine_content_manager_title$0   content_manager
     00000FD8  _engine_content_manager_title      content_manager
     00000FDA  A$content_manager$219              content_manager
     00000FDB  A$content_manager$220              content_manager
     00000FDC  A$content_manager$221              content_manager
     00000FDF  A$content_manager$222              content_manager
     00000FE0  A$content_manager$226              content_manager
     00000FE0  C$content_manager.c$44$1$23        content_manager
     00000FE3  A$content_manager$227              content_manager
     00000FE4  A$content_manager$228              content_manager
     00000FE7  A$content_manager$229              content_manager
     00000FE8  A$content_manager$230              content_manager
ASxxxx Linker V03.00 + NoICE + sdld,  page 39.
Hexadecimal  [32-Bits]

Area                                    Addr        Size        Decimal Bytes (Attributes)
--------------------------------        ----        ----        ------- ----- ------------
_CODE                               00000200    000030D0 =       12496. bytes (REL,CON)

      Value  Global                              Global Defined In Module
      -----  --------------------------------   ------------------------
     00000FEB  A$content_manager$231              content_manager
     00000FEC  A$content_manager$232              content_manager
     00000FED  A$content_manager$236              content_manager
     00000FED  C$content_manager.c$45$1$23        content_manager
     00000FF0  A$content_manager$237              content_manager
     00000FF1  A$content_manager$238              content_manager
     00000FF4  A$content_manager$239              content_manager
     00000FF5  A$content_manager$240              content_manager
     00000FF8  A$content_manager$241              content_manager
     00000FF9  A$content_manager$242              content_manager
     00000FFA  A$content_manager$246              content_manager
     00000FFA  C$content_manager.c$46$1$23        content_manager
     00000FFD  A$content_manager$247              content_manager
     00000FFE  A$content_manager$248              content_manager
     00001001  A$content_manager$249              content_manager
     00001002  A$content_manager$254              content_manager
     00001002  C$content_manager.c$47$1$23        content_manager
     00001002  XG$engine_content_manager_title$   content_manager
     00001003  A$debug_manager$55                 debug_manager
     00001003  C$debug_manager.c$4$0$0            debug_manager
     00001003  C$debug_manager.c$6$1$7            debug_manager
     00001003  G$engine_debug_manager_init$0$0    debug_manager
     00001003  _engine_debug_manager_init         debug_manager
     00001006  A$debug_manager$56                 debug_manager
     00001008  A$debug_manager$61                 debug_manager
     00001008  C$debug_manager.c$7$1$7            debug_manager
     00001008  XG$engine_debug_manager_init$0$0   debug_manager
     00001009  A$font_manager$63                  font_manager
     00001009  C$font_manager.c$10$0$0            font_manager
     00001009  C$font_manager.c$12$1$0            font_manager
     00001009  C$font_manager.c$13$1$24           font_manager
     00001009  G$engine_font_manager_char$0$0     font_manager
     00001009  _engine_font_manager_char          font_manager
     0000100C  A$font_manager$64                  font_manager
     0000100D  A$font_manager$65                  font_manager
     0000100E  A$font_manager$66                  font_manager
     00001010  A$font_manager$67                  font_manager
     00001011  A$font_manager$71                  font_manager
     00001011  C$font_manager.c$14$1$24           font_manager
     00001012  A$font_manager$72                  font_manager
     00001015  A$font_manager$73                  font_manager
     00001016  A$font_manager$74                  font_manager
     00001017  A$font_manager$75                  font_manager
     00001018  A$font_manager$76                  font_manager
     00001019  A$font_manager$77                  font_manager
     0000101C  A$font_manager$78                  font_manager
     0000101D  A$font_manager$79                  font_manager
     0000101E  A$font_manager$80                  font_manager
     0000101F  A$font_manager$81                  font_manager
     00001020  A$font_manager$82                  font_manager
     00001023  A$font_manager$83                  font_manager
ASxxxx Linker V03.00 + NoICE + sdld,  page 40.
Hexadecimal  [32-Bits]

Area                                    Addr        Size        Decimal Bytes (Attributes)
--------------------------------        ----        ----        ------- ----- ------------
_CODE                               00000200    000030D0 =       12496. bytes (REL,CON)

      Value  Global                              Global Defined In Module
      -----  --------------------------------   ------------------------
     00001024  A$font_manager$84                  font_manager
     00001025  A$font_manager$88                  font_manager
     00001025  C$font_manager.c$15$1$24           font_manager
     00001028  A$font_manager$89                  font_manager
     00001029  A$font_manager$90                  font_manager
     0000102A  A$font_manager$91                  font_manager
     0000102B  A$font_manager$92                  font_manager
     0000102E  A$font_manager$93                  font_manager
     0000102F  A$font_manager$98                  font_manager
     0000102F  C$font_manager.c$16$1$24           font_manager
     0000102F  XG$engine_font_manager_char$0$0    font_manager
     00001030  A$font_manager$108                 font_manager
     00001030  C$font_manager.c$18$1$24           font_manager
     00001030  G$engine_font_manager_text$0$0     font_manager
     00001030  _engine_font_manager_text          font_manager
     00001032  A$font_manager$109                 font_manager
     00001036  A$font_manager$110                 font_manager
     00001038  A$font_manager$117                 font_manager
     00001038  C$font_manager.c$20$1$24           font_manager
     00001038  C$font_manager.c$23$1$26           font_manager
     0000103B  A$font_manager$118                 font_manager
     0000103D  A$font_manager$120                 font_manager
     00001040  A$font_manager$121                 font_manager
     00001041  A$font_manager$122                 font_manager
     00001042  A$font_manager$123                 font_manager
     00001045  A$font_manager$124                 font_manager
     00001047  A$font_manager$125                 font_manager
     00001048  A$font_manager$126                 font_manager
     00001049  A$font_manager$127                 font_manager
     0000104A  A$font_manager$128                 font_manager
     0000104C  A$font_manager$132                 font_manager
     0000104C  C$font_manager.c$25$2$27           font_manager
     0000104E  A$font_manager$133                 font_manager
     0000104F  A$font_manager$137                 font_manager
     0000104F  C$font_manager.c$26$2$27           font_manager
     00001050  A$font_manager$138                 font_manager
     00001051  A$font_manager$139                 font_manager
     00001054  A$font_manager$140                 font_manager
     00001055  A$font_manager$141                 font_manager
     00001056  A$font_manager$142                 font_manager
     00001059  A$font_manager$143                 font_manager
     0000105A  A$font_manager$144                 font_manager
     0000105B  A$font_manager$145                 font_manager
     0000105C  A$font_manager$146                 font_manager
     0000105D  A$font_manager$147                 font_manager
     00001060  A$font_manager$148                 font_manager
     00001061  A$font_manager$149                 font_manager
     00001062  A$font_manager$150                 font_manager
     00001063  A$font_manager$154                 font_manager
     00001063  C$font_manager.c$27$2$27           font_manager
     00001066  A$font_manager$155                 font_manager
ASxxxx Linker V03.00 + NoICE + sdld,  page 41.
Hexadecimal  [32-Bits]

Area                                    Addr        Size        Decimal Bytes (Attributes)
--------------------------------        ----        ----        ------- ----- ------------
_CODE                               00000200    000030D0 =       12496. bytes (REL,CON)

      Value  Global                              Global Defined In Module
      -----  --------------------------------   ------------------------
     00001067  A$font_manager$156                 font_manager
     00001068  A$font_manager$157                 font_manager
     00001069  A$font_manager$158                 font_manager
     0000106A  A$font_manager$159                 font_manager
     0000106D  A$font_manager$160                 font_manager
     0000106E  A$font_manager$161                 font_manager
     0000106F  A$font_manager$165                 font_manager
     0000106F  C$font_manager.c$28$2$27           font_manager
     00001070  A$font_manager$166                 font_manager
     00001072  A$font_manager$168                 font_manager
     00001074  A$font_manager$173                 font_manager
     00001074  C$font_manager.c$30$1$26           font_manager
     00001074  XG$engine_font_manager_text$0$0    font_manager
     00001075  A$font_manager$183                 font_manager
     00001075  C$font_manager.c$32$1$26           font_manager
     00001075  G$engine_font_manager_data$0$0     font_manager
     00001075  _engine_font_manager_data          font_manager
     00001077  A$font_manager$184                 font_manager
     0000107B  A$font_manager$185                 font_manager
     0000107D  A$font_manager$186                 font_manager
     0000107E  A$font_manager$193                 font_manager
     0000107E  C$font_manager.c$34$1$26           font_manager
     00001081  A$font_manager$194                 font_manager
     00001084  A$font_manager$195                 font_manager
     00001088  A$font_manager$200                 font_manager
     00001088  C$font_manager.c$44$2$30           font_manager
     0000108B  A$font_manager$201                 font_manager
     0000108C  A$font_manager$202                 font_manager
     0000108F  A$font_manager$203                 font_manager
     00001092  A$font_manager$204                 font_manager
     00001093  A$font_manager$205                 font_manager
     00001096  A$font_manager$206                 font_manager
     00001097  A$font_manager$207                 font_manager
     00001098  A$font_manager$208                 font_manager
     00001099  A$font_manager$209                 font_manager
     0000109A  A$font_manager$213                 font_manager
     0000109A  C$font_manager.c$45$2$30           font_manager
     0000109B  A$font_manager$214                 font_manager
     0000109C  A$font_manager$215                 font_manager
     0000109F  A$font_manager$216                 font_manager
     000010A0  A$font_manager$217                 font_manager
     000010A3  A$font_manager$218                 font_manager
     000010A6  A$font_manager$219                 font_manager
     000010A7  A$font_manager$220                 font_manager
     000010AA  A$font_manager$221                 font_manager
     000010AB  A$font_manager$222                 font_manager
     000010AC  A$font_manager$223                 font_manager
     000010AD  A$font_manager$224                 font_manager
     000010AE  A$font_manager$225                 font_manager
     000010AF  A$font_manager$229                 font_manager
     000010AF  C$font_manager.c$46$3$31           font_manager
ASxxxx Linker V03.00 + NoICE + sdld,  page 42.
Hexadecimal  [32-Bits]

Area                                    Addr        Size        Decimal Bytes (Attributes)
--------------------------------        ----        ----        ------- ----- ------------
_CODE                               00000200    000030D0 =       12496. bytes (REL,CON)

      Value  Global                              Global Defined In Module
      -----  --------------------------------   ------------------------
     000010B2  A$font_manager$230                 font_manager
     000010B5  A$font_manager$234                 font_manager
     000010B5  C$font_manager.c$48$3$31           font_manager
     000010B6  A$font_manager$235                 font_manager
     000010B8  A$font_manager$236                 font_manager
     000010B9  A$font_manager$240                 font_manager
     000010B9  C$font_manager.c$49$3$31           font_manager
     000010BA  A$font_manager$241                 font_manager
     000010BB  A$font_manager$242                 font_manager
     000010BD  A$font_manager$243                 font_manager
     000010BE  A$font_manager$244                 font_manager
     000010C0  A$font_manager$245                 font_manager
     000010C3  A$font_manager$246                 font_manager
     000010C4  A$font_manager$247                 font_manager
     000010C6  A$font_manager$251                 font_manager
     000010C6  C$font_manager.c$52$4$32           font_manager
     000010C8  A$font_manager$256                 font_manager
     000010C8  C$font_manager.c$55$3$31           font_manager
     000010CB  A$font_manager$257                 font_manager
     000010CE  A$font_manager$258                 font_manager
     000010D1  A$font_manager$259                 font_manager
     000010D4  A$font_manager$260                 font_manager
     000010D5  A$font_manager$261                 font_manager
     000010D8  A$font_manager$262                 font_manager
     000010D9  A$font_manager$263                 font_manager
     000010DA  A$font_manager$264                 font_manager
     000010DB  A$font_manager$265                 font_manager
     000010DC  A$font_manager$266                 font_manager
     000010DF  A$font_manager$267                 font_manager
     000010E0  A$font_manager$268                 font_manager
     000010E1  A$font_manager$272                 font_manager
     000010E1  C$font_manager.c$56$3$31           font_manager
     000010E4  A$font_manager$273                 font_manager
     000010E5  A$font_manager$274                 font_manager
     000010E6  A$font_manager$275                 font_manager
     000010E7  A$font_manager$276                 font_manager
     000010EA  A$font_manager$277                 font_manager
     000010EB  A$font_manager$281                 font_manager
     000010EB  C$font_manager.c$42$2$30           font_manager
     000010EE  A$font_manager$282                 font_manager
     000010F1  A$font_manager$283                 font_manager
     000010F3  A$font_manager$284                 font_manager
     000010F5  A$font_manager$285                 font_manager
     000010F7  A$font_manager$286                 font_manager
     000010F9  A$font_manager$291                 font_manager
     000010F9  C$font_manager.c$58$2$30           font_manager
     000010F9  XG$engine_font_manager_data$0$0    font_manager
     000010FA  A$font_manager$301                 font_manager
     000010FA  C$font_manager.c$60$2$30           font_manager
     000010FA  G$engine_font_manager_data_ZERO$   font_manager
     000010FA  _engine_font_manager_data_ZERO     font_manager
ASxxxx Linker V03.00 + NoICE + sdld,  page 43.
Hexadecimal  [32-Bits]

Area                                    Addr        Size        Decimal Bytes (Attributes)
--------------------------------        ----        ----        ------- ----- ------------
_CODE                               00000200    000030D0 =       12496. bytes (REL,CON)

      Value  Global                              Global Defined In Module
      -----  --------------------------------   ------------------------
     000010FC  A$font_manager$302                 font_manager
     00001100  A$font_manager$303                 font_manager
     00001102  A$font_manager$304                 font_manager
     00001103  A$font_manager$305                 font_manager
     00001104  A$font_manager$306                 font_manager
     00001105  A$font_manager$313                 font_manager
     00001105  C$font_manager.c$62$1$30           font_manager
     00001105  C$font_manager.c$68$3$36           font_manager
     00001108  A$font_manager$314                 font_manager
     00001109  A$font_manager$315                 font_manager
     0000110C  A$font_manager$316                 font_manager
     0000110F  A$font_manager$317                 font_manager
     00001112  A$font_manager$318                 font_manager
     00001114  A$font_manager$323                 font_manager
     00001114  C$font_manager.c$70$3$36           font_manager
     00001115  A$font_manager$324                 font_manager
     00001118  A$font_manager$325                 font_manager
     00001119  A$font_manager$326                 font_manager
     0000111B  A$font_manager$327                 font_manager
     0000111E  A$font_manager$328                 font_manager
     0000111F  A$font_manager$329                 font_manager
     00001120  A$font_manager$330                 font_manager
     00001121  A$font_manager$331                 font_manager
     00001124  A$font_manager$332                 font_manager
     00001125  A$font_manager$333                 font_manager
     00001128  A$font_manager$334                 font_manager
     0000112B  A$font_manager$335                 font_manager
     0000112C  A$font_manager$336                 font_manager
     0000112F  A$font_manager$337                 font_manager
     00001130  A$font_manager$338                 font_manager
     00001131  A$font_manager$339                 font_manager
     00001132  A$font_manager$340                 font_manager
     00001133  A$font_manager$341                 font_manager
     00001134  A$font_manager$342                 font_manager
     00001135  A$font_manager$346                 font_manager
     00001135  C$font_manager.c$71$2$35           font_manager
     00001136  A$font_manager$347                 font_manager
     00001137  A$font_manager$348                 font_manager
     0000113A  A$font_manager$349                 font_manager
     0000113B  A$font_manager$350                 font_manager
     0000113E  A$font_manager$351                 font_manager
     00001141  A$font_manager$352                 font_manager
     00001142  A$font_manager$353                 font_manager
     00001145  A$font_manager$354                 font_manager
     00001146  A$font_manager$355                 font_manager
     00001147  A$font_manager$356                 font_manager
     00001148  A$font_manager$357                 font_manager
     00001149  A$font_manager$358                 font_manager
     0000114C  A$font_manager$359                 font_manager
     0000114F  A$font_manager$363                 font_manager
     0000114F  C$font_manager.c$73$3$36           font_manager
ASxxxx Linker V03.00 + NoICE + sdld,  page 44.
Hexadecimal  [32-Bits]

Area                                    Addr        Size        Decimal Bytes (Attributes)
--------------------------------        ----        ----        ------- ----- ------------
_CODE                               00000200    000030D0 =       12496. bytes (REL,CON)

      Value  Global                              Global Defined In Module
      -----  --------------------------------   ------------------------
     00001150  A$font_manager$364                 font_manager
     00001152  A$font_manager$365                 font_manager
     00001153  A$font_manager$369                 font_manager
     00001153  C$font_manager.c$75$3$36           font_manager
     00001154  A$font_manager$370                 font_manager
     00001155  A$font_manager$371                 font_manager
     00001158  A$font_manager$372                 font_manager
     00001159  A$font_manager$373                 font_manager
     0000115A  A$font_manager$374                 font_manager
     0000115D  A$font_manager$375                 font_manager
     0000115E  A$font_manager$376                 font_manager
     0000115F  A$font_manager$377                 font_manager
     00001160  A$font_manager$378                 font_manager
     00001161  A$font_manager$379                 font_manager
     00001164  A$font_manager$380                 font_manager
     00001165  A$font_manager$381                 font_manager
     00001166  A$font_manager$382                 font_manager
     00001167  A$font_manager$386                 font_manager
     00001167  C$font_manager.c$76$3$36           font_manager
     0000116A  A$font_manager$387                 font_manager
     0000116B  A$font_manager$388                 font_manager
     0000116C  A$font_manager$389                 font_manager
     0000116D  A$font_manager$390                 font_manager
     0000116E  A$font_manager$391                 font_manager
     0000116F  A$font_manager$392                 font_manager
     00001172  A$font_manager$393                 font_manager
     00001173  A$font_manager$394                 font_manager
     00001174  A$font_manager$398                 font_manager
     00001174  C$font_manager.c$68$2$35           font_manager
     00001175  A$font_manager$399                 font_manager
     00001176  A$font_manager$400                 font_manager
     00001178  A$font_manager$401                 font_manager
     0000117A  A$font_manager$402                 font_manager
     0000117C  A$font_manager$403                 font_manager
     0000117E  A$font_manager$408                 font_manager
     0000117E  C$font_manager.c$78$2$35           font_manager
     0000117E  XG$engine_font_manager_data_ZERO   font_manager
     0000117F  A$hack_manager$80                  hack_manager
     0000117F  C$hack_manager.c$19$0$0            hack_manager
     0000117F  C$hack_manager.c$30$1$1            hack_manager
     0000117F  G$engine_hack_manager_init$0$0     hack_manager
     0000117F  _engine_hack_manager_init          hack_manager
     00001182  A$hack_manager$81                  hack_manager
     00001185  A$hack_manager$85                  hack_manager
     00001185  C$hack_manager.c$32$1$1            hack_manager
     00001188  A$hack_manager$86                  hack_manager
     0000118B  A$hack_manager$90                  hack_manager
     0000118B  C$hack_manager.c$33$1$1            hack_manager
     0000118E  A$hack_manager$91                  hack_manager
     00001191  A$hack_manager$95                  hack_manager
     00001191  C$hack_manager.c$34$1$1            hack_manager
ASxxxx Linker V03.00 + NoICE + sdld,  page 45.
Hexadecimal  [32-Bits]

Area                                    Addr        Size        Decimal Bytes (Attributes)
--------------------------------        ----        ----        ------- ----- ------------
_CODE                               00000200    000030D0 =       12496. bytes (REL,CON)

      Value  Global                              Global Defined In Module
      -----  --------------------------------   ------------------------
     00001194  A$hack_manager$96                  hack_manager
     00001197  A$hack_manager$100                 hack_manager
     00001197  C$hack_manager.c$35$1$1            hack_manager
     0000119A  A$hack_manager$101                 hack_manager
     0000119D  A$hack_manager$105                 hack_manager
     0000119D  C$hack_manager.c$36$1$1            hack_manager
     000011A0  A$hack_manager$106                 hack_manager
     000011A3  A$hack_manager$111                 hack_manager
     000011A3  C$hack_manager.c$39$1$1            hack_manager
     000011A3  XG$engine_hack_manager_init$0$0    hack_manager
     000011A4  A$hack_manager$124                 hack_manager
     000011A4  C$hack_manager.c$41$1$1            hack_manager
     000011A4  C$hack_manager.c$44$1$2            hack_manager
     000011A4  G$engine_hack_manager_invert$0$0   hack_manager
     000011A4  _engine_hack_manager_invert        hack_manager
     000011A8  A$hack_manager$125                 hack_manager
     000011AB  A$hack_manager$126                 hack_manager
     000011AD  A$hack_manager$127                 hack_manager
     000011AF  A$hack_manager$128                 hack_manager
     000011B0  A$hack_manager$129                 hack_manager
     000011B3  A$hack_manager$133                 hack_manager
     000011B3  C$hack_manager.c$45$1$2            hack_manager
     000011B7  A$hack_manager$134                 hack_manager
     000011BA  A$hack_manager$135                 hack_manager
     000011BC  A$hack_manager$136                 hack_manager
     000011BE  A$hack_manager$137                 hack_manager
     000011BF  A$hack_manager$138                 hack_manager
     000011C2  A$hack_manager$142                 hack_manager
     000011C2  C$hack_manager.c$48$1$2            hack_manager
     000011C5  A$hack_manager$143                 hack_manager
     000011C7  A$hack_manager$147                 hack_manager
     000011C7  C$hack_manager.c$50$1$2            hack_manager
     000011CA  A$hack_manager$148                 hack_manager
     000011CC  A$hack_manager$153                 hack_manager
     000011CC  C$hack_manager.c$51$1$2            hack_manager
     000011CC  XG$engine_hack_manager_invert$0$   hack_manager
     000011CD  A$input_manager$80                 input_manager
     000011CD  C$input_manager.c$13$0$0           input_manager
     000011CD  C$input_manager.c$15$1$21          input_manager
     000011CD  G$engine_input_manager_update$0$   input_manager
     000011CD  _engine_input_manager_update       input_manager
     000011D0  A$input_manager$81                 input_manager
     000011D3  A$input_manager$85                 input_manager
     000011D3  C$input_manager.c$16$1$21          input_manager
     000011D6  A$input_manager$86                 input_manager
     000011D9  A$input_manager$91                 input_manager
     000011D9  C$input_manager.c$17$1$21          input_manager
     000011D9  XG$engine_input_manager_update$0   input_manager
     000011DA  A$input_manager$104                input_manager
     000011DA  C$input_manager.c$20$1$21          input_manager
     000011DA  C$input_manager.c$22$1$22          input_manager
ASxxxx Linker V03.00 + NoICE + sdld,  page 46.
Hexadecimal  [32-Bits]

Area                                    Addr        Size        Decimal Bytes (Attributes)
--------------------------------        ----        ----        ------- ----- ------------
_CODE                               00000200    000030D0 =       12496. bytes (REL,CON)

      Value  Global                              Global Defined In Module
      -----  --------------------------------   ------------------------
     000011DA  G$engine_input_manager_hold_up$0   input_manager
     000011DA  _engine_input_manager_hold_up      input_manager
     000011DD  A$input_manager$105                input_manager
     000011DE  A$input_manager$106                input_manager
     000011E1  A$input_manager$107                input_manager
     000011E2  A$input_manager$112                input_manager
     000011E2  C$input_manager.c$23$1$22          input_manager
     000011E2  XG$engine_input_manager_hold_up$   input_manager
     000011E3  A$input_manager$125                input_manager
     000011E3  C$input_manager.c$24$1$22          input_manager
     000011E3  C$input_manager.c$26$1$23          input_manager
     000011E3  G$engine_input_manager_hold_down   input_manager
     000011E3  _engine_input_manager_hold_down    input_manager
     000011E6  A$input_manager$126                input_manager
     000011E7  A$input_manager$127                input_manager
     000011EA  A$input_manager$128                input_manager
     000011EB  A$input_manager$133                input_manager
     000011EB  C$input_manager.c$27$1$23          input_manager
     000011EB  XG$engine_input_manager_hold_dow   input_manager
     000011EC  A$input_manager$146                input_manager
     000011EC  C$input_manager.c$28$1$23          input_manager
     000011EC  C$input_manager.c$30$1$24          input_manager
     000011EC  G$engine_input_manager_hold_left   input_manager
     000011EC  _engine_input_manager_hold_left    input_manager
     000011EF  A$input_manager$147                input_manager
     000011F0  A$input_manager$148                input_manager
     000011F3  A$input_manager$149                input_manager
     000011F4  A$input_manager$154                input_manager
     000011F4  C$input_manager.c$31$1$24          input_manager
     000011F4  XG$engine_input_manager_hold_lef   input_manager
     000011F5  A$input_manager$167                input_manager
     000011F5  C$input_manager.c$32$1$24          input_manager
     000011F5  C$input_manager.c$34$1$25          input_manager
     000011F5  G$engine_input_manager_hold_righ   input_manager
     000011F5  _engine_input_manager_hold_right   input_manager
     000011F8  A$input_manager$168                input_manager
     000011F9  A$input_manager$169                input_manager
     000011FC  A$input_manager$170                input_manager
     000011FD  A$input_manager$175                input_manager
     000011FD  C$input_manager.c$35$1$25          input_manager
     000011FD  XG$engine_input_manager_hold_rig   input_manager
     000011FE  A$input_manager$188                input_manager
     000011FE  C$input_manager.c$36$1$25          input_manager
     000011FE  C$input_manager.c$38$1$26          input_manager
     000011FE  G$engine_input_manager_hold_fire   input_manager
     000011FE  _engine_input_manager_hold_fire1   input_manager
     00001201  A$input_manager$189                input_manager
     00001202  A$input_manager$190                input_manager
     00001205  A$input_manager$191                input_manager
     00001206  A$input_manager$196                input_manager
     00001206  C$input_manager.c$39$1$26          input_manager
ASxxxx Linker V03.00 + NoICE + sdld,  page 47.
Hexadecimal  [32-Bits]

Area                                    Addr        Size        Decimal Bytes (Attributes)
--------------------------------        ----        ----        ------- ----- ------------
_CODE                               00000200    000030D0 =       12496. bytes (REL,CON)

      Value  Global                              Global Defined In Module
      -----  --------------------------------   ------------------------
     00001206  XG$engine_input_manager_hold_fir   input_manager
     00001207  A$input_manager$209                input_manager
     00001207  C$input_manager.c$40$1$26          input_manager
     00001207  C$input_manager.c$42$1$27          input_manager
     00001207  G$engine_input_manager_hold_fire   input_manager
     00001207  _engine_input_manager_hold_fire2   input_manager
     0000120A  A$input_manager$210                input_manager
     0000120B  A$input_manager$211                input_manager
     0000120E  A$input_manager$212                input_manager
     0000120F  A$input_manager$217                input_manager
     0000120F  C$input_manager.c$43$1$27          input_manager
     0000120F  XG$engine_input_manager_hold_fir   input_manager
     00001210  A$input_manager$230                input_manager
     00001210  C$input_manager.c$46$1$27          input_manager
     00001210  C$input_manager.c$48$1$28          input_manager
     00001210  G$engine_input_manager_move_up$0   input_manager
     00001210  _engine_input_manager_move_up      input_manager
     00001213  A$input_manager$231                input_manager
     00001214  A$input_manager$232                input_manager
     00001217  A$input_manager$233                input_manager
     00001218  A$input_manager$238                input_manager
     00001218  C$input_manager.c$49$1$28          input_manager
     00001218  XG$engine_input_manager_move_up$   input_manager
     00001219  A$input_manager$251                input_manager
     00001219  C$input_manager.c$50$1$28          input_manager
     00001219  C$input_manager.c$52$1$29          input_manager
     00001219  G$engine_input_manager_move_down   input_manager
     00001219  _engine_input_manager_move_down    input_manager
     0000121C  A$input_manager$252                input_manager
     0000121D  A$input_manager$253                input_manager
     00001220  A$input_manager$254                input_manager
     00001221  A$input_manager$259                input_manager
     00001221  C$input_manager.c$53$1$29          input_manager
     00001221  XG$engine_input_manager_move_dow   input_manager
     00001222  A$input_manager$272                input_manager
     00001222  C$input_manager.c$54$1$29          input_manager
     00001222  C$input_manager.c$56$1$30          input_manager
     00001222  G$engine_input_manager_move_left   input_manager
     00001222  _engine_input_manager_move_left    input_manager
     00001225  A$input_manager$273                input_manager
     00001226  A$input_manager$274                input_manager
     00001229  A$input_manager$275                input_manager
     0000122A  A$input_manager$280                input_manager
     0000122A  C$input_manager.c$57$1$30          input_manager
     0000122A  XG$engine_input_manager_move_lef   input_manager
     0000122B  A$input_manager$293                input_manager
     0000122B  C$input_manager.c$58$1$30          input_manager
     0000122B  C$input_manager.c$60$1$31          input_manager
     0000122B  G$engine_input_manager_move_righ   input_manager
     0000122B  _engine_input_manager_move_right   input_manager
     0000122E  A$input_manager$294                input_manager
ASxxxx Linker V03.00 + NoICE + sdld,  page 48.
Hexadecimal  [32-Bits]

Area                                    Addr        Size        Decimal Bytes (Attributes)
--------------------------------        ----        ----        ------- ----- ------------
_CODE                               00000200    000030D0 =       12496. bytes (REL,CON)

      Value  Global                              Global Defined In Module
      -----  --------------------------------   ------------------------
     0000122F  A$input_manager$295                input_manager
     00001232  A$input_manager$296                input_manager
     00001233  A$input_manager$301                input_manager
     00001233  C$input_manager.c$61$1$31          input_manager
     00001233  XG$engine_input_manager_move_rig   input_manager
     00001234  A$input_manager$314                input_manager
     00001234  C$input_manager.c$62$1$31          input_manager
     00001234  C$input_manager.c$64$1$32          input_manager
     00001234  G$engine_input_manager_move_fire   input_manager
     00001234  _engine_input_manager_move_fire1   input_manager
     00001237  A$input_manager$315                input_manager
     00001238  A$input_manager$316                input_manager
     0000123B  A$input_manager$317                input_manager
     0000123C  A$input_manager$322                input_manager
     0000123C  C$input_manager.c$65$1$32          input_manager
     0000123C  XG$engine_input_manager_move_fir   input_manager
     0000123D  A$input_manager$335                input_manager
     0000123D  C$input_manager.c$66$1$32          input_manager
     0000123D  C$input_manager.c$68$1$33          input_manager
     0000123D  G$engine_input_manager_move_fire   input_manager
     0000123D  _engine_input_manager_move_fire2   input_manager
     00001240  A$input_manager$336                input_manager
     00001241  A$input_manager$337                input_manager
     00001244  A$input_manager$338                input_manager
     00001245  A$input_manager$343                input_manager
     00001245  C$input_manager.c$69$1$33          input_manager
     00001245  XG$engine_input_manager_move_fir   input_manager
     00001246  A$input_manager$356                input_manager
     00001246  C$input_manager.c$72$1$33          input_manager
     00001246  C$input_manager.c$74$1$35          input_manager
     00001246  Finput_manager$engine_input_mana   input_manager
     00001249  A$input_manager$357                input_manager
     0000124D  A$input_manager$358                input_manager
     0000124F  A$input_manager$359                input_manager
     00001252  A$input_manager$360                input_manager
     00001253  A$input_manager$361                input_manager
     00001256  A$input_manager$362                input_manager
     0000125A  A$input_manager$363                input_manager
     0000125C  A$input_manager$364                input_manager
     0000125F  A$input_manager$365                input_manager
     00001260  A$input_manager$366                input_manager
     00001262  A$input_manager$367                input_manager
     00001265  A$input_manager$368                input_manager
     00001269  A$input_manager$369                input_manager
     0000126B  A$input_manager$370                input_manager
     0000126E  A$input_manager$371                input_manager
     0000126F  A$input_manager$372                input_manager
     00001272  A$input_manager$373                input_manager
     00001276  A$input_manager$374                input_manager
     00001278  A$input_manager$375                input_manager
     0000127B  A$input_manager$376                input_manager
ASxxxx Linker V03.00 + NoICE + sdld,  page 49.
Hexadecimal  [32-Bits]

Area                                    Addr        Size        Decimal Bytes (Attributes)
--------------------------------        ----        ----        ------- ----- ------------
_CODE                               00000200    000030D0 =       12496. bytes (REL,CON)

      Value  Global                              Global Defined In Module
      -----  --------------------------------   ------------------------
     0000127C  A$input_manager$377                input_manager
     0000127E  A$input_manager$379                input_manager
     00001280  A$input_manager$380                input_manager
     00001281  A$input_manager$382                input_manager
     00001283  A$input_manager$387                input_manager
     00001283  C$input_manager.c$75$1$35          input_manager
     00001283  XFinput_manager$engine_input_man   input_manager
     00001284  A$input_manager$400                input_manager
     00001284  C$input_manager.c$76$1$35          input_manager
     00001284  C$input_manager.c$78$1$37          input_manager
     00001284  Finput_manager$engine_input_mana   input_manager
     00001287  A$input_manager$401                input_manager
     00001288  A$input_manager$402                input_manager
     0000128B  A$input_manager$403                input_manager
     0000128C  A$input_manager$404                input_manager
     0000128D  A$input_manager$405                input_manager
     0000128E  A$input_manager$406                input_manager
     0000128F  A$input_manager$411                input_manager
     0000128F  C$input_manager.c$79$1$37          input_manager
     0000128F  XFinput_manager$engine_input_man   input_manager
     00001290  A$quiz_manager$118                 quiz_manager
     00001290  C$quiz_manager.c$27$0$0            quiz_manager
     00001290  C$quiz_manager.c$29$1$32           quiz_manager
     00001290  G$engine_quiz_manager_init$0$0     quiz_manager
     00001290  _engine_quiz_manager_init          quiz_manager
     00001293  A$quiz_manager$119                 quiz_manager
     00001295  A$quiz_manager$123                 quiz_manager
     00001295  C$quiz_manager.c$30$1$32           quiz_manager
     00001298  A$quiz_manager$124                 quiz_manager
     0000129A  A$quiz_manager$128                 quiz_manager
     0000129A  C$quiz_manager.c$31$1$32           quiz_manager
     0000129D  A$quiz_manager$129                 quiz_manager
     0000129F  A$quiz_manager$133                 quiz_manager
     0000129F  C$quiz_manager.c$32$1$32           quiz_manager
     000012A2  A$quiz_manager$134                 quiz_manager
     000012A4  A$quiz_manager$139                 quiz_manager
     000012A4  C$quiz_manager.c$33$1$32           quiz_manager
     000012A4  XG$engine_quiz_manager_init$0$0    quiz_manager
     000012A5  A$quiz_manager$152                 quiz_manager
     000012A5  C$quiz_manager.c$35$1$32           quiz_manager
     000012A5  C$quiz_manager.c$37$1$33           quiz_manager
     000012A5  G$engine_quiz_manager_base$0$0     quiz_manager
     000012A5  _engine_quiz_manager_base          quiz_manager
     000012A8  A$quiz_manager$153                 quiz_manager
     000012A9  A$quiz_manager$154                 quiz_manager
     000012AC  A$quiz_manager$155                 quiz_manager
     000012AD  A$quiz_manager$156                 quiz_manager
     000012B0  A$quiz_manager$157                 quiz_manager
     000012B1  A$quiz_manager$158                 quiz_manager
     000012B2  A$quiz_manager$162                 quiz_manager
     000012B2  C$quiz_manager.c$38$1$33           quiz_manager
ASxxxx Linker V03.00 + NoICE + sdld,  page 50.
Hexadecimal  [32-Bits]

Area                                    Addr        Size        Decimal Bytes (Attributes)
--------------------------------        ----        ----        ------- ----- ------------
_CODE                               00000200    000030D0 =       12496. bytes (REL,CON)

      Value  Global                              Global Defined In Module
      -----  --------------------------------   ------------------------
     000012B5  A$quiz_manager$163                 quiz_manager
     000012B6  A$quiz_manager$164                 quiz_manager
     000012B7  A$quiz_manager$168                 quiz_manager
     000012B7  C$quiz_manager.c$41$2$34           quiz_manager
     000012BA  A$quiz_manager$169                 quiz_manager
     000012BB  A$quiz_manager$170                 quiz_manager
     000012BE  A$quiz_manager$171                 quiz_manager
     000012BF  A$quiz_manager$172                 quiz_manager
     000012C2  A$quiz_manager$173                 quiz_manager
     000012C3  A$quiz_manager$174                 quiz_manager
     000012C4  A$quiz_manager$178                 quiz_manager
     000012C4  C$quiz_manager.c$42$2$34           quiz_manager
     000012C7  A$quiz_manager$179                 quiz_manager
     000012C8  A$quiz_manager$180                 quiz_manager
     000012CA  A$quiz_manager$181                 quiz_manager
     000012CD  A$quiz_manager$182                 quiz_manager
     000012CE  A$quiz_manager$183                 quiz_manager
     000012CF  A$quiz_manager$184                 quiz_manager
     000012D2  A$quiz_manager$185                 quiz_manager
     000012D3  A$quiz_manager$186                 quiz_manager
     000012D4  A$quiz_manager$191                 quiz_manager
     000012D4  C$quiz_manager.c$44$1$33           quiz_manager
     000012D4  XG$engine_quiz_manager_base$0$0    quiz_manager
     000012D5  Fquiz_manager$__str_0$0$0          quiz_manager
     000012E0  Fquiz_manager$__str_1$0$0          quiz_manager
     000012E2  A$quiz_manager$212                 quiz_manager
     000012E2  C$quiz_manager.c$46$1$33           quiz_manager
     000012E2  C$quiz_manager.c$48$1$35           quiz_manager
     000012E2  G$engine_quiz_manager_base2$0$0    quiz_manager
     000012E2  _engine_quiz_manager_base2         quiz_manager
     000012E5  A$quiz_manager$213                 quiz_manager
     000012E6  A$quiz_manager$214                 quiz_manager
     000012E9  A$quiz_manager$215                 quiz_manager
     000012EA  A$quiz_manager$220                 quiz_manager
     000012EA  C$quiz_manager.c$49$1$35           quiz_manager
     000012EA  XG$engine_quiz_manager_base2$0$0   quiz_manager
     000012EB  A$quiz_manager$233                 quiz_manager
     000012EB  C$quiz_manager.c$51$1$35           quiz_manager
     000012EB  C$quiz_manager.c$53$1$37           quiz_manager
     000012EB  G$engine_quiz_manager_base3$0$0    quiz_manager
     000012EB  _engine_quiz_manager_base3         quiz_manager
     000012EE  A$quiz_manager$234                 quiz_manager
     000012EF  A$quiz_manager$235                 quiz_manager
     000012F0  A$quiz_manager$236                 quiz_manager
     000012F2  A$quiz_manager$237                 quiz_manager
     000012F3  A$quiz_manager$238                 quiz_manager
     000012F6  A$quiz_manager$239                 quiz_manager
     000012F7  A$quiz_manager$244                 quiz_manager
     000012F7  C$quiz_manager.c$54$1$37           quiz_manager
     000012F7  XG$engine_quiz_manager_base3$0$0   quiz_manager
     000012F8  A$quiz_manager$257                 quiz_manager
ASxxxx Linker V03.00 + NoICE + sdld,  page 51.
Hexadecimal  [32-Bits]

Area                                    Addr        Size        Decimal Bytes (Attributes)
--------------------------------        ----        ----        ------- ----- ------------
_CODE                               00000200    000030D0 =       12496. bytes (REL,CON)

      Value  Global                              Global Defined In Module
      -----  --------------------------------   ------------------------
     000012F8  C$quiz_manager.c$56$1$37           quiz_manager
     000012F8  C$quiz_manager.c$58$1$39           quiz_manager
     000012F8  G$engine_quiz_manager_bank$0$0     quiz_manager
     000012F8  _engine_quiz_manager_bank          quiz_manager
     000012FB  A$quiz_manager$258                 quiz_manager
     000012FC  A$quiz_manager$259                 quiz_manager
     000012FD  A$quiz_manager$260                 quiz_manager
     000012FE  A$quiz_manager$261                 quiz_manager
     000012FF  A$quiz_manager$262                 quiz_manager
     00001302  A$quiz_manager$263                 quiz_manager
     00001303  A$quiz_manager$268                 quiz_manager
     00001303  C$quiz_manager.c$59$1$39           quiz_manager
     00001303  XG$engine_quiz_manager_bank$0$0    quiz_manager
     00001304  A$quiz_manager$278                 quiz_manager
     00001304  C$quiz_manager.c$61$1$39           quiz_manager
     00001304  G$engine_quiz_manager_answer$0$0   quiz_manager
     00001304  _engine_quiz_manager_answer        quiz_manager
     00001306  A$quiz_manager$279                 quiz_manager
     0000130A  A$quiz_manager$280                 quiz_manager
     0000130C  A$quiz_manager$284                 quiz_manager
     0000130C  C$quiz_manager.c$63$1$41           quiz_manager
     0000130F  A$quiz_manager$285                 quiz_manager
     00001310  A$quiz_manager$286                 quiz_manager
     00001312  A$quiz_manager$290                 quiz_manager
     00001312  C$quiz_manager.c$65$2$42           quiz_manager
     00001315  A$quiz_manager$291                 quiz_manager
     00001318  A$quiz_manager$292                 quiz_manager
     0000131A  A$quiz_manager$293                 quiz_manager
     0000131B  A$quiz_manager$294                 quiz_manager
     0000131C  A$quiz_manager$295                 quiz_manager
     0000131F  A$quiz_manager$296                 quiz_manager
     00001321  A$quiz_manager$301                 quiz_manager
     00001321  C$quiz_manager.c$67$1$41           quiz_manager
     00001324  A$quiz_manager$302                 quiz_manager
     00001325  A$quiz_manager$303                 quiz_manager
     00001327  A$quiz_manager$307                 quiz_manager
     00001327  C$quiz_manager.c$69$2$43           quiz_manager
     0000132A  A$quiz_manager$308                 quiz_manager
     0000132D  A$quiz_manager$309                 quiz_manager
     0000132F  A$quiz_manager$310                 quiz_manager
     00001330  A$quiz_manager$311                 quiz_manager
     00001331  A$quiz_manager$312                 quiz_manager
     00001334  A$quiz_manager$313                 quiz_manager
     00001336  A$quiz_manager$318                 quiz_manager
     00001336  C$quiz_manager.c$71$1$41           quiz_manager
     00001339  A$quiz_manager$319                 quiz_manager
     0000133B  A$quiz_manager$320                 quiz_manager
     0000133D  A$quiz_manager$324                 quiz_manager
     0000133D  C$quiz_manager.c$73$2$44           quiz_manager
     00001340  A$quiz_manager$325                 quiz_manager
     00001343  A$quiz_manager$326                 quiz_manager
ASxxxx Linker V03.00 + NoICE + sdld,  page 52.
Hexadecimal  [32-Bits]

Area                                    Addr        Size        Decimal Bytes (Attributes)
--------------------------------        ----        ----        ------- ----- ------------
_CODE                               00000200    000030D0 =       12496. bytes (REL,CON)

      Value  Global                              Global Defined In Module
      -----  --------------------------------   ------------------------
     00001345  A$quiz_manager$327                 quiz_manager
     00001346  A$quiz_manager$328                 quiz_manager
     00001347  A$quiz_manager$329                 quiz_manager
     0000134A  A$quiz_manager$330                 quiz_manager
     0000134C  A$quiz_manager$335                 quiz_manager
     0000134C  C$quiz_manager.c$75$1$41           quiz_manager
     0000134F  A$quiz_manager$336                 quiz_manager
     00001351  A$quiz_manager$337                 quiz_manager
     00001353  A$quiz_manager$341                 quiz_manager
     00001353  C$quiz_manager.c$77$2$45           quiz_manager
     00001356  A$quiz_manager$342                 quiz_manager
     00001359  A$quiz_manager$343                 quiz_manager
     0000135B  A$quiz_manager$344                 quiz_manager
     0000135C  A$quiz_manager$345                 quiz_manager
     0000135D  A$quiz_manager$346                 quiz_manager
     00001360  A$quiz_manager$351                 quiz_manager
     00001360  C$quiz_manager.c$80$1$41           quiz_manager
     00001364  A$quiz_manager$352                 quiz_manager
     00001367  A$quiz_manager$356                 quiz_manager
     00001367  C$quiz_manager.c$81$1$41           quiz_manager
     0000136A  A$quiz_manager$357                 quiz_manager
     0000136D  A$quiz_manager$358                 quiz_manager
     0000136F  A$quiz_manager$359                 quiz_manager
     00001370  A$quiz_manager$360                 quiz_manager
     00001371  A$quiz_manager$361                 quiz_manager
     00001372  A$quiz_manager$362                 quiz_manager
     00001373  A$quiz_manager$363                 quiz_manager
     00001374  A$quiz_manager$364                 quiz_manager
     00001377  A$quiz_manager$365                 quiz_manager
     00001379  A$quiz_manager$366                 quiz_manager
     0000137A  A$quiz_manager$367                 quiz_manager
     0000137B  A$quiz_manager$368                 quiz_manager
     0000137E  A$quiz_manager$369                 quiz_manager
     00001380  A$quiz_manager$374                 quiz_manager
     00001380  C$quiz_manager.c$82$1$41           quiz_manager
     00001380  XG$engine_quiz_manager_answer$0$   quiz_manager
     00001381  A$quiz_manager$384                 quiz_manager
     00001381  C$quiz_manager.c$84$1$41           quiz_manager
     00001381  G$engine_quiz_manager_cheat$0$0    quiz_manager
     00001381  _engine_quiz_manager_cheat         quiz_manager
     00001383  A$quiz_manager$385                 quiz_manager
     00001387  A$quiz_manager$386                 quiz_manager
     00001389  A$quiz_manager$390                 quiz_manager
     00001389  C$quiz_manager.c$88$3$49           quiz_manager
     0000138C  A$quiz_manager$391                 quiz_manager
     0000138E  A$quiz_manager$396                 quiz_manager
     0000138E  C$quiz_manager.c$90$3$49           quiz_manager
     0000138F  A$quiz_manager$397                 quiz_manager
     00001391  A$quiz_manager$398                 quiz_manager
     00001392  A$quiz_manager$399                 quiz_manager
     00001393  A$quiz_manager$403                 quiz_manager
ASxxxx Linker V03.00 + NoICE + sdld,  page 53.
Hexadecimal  [32-Bits]

Area                                    Addr        Size        Decimal Bytes (Attributes)
--------------------------------        ----        ----        ------- ----- ------------
_CODE                               00000200    000030D0 =       12496. bytes (REL,CON)

      Value  Global                              Global Defined In Module
      -----  --------------------------------   ------------------------
     00001393  C$quiz_manager.c$91$3$49           quiz_manager
     00001394  A$quiz_manager$404                 quiz_manager
     00001395  A$quiz_manager$405                 quiz_manager
     00001397  A$quiz_manager$406                 quiz_manager
     00001398  A$quiz_manager$407                 quiz_manager
     0000139B  A$quiz_manager$408                 quiz_manager
     0000139C  A$quiz_manager$409                 quiz_manager
     0000139F  A$quiz_manager$410                 quiz_manager
     000013A0  A$quiz_manager$411                 quiz_manager
     000013A1  A$quiz_manager$412                 quiz_manager
     000013A2  A$quiz_manager$413                 quiz_manager
     000013A3  A$quiz_manager$417                 quiz_manager
     000013A3  C$quiz_manager.c$88$2$48           quiz_manager
     000013A4  A$quiz_manager$418                 quiz_manager
     000013A5  A$quiz_manager$419                 quiz_manager
     000013A7  A$quiz_manager$420                 quiz_manager
     000013A9  A$quiz_manager$424                 quiz_manager
     000013A9  C$quiz_manager.c$94$1$47           quiz_manager
     000013AC  A$quiz_manager$425                 quiz_manager
     000013AD  A$quiz_manager$426                 quiz_manager
     000013AF  A$quiz_manager$430                 quiz_manager
     000013AF  C$quiz_manager.c$96$2$50           quiz_manager
     000013B2  A$quiz_manager$431                 quiz_manager
     000013B4  A$quiz_manager$432                 quiz_manager
     000013B5  A$quiz_manager$433                 quiz_manager
     000013B6  A$quiz_manager$437                 quiz_manager
     000013B6  C$quiz_manager.c$97$2$50           quiz_manager
     000013B7  A$quiz_manager$438                 quiz_manager
     000013B8  A$quiz_manager$439                 quiz_manager
     000013BA  A$quiz_manager$440                 quiz_manager
     000013BB  A$quiz_manager$441                 quiz_manager
     000013BC  A$quiz_manager$442                 quiz_manager
     000013BF  A$quiz_manager$443                 quiz_manager
     000013C0  A$quiz_manager$444                 quiz_manager
     000013C3  A$quiz_manager$445                 quiz_manager
     000013C4  A$quiz_manager$446                 quiz_manager
     000013C5  A$quiz_manager$448                 quiz_manager
     000013C7  A$quiz_manager$453                 quiz_manager
     000013C7  C$quiz_manager.c$99$1$47           quiz_manager
     000013C7  XG$engine_quiz_manager_cheat$0$0   quiz_manager
     000013C8  Fquiz_manager$__str_2$0$0          quiz_manager
     000013CA  Fquiz_manager$__str_3$0$0          quiz_manager
     000013CC  A$quiz_manager$474                 quiz_manager
     000013CC  C$quiz_manager.c$100$1$47          quiz_manager
     000013CC  C$quiz_manager.c$103$1$52          quiz_manager
     000013CC  G$engine_quiz_manager_cheat2$0$0   quiz_manager
     000013CC  _engine_quiz_manager_cheat2        quiz_manager
     000013CF  A$quiz_manager$475                 quiz_manager
     000013D0  A$quiz_manager$476                 quiz_manager
     000013D1  A$quiz_manager$480                 quiz_manager
     000013D1  C$quiz_manager.c$105$2$53          quiz_manager
ASxxxx Linker V03.00 + NoICE + sdld,  page 54.
Hexadecimal  [32-Bits]

Area                                    Addr        Size        Decimal Bytes (Attributes)
--------------------------------        ----        ----        ------- ----- ------------
_CODE                               00000200    000030D0 =       12496. bytes (REL,CON)

      Value  Global                              Global Defined In Module
      -----  --------------------------------   ------------------------
     000013D3  A$quiz_manager$481                 quiz_manager
     000013D6  A$quiz_manager$482                 quiz_manager
     000013D7  A$quiz_manager$483                 quiz_manager
     000013D8  A$quiz_manager$484                 quiz_manager
     000013D9  A$quiz_manager$485                 quiz_manager
     000013DB  A$quiz_manager$486                 quiz_manager
     000013DD  A$quiz_manager$487                 quiz_manager
     000013DE  A$quiz_manager$488                 quiz_manager
     000013DF  A$quiz_manager$489                 quiz_manager
     000013E0  A$quiz_manager$493                 quiz_manager
     000013E0  C$quiz_manager.c$106$2$53          quiz_manager
     000013E3  A$quiz_manager$494                 quiz_manager
     000013E4  A$quiz_manager$495                 quiz_manager
     000013E5  A$quiz_manager$496                 quiz_manager
     000013E6  A$quiz_manager$497                 quiz_manager
     000013E8  A$quiz_manager$501                 quiz_manager
     000013E8  C$quiz_manager.c$108$3$54          quiz_manager
     000013E9  A$quiz_manager$502                 quiz_manager
     000013EA  A$quiz_manager$503                 quiz_manager
     000013EC  A$quiz_manager$504                 quiz_manager
     000013ED  A$quiz_manager$505                 quiz_manager
     000013EE  A$quiz_manager$506                 quiz_manager
     000013F1  A$quiz_manager$507                 quiz_manager
     000013F2  A$quiz_manager$508                 quiz_manager
     000013F5  A$quiz_manager$509                 quiz_manager
     000013F6  A$quiz_manager$510                 quiz_manager
     000013F7  A$quiz_manager$511                 quiz_manager
     000013F8  A$quiz_manager$516                 quiz_manager
     000013F8  C$quiz_manager.c$112$3$55          quiz_manager
     000013F9  A$quiz_manager$517                 quiz_manager
     000013FA  A$quiz_manager$518                 quiz_manager
     000013FC  A$quiz_manager$519                 quiz_manager
     000013FD  A$quiz_manager$520                 quiz_manager
     000013FE  A$quiz_manager$521                 quiz_manager
     00001401  A$quiz_manager$522                 quiz_manager
     00001402  A$quiz_manager$523                 quiz_manager
     00001405  A$quiz_manager$524                 quiz_manager
     00001406  A$quiz_manager$525                 quiz_manager
     00001407  A$quiz_manager$530                 quiz_manager
     00001407  C$quiz_manager.c$115$1$52          quiz_manager
     00001407  XG$engine_quiz_manager_cheat2$0$   quiz_manager
     00001408  Fquiz_manager$__str_4$0$0          quiz_manager
     0000140A  Fquiz_manager$__str_5$0$0          quiz_manager
     0000140C  A$quiz_manager$548                 quiz_manager
     0000140C  C$quiz_manager.c$117$1$52          quiz_manager
     0000140C  G$engine_quiz_manager_load$0$0     quiz_manager
     0000140C  _engine_quiz_manager_load          quiz_manager
     0000140E  A$quiz_manager$549                 quiz_manager
     00001412  A$quiz_manager$550                 quiz_manager
     00001414  A$quiz_manager$551                 quiz_manager
     00001415  A$quiz_manager$552                 quiz_manager
ASxxxx Linker V03.00 + NoICE + sdld,  page 55.
Hexadecimal  [32-Bits]

Area                                    Addr        Size        Decimal Bytes (Attributes)
--------------------------------        ----        ----        ------- ----- ------------
_CODE                               00000200    000030D0 =       12496. bytes (REL,CON)

      Value  Global                              Global Defined In Module
      -----  --------------------------------   ------------------------
     00001416  A$quiz_manager$556                 quiz_manager
     00001416  C$quiz_manager.c$122$1$57          quiz_manager
     00001419  A$quiz_manager$557                 quiz_manager
     0000141C  A$quiz_manager$558                 quiz_manager
     0000141E  A$quiz_manager$559                 quiz_manager
     0000141F  A$quiz_manager$560                 quiz_manager
     00001420  A$quiz_manager$561                 quiz_manager
     00001423  A$quiz_manager$565                 quiz_manager
     00001423  C$quiz_manager.c$123$1$57          quiz_manager
     00001426  A$quiz_manager$566                 quiz_manager
     00001428  A$quiz_manager$567                 quiz_manager
     00001429  A$quiz_manager$568                 quiz_manager
     0000142A  A$quiz_manager$569                 quiz_manager
     0000142D  A$quiz_manager$573                 quiz_manager
     0000142D  C$quiz_manager.c$124$1$57          quiz_manager
     00001430  A$quiz_manager$574                 quiz_manager
     00001432  A$quiz_manager$575                 quiz_manager
     00001433  A$quiz_manager$576                 quiz_manager
     00001434  A$quiz_manager$577                 quiz_manager
     00001437  A$quiz_manager$581                 quiz_manager
     00001437  C$quiz_manager.c$125$1$57          quiz_manager
     0000143A  A$quiz_manager$582                 quiz_manager
     0000143C  A$quiz_manager$583                 quiz_manager
     0000143D  A$quiz_manager$584                 quiz_manager
     0000143E  A$quiz_manager$585                 quiz_manager
     00001441  A$quiz_manager$589                 quiz_manager
     00001441  C$quiz_manager.c$128$1$57          quiz_manager
     00001444  A$quiz_manager$590                 quiz_manager
     00001446  A$quiz_manager$591                 quiz_manager
     00001447  A$quiz_manager$592                 quiz_manager
     0000144A  A$quiz_manager$593                 quiz_manager
     0000144B  A$quiz_manager$594                 quiz_manager
     0000144C  A$quiz_manager$595                 quiz_manager
     0000144F  A$quiz_manager$596                 quiz_manager
     00001450  A$quiz_manager$597                 quiz_manager
     00001451  A$quiz_manager$601                 quiz_manager
     00001451  C$quiz_manager.c$130$1$57          quiz_manager
     00001454  A$quiz_manager$602                 quiz_manager
     00001455  A$quiz_manager$603                 quiz_manager
     00001456  A$quiz_manager$604                 quiz_manager
     00001457  A$quiz_manager$608                 quiz_manager
     00001457  C$quiz_manager.c$131$1$57          quiz_manager
     00001458  A$quiz_manager$609                 quiz_manager
     00001459  A$quiz_manager$610                 quiz_manager
     0000145C  A$quiz_manager$611                 quiz_manager
     0000145D  A$quiz_manager$615                 quiz_manager
     0000145D  C$quiz_manager.c$133$1$57          quiz_manager
     00001460  A$quiz_manager$616                 quiz_manager
     00001461  A$quiz_manager$617                 quiz_manager
     00001464  A$quiz_manager$621                 quiz_manager
     00001464  C$quiz_manager.c$136$2$58          quiz_manager
ASxxxx Linker V03.00 + NoICE + sdld,  page 56.
Hexadecimal  [32-Bits]

Area                                    Addr        Size        Decimal Bytes (Attributes)
--------------------------------        ----        ----        ------- ----- ------------
_CODE                               00000200    000030D0 =       12496. bytes (REL,CON)

      Value  Global                              Global Defined In Module
      -----  --------------------------------   ------------------------
     00001467  A$quiz_manager$622                 quiz_manager
     00001469  A$quiz_manager$623                 quiz_manager
     0000146A  A$quiz_manager$624                 quiz_manager
     0000146B  A$quiz_manager$625                 quiz_manager
     0000146C  A$quiz_manager$626                 quiz_manager
     0000146D  A$quiz_manager$627                 quiz_manager
     0000146E  A$quiz_manager$628                 quiz_manager
     0000146F  A$quiz_manager$629                 quiz_manager
     00001470  A$quiz_manager$630                 quiz_manager
     00001471  A$quiz_manager$631                 quiz_manager
     00001472  A$quiz_manager$632                 quiz_manager
     00001473  A$quiz_manager$633                 quiz_manager
     00001474  A$quiz_manager$634                 quiz_manager
     00001475  A$quiz_manager$635                 quiz_manager
     00001478  A$quiz_manager$636                 quiz_manager
     00001479  A$quiz_manager$637                 quiz_manager
     0000147A  A$quiz_manager$638                 quiz_manager
     0000147D  A$quiz_manager$639                 quiz_manager
     0000147E  A$quiz_manager$640                 quiz_manager
     0000147F  A$quiz_manager$641                 quiz_manager
     00001482  A$quiz_manager$642                 quiz_manager
     00001483  A$quiz_manager$643                 quiz_manager
     00001484  A$quiz_manager$644                 quiz_manager
     00001485  A$quiz_manager$648                 quiz_manager
     00001485  C$quiz_manager.c$137$2$58          quiz_manager
     00001488  A$quiz_manager$649                 quiz_manager
     00001489  A$quiz_manager$650                 quiz_manager
     0000148A  A$quiz_manager$651                 quiz_manager
     0000148D  A$quiz_manager$652                 quiz_manager
     0000148E  A$quiz_manager$653                 quiz_manager
     0000148F  A$quiz_manager$654                 quiz_manager
     00001492  A$quiz_manager$655                 quiz_manager
     00001493  A$quiz_manager$656                 quiz_manager
     00001494  A$quiz_manager$657                 quiz_manager
     00001495  A$quiz_manager$661                 quiz_manager
     00001495  C$quiz_manager.c$138$2$58          quiz_manager
     00001498  A$quiz_manager$662                 quiz_manager
     00001499  A$quiz_manager$663                 quiz_manager
     0000149C  A$quiz_manager$664                 quiz_manager
     0000149D  A$quiz_manager$665                 quiz_manager
     0000149E  A$quiz_manager$666                 quiz_manager
     000014A1  A$quiz_manager$667                 quiz_manager
     000014A2  A$quiz_manager$668                 quiz_manager
     000014A3  A$quiz_manager$672                 quiz_manager
     000014A3  C$quiz_manager.c$141$2$58          quiz_manager
     000014A6  A$quiz_manager$673                 quiz_manager
     000014A8  A$quiz_manager$674                 quiz_manager
     000014A9  A$quiz_manager$675                 quiz_manager
     000014AA  A$quiz_manager$676                 quiz_manager
     000014AB  A$quiz_manager$677                 quiz_manager
     000014AC  A$quiz_manager$678                 quiz_manager
ASxxxx Linker V03.00 + NoICE + sdld,  page 57.
Hexadecimal  [32-Bits]

Area                                    Addr        Size        Decimal Bytes (Attributes)
--------------------------------        ----        ----        ------- ----- ------------
_CODE                               00000200    000030D0 =       12496. bytes (REL,CON)

      Value  Global                              Global Defined In Module
      -----  --------------------------------   ------------------------
     000014AD  A$quiz_manager$679                 quiz_manager
     000014AE  A$quiz_manager$680                 quiz_manager
     000014AF  A$quiz_manager$681                 quiz_manager
     000014B0  A$quiz_manager$682                 quiz_manager
     000014B1  A$quiz_manager$683                 quiz_manager
     000014B4  A$quiz_manager$684                 quiz_manager
     000014B5  A$quiz_manager$685                 quiz_manager
     000014B6  A$quiz_manager$686                 quiz_manager
     000014B7  A$quiz_manager$687                 quiz_manager
     000014BA  A$quiz_manager$688                 quiz_manager
     000014BC  A$quiz_manager$689                 quiz_manager
     000014BD  A$quiz_manager$690                 quiz_manager
     000014BE  A$quiz_manager$691                 quiz_manager
     000014C1  A$quiz_manager$692                 quiz_manager
     000014C2  A$quiz_manager$693                 quiz_manager
     000014C3  A$quiz_manager$694                 quiz_manager
     000014C4  A$quiz_manager$698                 quiz_manager
     000014C4  C$quiz_manager.c$142$2$58          quiz_manager
     000014C7  A$quiz_manager$699                 quiz_manager
     000014C8  A$quiz_manager$700                 quiz_manager
     000014CB  A$quiz_manager$701                 quiz_manager
     000014CC  A$quiz_manager$702                 quiz_manager
     000014CD  A$quiz_manager$703                 quiz_manager
     000014CE  A$quiz_manager$704                 quiz_manager
     000014D0  A$quiz_manager$705                 quiz_manager
     000014D1  A$quiz_manager$706                 quiz_manager
     000014D2  A$quiz_manager$707                 quiz_manager
     000014D5  A$quiz_manager$708                 quiz_manager
     000014D6  A$quiz_manager$709                 quiz_manager
     000014D7  A$quiz_manager$710                 quiz_manager
     000014D8  A$quiz_manager$714                 quiz_manager
     000014D8  C$quiz_manager.c$143$2$58          quiz_manager
     000014DB  A$quiz_manager$715                 quiz_manager
     000014DC  A$quiz_manager$716                 quiz_manager
     000014DD  A$quiz_manager$717                 quiz_manager
     000014E0  A$quiz_manager$718                 quiz_manager
     000014E1  A$quiz_manager$719                 quiz_manager
     000014E2  A$quiz_manager$720                 quiz_manager
     000014E3  A$quiz_manager$721                 quiz_manager
     000014E5  A$quiz_manager$722                 quiz_manager
     000014E6  A$quiz_manager$723                 quiz_manager
     000014E7  A$quiz_manager$724                 quiz_manager
     000014EA  A$quiz_manager$725                 quiz_manager
     000014EB  A$quiz_manager$726                 quiz_manager
     000014EC  A$quiz_manager$727                 quiz_manager
     000014ED  A$quiz_manager$731                 quiz_manager
     000014ED  C$quiz_manager.c$146$2$58          quiz_manager
     000014F0  A$quiz_manager$732                 quiz_manager
     000014F1  A$quiz_manager$733                 quiz_manager
     000014F2  A$quiz_manager$734                 quiz_manager
     000014F3  A$quiz_manager$735                 quiz_manager
ASxxxx Linker V03.00 + NoICE + sdld,  page 58.
Hexadecimal  [32-Bits]

Area                                    Addr        Size        Decimal Bytes (Attributes)
--------------------------------        ----        ----        ------- ----- ------------
_CODE                               00000200    000030D0 =       12496. bytes (REL,CON)

      Value  Global                              Global Defined In Module
      -----  --------------------------------   ------------------------
     000014F6  A$quiz_manager$736                 quiz_manager
     000014F8  A$quiz_manager$737                 quiz_manager
     000014F9  A$quiz_manager$738                 quiz_manager
     000014FA  A$quiz_manager$739                 quiz_manager
     000014FD  A$quiz_manager$740                 quiz_manager
     000014FE  A$quiz_manager$741                 quiz_manager
     000014FF  A$quiz_manager$742                 quiz_manager
     00001500  A$quiz_manager$746                 quiz_manager
     00001500  C$quiz_manager.c$147$2$58          quiz_manager
     00001503  A$quiz_manager$747                 quiz_manager
     00001504  A$quiz_manager$748                 quiz_manager
     00001507  A$quiz_manager$749                 quiz_manager
     00001508  A$quiz_manager$750                 quiz_manager
     00001509  A$quiz_manager$751                 quiz_manager
     0000150A  A$quiz_manager$752                 quiz_manager
     0000150C  A$quiz_manager$753                 quiz_manager
     0000150D  A$quiz_manager$754                 quiz_manager
     0000150E  A$quiz_manager$755                 quiz_manager
     00001511  A$quiz_manager$756                 quiz_manager
     00001512  A$quiz_manager$757                 quiz_manager
     00001513  A$quiz_manager$758                 quiz_manager
     00001514  A$quiz_manager$762                 quiz_manager
     00001514  C$quiz_manager.c$148$2$58          quiz_manager
     00001517  A$quiz_manager$763                 quiz_manager
     00001518  A$quiz_manager$764                 quiz_manager
     00001519  A$quiz_manager$765                 quiz_manager
     0000151C  A$quiz_manager$766                 quiz_manager
     0000151D  A$quiz_manager$767                 quiz_manager
     0000151E  A$quiz_manager$768                 quiz_manager
     0000151F  A$quiz_manager$769                 quiz_manager
     00001521  A$quiz_manager$770                 quiz_manager
     00001522  A$quiz_manager$771                 quiz_manager
     00001523  A$quiz_manager$772                 quiz_manager
     00001526  A$quiz_manager$773                 quiz_manager
     00001527  A$quiz_manager$774                 quiz_manager
     00001528  A$quiz_manager$775                 quiz_manager
     00001529  A$quiz_manager$779                 quiz_manager
     00001529  C$quiz_manager.c$151$2$58          quiz_manager
     0000152C  A$quiz_manager$780                 quiz_manager
     0000152D  A$quiz_manager$781                 quiz_manager
     0000152E  A$quiz_manager$782                 quiz_manager
     0000152F  A$quiz_manager$783                 quiz_manager
     00001532  A$quiz_manager$784                 quiz_manager
     00001534  A$quiz_manager$785                 quiz_manager
     00001535  A$quiz_manager$786                 quiz_manager
     00001536  A$quiz_manager$787                 quiz_manager
     00001539  A$quiz_manager$788                 quiz_manager
     0000153A  A$quiz_manager$789                 quiz_manager
     0000153B  A$quiz_manager$790                 quiz_manager
     0000153C  A$quiz_manager$794                 quiz_manager
     0000153C  C$quiz_manager.c$152$2$58          quiz_manager
ASxxxx Linker V03.00 + NoICE + sdld,  page 59.
Hexadecimal  [32-Bits]

Area                                    Addr        Size        Decimal Bytes (Attributes)
--------------------------------        ----        ----        ------- ----- ------------
_CODE                               00000200    000030D0 =       12496. bytes (REL,CON)

      Value  Global                              Global Defined In Module
      -----  --------------------------------   ------------------------
     0000153F  A$quiz_manager$795                 quiz_manager
     00001540  A$quiz_manager$796                 quiz_manager
     00001543  A$quiz_manager$797                 quiz_manager
     00001544  A$quiz_manager$798                 quiz_manager
     00001545  A$quiz_manager$799                 quiz_manager
     00001546  A$quiz_manager$800                 quiz_manager
     00001548  A$quiz_manager$801                 quiz_manager
     00001549  A$quiz_manager$802                 quiz_manager
     0000154A  A$quiz_manager$803                 quiz_manager
     0000154D  A$quiz_manager$804                 quiz_manager
     0000154E  A$quiz_manager$805                 quiz_manager
     0000154F  A$quiz_manager$806                 quiz_manager
     00001550  A$quiz_manager$810                 quiz_manager
     00001550  C$quiz_manager.c$153$2$58          quiz_manager
     00001553  A$quiz_manager$811                 quiz_manager
     00001554  A$quiz_manager$812                 quiz_manager
     00001555  A$quiz_manager$813                 quiz_manager
     00001558  A$quiz_manager$814                 quiz_manager
     00001559  A$quiz_manager$815                 quiz_manager
     0000155A  A$quiz_manager$816                 quiz_manager
     0000155B  A$quiz_manager$817                 quiz_manager
     0000155D  A$quiz_manager$818                 quiz_manager
     0000155E  A$quiz_manager$819                 quiz_manager
     0000155F  A$quiz_manager$820                 quiz_manager
     00001562  A$quiz_manager$821                 quiz_manager
     00001563  A$quiz_manager$822                 quiz_manager
     00001564  A$quiz_manager$823                 quiz_manager
     00001565  A$quiz_manager$827                 quiz_manager
     00001565  C$quiz_manager.c$156$2$58          quiz_manager
     00001568  A$quiz_manager$828                 quiz_manager
     00001569  A$quiz_manager$829                 quiz_manager
     0000156A  A$quiz_manager$830                 quiz_manager
     0000156B  A$quiz_manager$831                 quiz_manager
     0000156E  A$quiz_manager$832                 quiz_manager
     00001570  A$quiz_manager$833                 quiz_manager
     00001571  A$quiz_manager$834                 quiz_manager
     00001572  A$quiz_manager$835                 quiz_manager
     00001575  A$quiz_manager$836                 quiz_manager
     00001576  A$quiz_manager$837                 quiz_manager
     00001577  A$quiz_manager$838                 quiz_manager
     00001578  A$quiz_manager$842                 quiz_manager
     00001578  C$quiz_manager.c$157$2$58          quiz_manager
     0000157B  A$quiz_manager$843                 quiz_manager
     0000157C  A$quiz_manager$844                 quiz_manager
     0000157F  A$quiz_manager$845                 quiz_manager
     00001580  A$quiz_manager$846                 quiz_manager
     00001581  A$quiz_manager$847                 quiz_manager
     00001582  A$quiz_manager$848                 quiz_manager
     00001584  A$quiz_manager$849                 quiz_manager
     00001585  A$quiz_manager$850                 quiz_manager
     00001586  A$quiz_manager$851                 quiz_manager
ASxxxx Linker V03.00 + NoICE + sdld,  page 60.
Hexadecimal  [32-Bits]

Area                                    Addr        Size        Decimal Bytes (Attributes)
--------------------------------        ----        ----        ------- ----- ------------
_CODE                               00000200    000030D0 =       12496. bytes (REL,CON)

      Value  Global                              Global Defined In Module
      -----  --------------------------------   ------------------------
     00001589  A$quiz_manager$852                 quiz_manager
     0000158A  A$quiz_manager$853                 quiz_manager
     0000158B  A$quiz_manager$854                 quiz_manager
     0000158C  A$quiz_manager$858                 quiz_manager
     0000158C  C$quiz_manager.c$158$2$58          quiz_manager
     0000158F  A$quiz_manager$859                 quiz_manager
     00001590  A$quiz_manager$860                 quiz_manager
     00001591  A$quiz_manager$861                 quiz_manager
     00001594  A$quiz_manager$862                 quiz_manager
     00001595  A$quiz_manager$863                 quiz_manager
     00001596  A$quiz_manager$864                 quiz_manager
     00001597  A$quiz_manager$865                 quiz_manager
     00001599  A$quiz_manager$866                 quiz_manager
     0000159A  A$quiz_manager$867                 quiz_manager
     0000159B  A$quiz_manager$868                 quiz_manager
     0000159E  A$quiz_manager$869                 quiz_manager
     0000159F  A$quiz_manager$870                 quiz_manager
     000015A0  A$quiz_manager$871                 quiz_manager
     000015A3  A$quiz_manager$876                 quiz_manager
     000015A3  C$quiz_manager.c$160$1$57          quiz_manager
     000015A6  A$quiz_manager$877                 quiz_manager
     000015A7  A$quiz_manager$878                 quiz_manager
     000015AA  A$quiz_manager$882                 quiz_manager
     000015AA  C$quiz_manager.c$163$2$59          quiz_manager
     000015AD  A$quiz_manager$883                 quiz_manager
     000015AF  A$quiz_manager$884                 quiz_manager
     000015B0  A$quiz_manager$885                 quiz_manager
     000015B1  A$quiz_manager$886                 quiz_manager
     000015B2  A$quiz_manager$887                 quiz_manager
     000015B3  A$quiz_manager$888                 quiz_manager
     000015B4  A$quiz_manager$889                 quiz_manager
     000015B5  A$quiz_manager$890                 quiz_manager
     000015B6  A$quiz_manager$891                 quiz_manager
     000015B7  A$quiz_manager$892                 quiz_manager
     000015B8  A$quiz_manager$893                 quiz_manager
     000015B9  A$quiz_manager$894                 quiz_manager
     000015BA  A$quiz_manager$895                 quiz_manager
     000015BB  A$quiz_manager$896                 quiz_manager
     000015BE  A$quiz_manager$897                 quiz_manager
     000015BF  A$quiz_manager$898                 quiz_manager
     000015C0  A$quiz_manager$899                 quiz_manager
     000015C3  A$quiz_manager$900                 quiz_manager
     000015C4  A$quiz_manager$901                 quiz_manager
     000015C5  A$quiz_manager$902                 quiz_manager
     000015C8  A$quiz_manager$903                 quiz_manager
     000015C9  A$quiz_manager$904                 quiz_manager
     000015CA  A$quiz_manager$905                 quiz_manager
     000015CB  A$quiz_manager$909                 quiz_manager
     000015CB  C$quiz_manager.c$164$2$59          quiz_manager
     000015CE  A$quiz_manager$910                 quiz_manager
     000015CF  A$quiz_manager$911                 quiz_manager
ASxxxx Linker V03.00 + NoICE + sdld,  page 61.
Hexadecimal  [32-Bits]

Area                                    Addr        Size        Decimal Bytes (Attributes)
--------------------------------        ----        ----        ------- ----- ------------
_CODE                               00000200    000030D0 =       12496. bytes (REL,CON)

      Value  Global                              Global Defined In Module
      -----  --------------------------------   ------------------------
     000015D0  A$quiz_manager$912                 quiz_manager
     000015D3  A$quiz_manager$913                 quiz_manager
     000015D4  A$quiz_manager$914                 quiz_manager
     000015D5  A$quiz_manager$915                 quiz_manager
     000015D8  A$quiz_manager$916                 quiz_manager
     000015D9  A$quiz_manager$917                 quiz_manager
     000015DA  A$quiz_manager$918                 quiz_manager
     000015DB  A$quiz_manager$922                 quiz_manager
     000015DB  C$quiz_manager.c$165$2$59          quiz_manager
     000015DE  A$quiz_manager$923                 quiz_manager
     000015DF  A$quiz_manager$924                 quiz_manager
     000015E2  A$quiz_manager$925                 quiz_manager
     000015E3  A$quiz_manager$926                 quiz_manager
     000015E4  A$quiz_manager$927                 quiz_manager
     000015E7  A$quiz_manager$928                 quiz_manager
     000015E8  A$quiz_manager$929                 quiz_manager
     000015E9  A$quiz_manager$933                 quiz_manager
     000015E9  C$quiz_manager.c$168$2$59          quiz_manager
     000015EC  A$quiz_manager$934                 quiz_manager
     000015EE  A$quiz_manager$935                 quiz_manager
     000015EF  A$quiz_manager$936                 quiz_manager
     000015F0  A$quiz_manager$937                 quiz_manager
     000015F1  A$quiz_manager$938                 quiz_manager
     000015F2  A$quiz_manager$939                 quiz_manager
     000015F3  A$quiz_manager$940                 quiz_manager
     000015F4  A$quiz_manager$941                 quiz_manager
     000015F5  A$quiz_manager$942                 quiz_manager
     000015F6  A$quiz_manager$943                 quiz_manager
     000015F7  A$quiz_manager$944                 quiz_manager
     000015FA  A$quiz_manager$945                 quiz_manager
     000015FB  A$quiz_manager$946                 quiz_manager
     000015FC  A$quiz_manager$947                 quiz_manager
     000015FD  A$quiz_manager$948                 quiz_manager
     00001600  A$quiz_manager$949                 quiz_manager
     00001602  A$quiz_manager$950                 quiz_manager
     00001603  A$quiz_manager$951                 quiz_manager
     00001604  A$quiz_manager$952                 quiz_manager
     00001607  A$quiz_manager$953                 quiz_manager
     00001608  A$quiz_manager$954                 quiz_manager
     00001609  A$quiz_manager$955                 quiz_manager
     0000160A  A$quiz_manager$959                 quiz_manager
     0000160A  C$quiz_manager.c$169$2$59          quiz_manager
     0000160D  A$quiz_manager$960                 quiz_manager
     0000160E  A$quiz_manager$961                 quiz_manager
     00001611  A$quiz_manager$962                 quiz_manager
     00001612  A$quiz_manager$963                 quiz_manager
     00001613  A$quiz_manager$964                 quiz_manager
     00001614  A$quiz_manager$965                 quiz_manager
     00001616  A$quiz_manager$966                 quiz_manager
     00001617  A$quiz_manager$967                 quiz_manager
     00001618  A$quiz_manager$968                 quiz_manager
ASxxxx Linker V03.00 + NoICE + sdld,  page 62.
Hexadecimal  [32-Bits]

Area                                    Addr        Size        Decimal Bytes (Attributes)
--------------------------------        ----        ----        ------- ----- ------------
_CODE                               00000200    000030D0 =       12496. bytes (REL,CON)

      Value  Global                              Global Defined In Module
      -----  --------------------------------   ------------------------
     0000161B  A$quiz_manager$969                 quiz_manager
     0000161C  A$quiz_manager$970                 quiz_manager
     0000161D  A$quiz_manager$971                 quiz_manager
     0000161E  A$quiz_manager$975                 quiz_manager
     0000161E  C$quiz_manager.c$170$2$59          quiz_manager
     00001621  A$quiz_manager$976                 quiz_manager
     00001622  A$quiz_manager$977                 quiz_manager
     00001623  A$quiz_manager$978                 quiz_manager
     00001626  A$quiz_manager$979                 quiz_manager
     00001627  A$quiz_manager$980                 quiz_manager
     00001628  A$quiz_manager$981                 quiz_manager
     00001629  A$quiz_manager$982                 quiz_manager
     0000162B  A$quiz_manager$983                 quiz_manager
     0000162C  A$quiz_manager$984                 quiz_manager
     0000162D  A$quiz_manager$985                 quiz_manager
     00001630  A$quiz_manager$986                 quiz_manager
     00001631  A$quiz_manager$987                 quiz_manager
     00001632  A$quiz_manager$988                 quiz_manager
     00001633  A$quiz_manager$992                 quiz_manager
     00001633  C$quiz_manager.c$173$2$59          quiz_manager
     00001636  A$quiz_manager$993                 quiz_manager
     00001637  A$quiz_manager$994                 quiz_manager
     00001638  A$quiz_manager$995                 quiz_manager
     00001639  A$quiz_manager$996                 quiz_manager
     0000163C  A$quiz_manager$997                 quiz_manager
     0000163E  A$quiz_manager$998                 quiz_manager
     0000163F  A$quiz_manager$999                 quiz_manager
     00001640  A$quiz_manager$1000                quiz_manager
     00001643  A$quiz_manager$1001                quiz_manager
     00001644  A$quiz_manager$1002                quiz_manager
     00001645  A$quiz_manager$1003                quiz_manager
     00001646  A$quiz_manager$1007                quiz_manager
     00001646  C$quiz_manager.c$174$2$59          quiz_manager
     00001649  A$quiz_manager$1008                quiz_manager
     0000164A  A$quiz_manager$1009                quiz_manager
     0000164D  A$quiz_manager$1010                quiz_manager
     0000164E  A$quiz_manager$1011                quiz_manager
     0000164F  A$quiz_manager$1012                quiz_manager
     00001650  A$quiz_manager$1013                quiz_manager
     00001652  A$quiz_manager$1014                quiz_manager
     00001653  A$quiz_manager$1015                quiz_manager
     00001654  A$quiz_manager$1016                quiz_manager
     00001657  A$quiz_manager$1017                quiz_manager
     00001658  A$quiz_manager$1018                quiz_manager
     00001659  A$quiz_manager$1019                quiz_manager
     0000165A  A$quiz_manager$1023                quiz_manager
     0000165A  C$quiz_manager.c$175$2$59          quiz_manager
     0000165D  A$quiz_manager$1024                quiz_manager
     0000165E  A$quiz_manager$1025                quiz_manager
     0000165F  A$quiz_manager$1026                quiz_manager
     00001662  A$quiz_manager$1027                quiz_manager
ASxxxx Linker V03.00 + NoICE + sdld,  page 63.
Hexadecimal  [32-Bits]

Area                                    Addr        Size        Decimal Bytes (Attributes)
--------------------------------        ----        ----        ------- ----- ------------
_CODE                               00000200    000030D0 =       12496. bytes (REL,CON)

      Value  Global                              Global Defined In Module
      -----  --------------------------------   ------------------------
     00001663  A$quiz_manager$1028                quiz_manager
     00001664  A$quiz_manager$1029                quiz_manager
     00001665  A$quiz_manager$1030                quiz_manager
     00001667  A$quiz_manager$1031                quiz_manager
     00001668  A$quiz_manager$1032                quiz_manager
     00001669  A$quiz_manager$1033                quiz_manager
     0000166C  A$quiz_manager$1034                quiz_manager
     0000166D  A$quiz_manager$1035                quiz_manager
     0000166E  A$quiz_manager$1036                quiz_manager
     0000166F  A$quiz_manager$1040                quiz_manager
     0000166F  C$quiz_manager.c$178$2$59          quiz_manager
     00001672  A$quiz_manager$1041                quiz_manager
     00001673  A$quiz_manager$1042                quiz_manager
     00001674  A$quiz_manager$1043                quiz_manager
     00001675  A$quiz_manager$1044                quiz_manager
     00001678  A$quiz_manager$1045                quiz_manager
     0000167A  A$quiz_manager$1046                quiz_manager
     0000167B  A$quiz_manager$1047                quiz_manager
     0000167C  A$quiz_manager$1048                quiz_manager
     0000167F  A$quiz_manager$1049                quiz_manager
     00001680  A$quiz_manager$1050                quiz_manager
     00001681  A$quiz_manager$1051                quiz_manager
     00001682  A$quiz_manager$1055                quiz_manager
     00001682  C$quiz_manager.c$179$2$59          quiz_manager
     00001685  A$quiz_manager$1056                quiz_manager
     00001686  A$quiz_manager$1057                quiz_manager
     00001689  A$quiz_manager$1058                quiz_manager
     0000168A  A$quiz_manager$1059                quiz_manager
     0000168B  A$quiz_manager$1060                quiz_manager
     0000168C  A$quiz_manager$1061                quiz_manager
     0000168E  A$quiz_manager$1062                quiz_manager
     0000168F  A$quiz_manager$1063                quiz_manager
     00001690  A$quiz_manager$1064                quiz_manager
     00001693  A$quiz_manager$1065                quiz_manager
     00001694  A$quiz_manager$1066                quiz_manager
     00001695  A$quiz_manager$1067                quiz_manager
     00001696  A$quiz_manager$1071                quiz_manager
     00001696  C$quiz_manager.c$180$2$59          quiz_manager
     00001699  A$quiz_manager$1072                quiz_manager
     0000169A  A$quiz_manager$1073                quiz_manager
     0000169B  A$quiz_manager$1074                quiz_manager
     0000169E  A$quiz_manager$1075                quiz_manager
     0000169F  A$quiz_manager$1076                quiz_manager
     000016A0  A$quiz_manager$1077                quiz_manager
     000016A1  A$quiz_manager$1078                quiz_manager
     000016A3  A$quiz_manager$1079                quiz_manager
     000016A4  A$quiz_manager$1080                quiz_manager
     000016A5  A$quiz_manager$1081                quiz_manager
     000016A8  A$quiz_manager$1082                quiz_manager
     000016A9  A$quiz_manager$1083                quiz_manager
     000016AA  A$quiz_manager$1084                quiz_manager
ASxxxx Linker V03.00 + NoICE + sdld,  page 64.
Hexadecimal  [32-Bits]

Area                                    Addr        Size        Decimal Bytes (Attributes)
--------------------------------        ----        ----        ------- ----- ------------
_CODE                               00000200    000030D0 =       12496. bytes (REL,CON)

      Value  Global                              Global Defined In Module
      -----  --------------------------------   ------------------------
     000016AB  A$quiz_manager$1088                quiz_manager
     000016AB  C$quiz_manager.c$183$2$59          quiz_manager
     000016AE  A$quiz_manager$1089                quiz_manager
     000016AF  A$quiz_manager$1090                quiz_manager
     000016B0  A$quiz_manager$1091                quiz_manager
     000016B1  A$quiz_manager$1092                quiz_manager
     000016B4  A$quiz_manager$1093                quiz_manager
     000016B6  A$quiz_manager$1094                quiz_manager
     000016B7  A$quiz_manager$1095                quiz_manager
     000016B8  A$quiz_manager$1096                quiz_manager
     000016BB  A$quiz_manager$1097                quiz_manager
     000016BC  A$quiz_manager$1098                quiz_manager
     000016BD  A$quiz_manager$1099                quiz_manager
     000016BE  A$quiz_manager$1103                quiz_manager
     000016BE  C$quiz_manager.c$184$2$59          quiz_manager
     000016C1  A$quiz_manager$1104                quiz_manager
     000016C2  A$quiz_manager$1105                quiz_manager
     000016C5  A$quiz_manager$1106                quiz_manager
     000016C6  A$quiz_manager$1107                quiz_manager
     000016C7  A$quiz_manager$1108                quiz_manager
     000016C8  A$quiz_manager$1109                quiz_manager
     000016CA  A$quiz_manager$1110                quiz_manager
     000016CB  A$quiz_manager$1111                quiz_manager
     000016CC  A$quiz_manager$1112                quiz_manager
     000016CF  A$quiz_manager$1113                quiz_manager
     000016D0  A$quiz_manager$1114                quiz_manager
     000016D1  A$quiz_manager$1115                quiz_manager
     000016D2  A$quiz_manager$1119                quiz_manager
     000016D2  C$quiz_manager.c$185$2$59          quiz_manager
     000016D5  A$quiz_manager$1120                quiz_manager
     000016D6  A$quiz_manager$1121                quiz_manager
     000016D7  A$quiz_manager$1122                quiz_manager
     000016DA  A$quiz_manager$1123                quiz_manager
     000016DB  A$quiz_manager$1124                quiz_manager
     000016DC  A$quiz_manager$1125                quiz_manager
     000016DD  A$quiz_manager$1126                quiz_manager
     000016DF  A$quiz_manager$1127                quiz_manager
     000016E0  A$quiz_manager$1128                quiz_manager
     000016E1  A$quiz_manager$1129                quiz_manager
     000016E4  A$quiz_manager$1130                quiz_manager
     000016E5  A$quiz_manager$1131                quiz_manager
     000016E6  A$quiz_manager$1132                quiz_manager
     000016E9  A$quiz_manager$1137                quiz_manager
     000016E9  C$quiz_manager.c$187$1$57          quiz_manager
     000016EC  A$quiz_manager$1138                quiz_manager
     000016EE  A$quiz_manager$1139                quiz_manager
     000016F1  A$quiz_manager$1143                quiz_manager
     000016F1  C$quiz_manager.c$190$2$60          quiz_manager
     000016F4  A$quiz_manager$1144                quiz_manager
     000016F6  A$quiz_manager$1145                quiz_manager
     000016F7  A$quiz_manager$1146                quiz_manager
ASxxxx Linker V03.00 + NoICE + sdld,  page 65.
Hexadecimal  [32-Bits]

Area                                    Addr        Size        Decimal Bytes (Attributes)
--------------------------------        ----        ----        ------- ----- ------------
_CODE                               00000200    000030D0 =       12496. bytes (REL,CON)

      Value  Global                              Global Defined In Module
      -----  --------------------------------   ------------------------
     000016F8  A$quiz_manager$1147                quiz_manager
     000016F9  A$quiz_manager$1148                quiz_manager
     000016FA  A$quiz_manager$1149                quiz_manager
     000016FB  A$quiz_manager$1150                quiz_manager
     000016FC  A$quiz_manager$1151                quiz_manager
     000016FD  A$quiz_manager$1152                quiz_manager
     000016FE  A$quiz_manager$1153                quiz_manager
     000016FF  A$quiz_manager$1154                quiz_manager
     00001700  A$quiz_manager$1155                quiz_manager
     00001701  A$quiz_manager$1156                quiz_manager
     00001702  A$quiz_manager$1157                quiz_manager
     00001705  A$quiz_manager$1158                quiz_manager
     00001706  A$quiz_manager$1159                quiz_manager
     00001707  A$quiz_manager$1160                quiz_manager
     0000170A  A$quiz_manager$1161                quiz_manager
     0000170B  A$quiz_manager$1162                quiz_manager
     0000170C  A$quiz_manager$1163                quiz_manager
     0000170F  A$quiz_manager$1164                quiz_manager
     00001710  A$quiz_manager$1165                quiz_manager
     00001711  A$quiz_manager$1166                quiz_manager
     00001712  A$quiz_manager$1170                quiz_manager
     00001712  C$quiz_manager.c$191$2$60          quiz_manager
     00001715  A$quiz_manager$1171                quiz_manager
     00001716  A$quiz_manager$1172                quiz_manager
     00001717  A$quiz_manager$1173                quiz_manager
     0000171A  A$quiz_manager$1174                quiz_manager
     0000171B  A$quiz_manager$1175                quiz_manager
     0000171C  A$quiz_manager$1176                quiz_manager
     0000171F  A$quiz_manager$1177                quiz_manager
     00001720  A$quiz_manager$1178                quiz_manager
     00001721  A$quiz_manager$1179                quiz_manager
     00001722  A$quiz_manager$1183                quiz_manager
     00001722  C$quiz_manager.c$192$2$60          quiz_manager
     00001725  A$quiz_manager$1184                quiz_manager
     00001726  A$quiz_manager$1185                quiz_manager
     00001729  A$quiz_manager$1186                quiz_manager
     0000172A  A$quiz_manager$1187                quiz_manager
     0000172B  A$quiz_manager$1188                quiz_manager
     0000172E  A$quiz_manager$1189                quiz_manager
     0000172F  A$quiz_manager$1190                quiz_manager
     00001730  A$quiz_manager$1194                quiz_manager
     00001730  C$quiz_manager.c$195$2$60          quiz_manager
     00001733  A$quiz_manager$1195                quiz_manager
     00001735  A$quiz_manager$1196                quiz_manager
     00001736  A$quiz_manager$1197                quiz_manager
     00001737  A$quiz_manager$1198                quiz_manager
     00001738  A$quiz_manager$1199                quiz_manager
     00001739  A$quiz_manager$1200                quiz_manager
     0000173A  A$quiz_manager$1201                quiz_manager
     0000173B  A$quiz_manager$1202                quiz_manager
     0000173C  A$quiz_manager$1203                quiz_manager
ASxxxx Linker V03.00 + NoICE + sdld,  page 66.
Hexadecimal  [32-Bits]

Area                                    Addr        Size        Decimal Bytes (Attributes)
--------------------------------        ----        ----        ------- ----- ------------
_CODE                               00000200    000030D0 =       12496. bytes (REL,CON)

      Value  Global                              Global Defined In Module
      -----  --------------------------------   ------------------------
     0000173D  A$quiz_manager$1204                quiz_manager
     0000173E  A$quiz_manager$1205                quiz_manager
     00001741  A$quiz_manager$1206                quiz_manager
     00001742  A$quiz_manager$1207                quiz_manager
     00001743  A$quiz_manager$1208                quiz_manager
     00001744  A$quiz_manager$1209                quiz_manager
     00001747  A$quiz_manager$1210                quiz_manager
     00001749  A$quiz_manager$1211                quiz_manager
     0000174A  A$quiz_manager$1212                quiz_manager
     0000174B  A$quiz_manager$1213                quiz_manager
     0000174E  A$quiz_manager$1214                quiz_manager
     0000174F  A$quiz_manager$1215                quiz_manager
     00001750  A$quiz_manager$1216                quiz_manager
     00001751  A$quiz_manager$1220                quiz_manager
     00001751  C$quiz_manager.c$196$2$60          quiz_manager
     00001754  A$quiz_manager$1221                quiz_manager
     00001755  A$quiz_manager$1222                quiz_manager
     00001758  A$quiz_manager$1223                quiz_manager
     00001759  A$quiz_manager$1224                quiz_manager
     0000175A  A$quiz_manager$1225                quiz_manager
     0000175B  A$quiz_manager$1226                quiz_manager
     0000175D  A$quiz_manager$1227                quiz_manager
     0000175E  A$quiz_manager$1228                quiz_manager
     0000175F  A$quiz_manager$1229                quiz_manager
     00001762  A$quiz_manager$1230                quiz_manager
     00001763  A$quiz_manager$1231                quiz_manager
     00001764  A$quiz_manager$1232                quiz_manager
     00001765  A$quiz_manager$1236                quiz_manager
     00001765  C$quiz_manager.c$197$2$60          quiz_manager
     00001768  A$quiz_manager$1237                quiz_manager
     00001769  A$quiz_manager$1238                quiz_manager
     0000176A  A$quiz_manager$1239                quiz_manager
     0000176D  A$quiz_manager$1240                quiz_manager
     0000176E  A$quiz_manager$1241                quiz_manager
     0000176F  A$quiz_manager$1242                quiz_manager
     00001770  A$quiz_manager$1243                quiz_manager
     00001772  A$quiz_manager$1244                quiz_manager
     00001773  A$quiz_manager$1245                quiz_manager
     00001774  A$quiz_manager$1246                quiz_manager
     00001777  A$quiz_manager$1247                quiz_manager
     00001778  A$quiz_manager$1248                quiz_manager
     00001779  A$quiz_manager$1249                quiz_manager
     0000177A  A$quiz_manager$1253                quiz_manager
     0000177A  C$quiz_manager.c$200$2$60          quiz_manager
     0000177D  A$quiz_manager$1254                quiz_manager
     0000177E  A$quiz_manager$1255                quiz_manager
     0000177F  A$quiz_manager$1256                quiz_manager
     00001780  A$quiz_manager$1257                quiz_manager
     00001783  A$quiz_manager$1258                quiz_manager
     00001785  A$quiz_manager$1259                quiz_manager
     00001786  A$quiz_manager$1260                quiz_manager
ASxxxx Linker V03.00 + NoICE + sdld,  page 67.
Hexadecimal  [32-Bits]

Area                                    Addr        Size        Decimal Bytes (Attributes)
--------------------------------        ----        ----        ------- ----- ------------
_CODE                               00000200    000030D0 =       12496. bytes (REL,CON)

      Value  Global                              Global Defined In Module
      -----  --------------------------------   ------------------------
     00001787  A$quiz_manager$1261                quiz_manager
     0000178A  A$quiz_manager$1262                quiz_manager
     0000178B  A$quiz_manager$1263                quiz_manager
     0000178C  A$quiz_manager$1264                quiz_manager
     0000178D  A$quiz_manager$1268                quiz_manager
     0000178D  C$quiz_manager.c$201$2$60          quiz_manager
     00001790  A$quiz_manager$1269                quiz_manager
     00001791  A$quiz_manager$1270                quiz_manager
     00001794  A$quiz_manager$1271                quiz_manager
     00001795  A$quiz_manager$1272                quiz_manager
     00001796  A$quiz_manager$1273                quiz_manager
     00001797  A$quiz_manager$1274                quiz_manager
     00001799  A$quiz_manager$1275                quiz_manager
     0000179A  A$quiz_manager$1276                quiz_manager
     0000179B  A$quiz_manager$1277                quiz_manager
     0000179E  A$quiz_manager$1278                quiz_manager
     0000179F  A$quiz_manager$1279                quiz_manager
     000017A0  A$quiz_manager$1280                quiz_manager
     000017A1  A$quiz_manager$1284                quiz_manager
     000017A1  C$quiz_manager.c$202$2$60          quiz_manager
     000017A4  A$quiz_manager$1285                quiz_manager
     000017A5  A$quiz_manager$1286                quiz_manager
     000017A6  A$quiz_manager$1287                quiz_manager
     000017A9  A$quiz_manager$1288                quiz_manager
     000017AA  A$quiz_manager$1289                quiz_manager
     000017AB  A$quiz_manager$1290                quiz_manager
     000017AC  A$quiz_manager$1291                quiz_manager
     000017AE  A$quiz_manager$1292                quiz_manager
     000017AF  A$quiz_manager$1293                quiz_manager
     000017B0  A$quiz_manager$1294                quiz_manager
     000017B3  A$quiz_manager$1295                quiz_manager
     000017B4  A$quiz_manager$1296                quiz_manager
     000017B5  A$quiz_manager$1297                quiz_manager
     000017B6  A$quiz_manager$1301                quiz_manager
     000017B6  C$quiz_manager.c$205$2$60          quiz_manager
     000017B9  A$quiz_manager$1302                quiz_manager
     000017BA  A$quiz_manager$1303                quiz_manager
     000017BB  A$quiz_manager$1304                quiz_manager
     000017BC  A$quiz_manager$1305                quiz_manager
     000017BF  A$quiz_manager$1306                quiz_manager
     000017C1  A$quiz_manager$1307                quiz_manager
     000017C2  A$quiz_manager$1308                quiz_manager
     000017C3  A$quiz_manager$1309                quiz_manager
     000017C6  A$quiz_manager$1310                quiz_manager
     000017C7  A$quiz_manager$1311                quiz_manager
     000017C8  A$quiz_manager$1312                quiz_manager
     000017C9  A$quiz_manager$1316                quiz_manager
     000017C9  C$quiz_manager.c$206$2$60          quiz_manager
     000017CC  A$quiz_manager$1317                quiz_manager
     000017CD  A$quiz_manager$1318                quiz_manager
     000017D0  A$quiz_manager$1319                quiz_manager
ASxxxx Linker V03.00 + NoICE + sdld,  page 68.
Hexadecimal  [32-Bits]

Area                                    Addr        Size        Decimal Bytes (Attributes)
--------------------------------        ----        ----        ------- ----- ------------
_CODE                               00000200    000030D0 =       12496. bytes (REL,CON)

      Value  Global                              Global Defined In Module
      -----  --------------------------------   ------------------------
     000017D1  A$quiz_manager$1320                quiz_manager
     000017D2  A$quiz_manager$1321                quiz_manager
     000017D3  A$quiz_manager$1322                quiz_manager
     000017D5  A$quiz_manager$1323                quiz_manager
     000017D6  A$quiz_manager$1324                quiz_manager
     000017D7  A$quiz_manager$1325                quiz_manager
     000017DA  A$quiz_manager$1326                quiz_manager
     000017DB  A$quiz_manager$1327                quiz_manager
     000017DC  A$quiz_manager$1328                quiz_manager
     000017DD  A$quiz_manager$1332                quiz_manager
     000017DD  C$quiz_manager.c$207$2$60          quiz_manager
     000017E0  A$quiz_manager$1333                quiz_manager
     000017E1  A$quiz_manager$1334                quiz_manager
     000017E2  A$quiz_manager$1335                quiz_manager
     000017E5  A$quiz_manager$1336                quiz_manager
     000017E6  A$quiz_manager$1337                quiz_manager
     000017E7  A$quiz_manager$1338                quiz_manager
     000017E8  A$quiz_manager$1339                quiz_manager
     000017EA  A$quiz_manager$1340                quiz_manager
     000017EB  A$quiz_manager$1341                quiz_manager
     000017EC  A$quiz_manager$1342                quiz_manager
     000017EF  A$quiz_manager$1343                quiz_manager
     000017F0  A$quiz_manager$1344                quiz_manager
     000017F1  A$quiz_manager$1345                quiz_manager
     000017F2  A$quiz_manager$1349                quiz_manager
     000017F2  C$quiz_manager.c$210$2$60          quiz_manager
     000017F5  A$quiz_manager$1350                quiz_manager
     000017F6  A$quiz_manager$1351                quiz_manager
     000017F7  A$quiz_manager$1352                quiz_manager
     000017F8  A$quiz_manager$1353                quiz_manager
     000017FB  A$quiz_manager$1354                quiz_manager
     000017FD  A$quiz_manager$1355                quiz_manager
     000017FE  A$quiz_manager$1356                quiz_manager
     000017FF  A$quiz_manager$1357                quiz_manager
     00001802  A$quiz_manager$1358                quiz_manager
     00001803  A$quiz_manager$1359                quiz_manager
     00001804  A$quiz_manager$1360                quiz_manager
     00001805  A$quiz_manager$1364                quiz_manager
     00001805  C$quiz_manager.c$211$2$60          quiz_manager
     00001808  A$quiz_manager$1365                quiz_manager
     00001809  A$quiz_manager$1366                quiz_manager
     0000180C  A$quiz_manager$1367                quiz_manager
     0000180D  A$quiz_manager$1368                quiz_manager
     0000180E  A$quiz_manager$1369                quiz_manager
     0000180F  A$quiz_manager$1370                quiz_manager
     00001811  A$quiz_manager$1371                quiz_manager
     00001812  A$quiz_manager$1372                quiz_manager
     00001813  A$quiz_manager$1373                quiz_manager
     00001816  A$quiz_manager$1374                quiz_manager
     00001817  A$quiz_manager$1375                quiz_manager
     00001818  A$quiz_manager$1376                quiz_manager
ASxxxx Linker V03.00 + NoICE + sdld,  page 69.
Hexadecimal  [32-Bits]

Area                                    Addr        Size        Decimal Bytes (Attributes)
--------------------------------        ----        ----        ------- ----- ------------
_CODE                               00000200    000030D0 =       12496. bytes (REL,CON)

      Value  Global                              Global Defined In Module
      -----  --------------------------------   ------------------------
     00001819  A$quiz_manager$1380                quiz_manager
     00001819  C$quiz_manager.c$212$2$60          quiz_manager
     0000181C  A$quiz_manager$1381                quiz_manager
     0000181D  A$quiz_manager$1382                quiz_manager
     0000181E  A$quiz_manager$1383                quiz_manager
     00001821  A$quiz_manager$1384                quiz_manager
     00001822  A$quiz_manager$1385                quiz_manager
     00001823  A$quiz_manager$1386                quiz_manager
     00001824  A$quiz_manager$1387                quiz_manager
     00001826  A$quiz_manager$1388                quiz_manager
     00001827  A$quiz_manager$1389                quiz_manager
     00001828  A$quiz_manager$1390                quiz_manager
     0000182B  A$quiz_manager$1391                quiz_manager
     0000182C  A$quiz_manager$1392                quiz_manager
     0000182D  A$quiz_manager$1393                quiz_manager
     00001830  A$quiz_manager$1398                quiz_manager
     00001830  C$quiz_manager.c$214$1$57          quiz_manager
     00001833  A$quiz_manager$1399                quiz_manager
     00001835  A$quiz_manager$1400                quiz_manager
     00001838  A$quiz_manager$1404                quiz_manager
     00001838  C$quiz_manager.c$217$2$61          quiz_manager
     0000183B  A$quiz_manager$1405                quiz_manager
     0000183D  A$quiz_manager$1406                quiz_manager
     0000183E  A$quiz_manager$1407                quiz_manager
     0000183F  A$quiz_manager$1408                quiz_manager
     00001840  A$quiz_manager$1409                quiz_manager
     00001841  A$quiz_manager$1410                quiz_manager
     00001842  A$quiz_manager$1411                quiz_manager
     00001843  A$quiz_manager$1412                quiz_manager
     00001844  A$quiz_manager$1413                quiz_manager
     00001845  A$quiz_manager$1414                quiz_manager
     00001846  A$quiz_manager$1415                quiz_manager
     00001847  A$quiz_manager$1416                quiz_manager
     00001848  A$quiz_manager$1417                quiz_manager
     00001849  A$quiz_manager$1418                quiz_manager
     0000184C  A$quiz_manager$1419                quiz_manager
     0000184D  A$quiz_manager$1420                quiz_manager
     0000184E  A$quiz_manager$1421                quiz_manager
     00001851  A$quiz_manager$1422                quiz_manager
     00001852  A$quiz_manager$1423                quiz_manager
     00001853  A$quiz_manager$1424                quiz_manager
     00001856  A$quiz_manager$1425                quiz_manager
     00001857  A$quiz_manager$1426                quiz_manager
     00001858  A$quiz_manager$1427                quiz_manager
     00001859  A$quiz_manager$1431                quiz_manager
     00001859  C$quiz_manager.c$218$2$61          quiz_manager
     0000185C  A$quiz_manager$1432                quiz_manager
     0000185D  A$quiz_manager$1433                quiz_manager
     0000185E  A$quiz_manager$1434                quiz_manager
     00001861  A$quiz_manager$1435                quiz_manager
     00001862  A$quiz_manager$1436                quiz_manager
ASxxxx Linker V03.00 + NoICE + sdld,  page 70.
Hexadecimal  [32-Bits]

Area                                    Addr        Size        Decimal Bytes (Attributes)
--------------------------------        ----        ----        ------- ----- ------------
_CODE                               00000200    000030D0 =       12496. bytes (REL,CON)

      Value  Global                              Global Defined In Module
      -----  --------------------------------   ------------------------
     00001863  A$quiz_manager$1437                quiz_manager
     00001866  A$quiz_manager$1438                quiz_manager
     00001867  A$quiz_manager$1439                quiz_manager
     00001868  A$quiz_manager$1440                quiz_manager
     00001869  A$quiz_manager$1444                quiz_manager
     00001869  C$quiz_manager.c$219$2$61          quiz_manager
     0000186C  A$quiz_manager$1445                quiz_manager
     0000186D  A$quiz_manager$1446                quiz_manager
     00001870  A$quiz_manager$1447                quiz_manager
     00001871  A$quiz_manager$1448                quiz_manager
     00001872  A$quiz_manager$1449                quiz_manager
     00001875  A$quiz_manager$1450                quiz_manager
     00001876  A$quiz_manager$1451                quiz_manager
     00001877  A$quiz_manager$1455                quiz_manager
     00001877  C$quiz_manager.c$222$2$61          quiz_manager
     0000187A  A$quiz_manager$1456                quiz_manager
     0000187C  A$quiz_manager$1457                quiz_manager
     0000187D  A$quiz_manager$1458                quiz_manager
     0000187E  A$quiz_manager$1459                quiz_manager
     0000187F  A$quiz_manager$1460                quiz_manager
     00001880  A$quiz_manager$1461                quiz_manager
     00001881  A$quiz_manager$1462                quiz_manager
     00001882  A$quiz_manager$1463                quiz_manager
     00001883  A$quiz_manager$1464                quiz_manager
     00001884  A$quiz_manager$1465                quiz_manager
     00001885  A$quiz_manager$1466                quiz_manager
     00001888  A$quiz_manager$1467                quiz_manager
     00001889  A$quiz_manager$1468                quiz_manager
     0000188A  A$quiz_manager$1469                quiz_manager
     0000188B  A$quiz_manager$1470                quiz_manager
     0000188E  A$quiz_manager$1471                quiz_manager
     00001890  A$quiz_manager$1472                quiz_manager
     00001891  A$quiz_manager$1473                quiz_manager
     00001892  A$quiz_manager$1474                quiz_manager
     00001895  A$quiz_manager$1475                quiz_manager
     00001896  A$quiz_manager$1476                quiz_manager
     00001897  A$quiz_manager$1477                quiz_manager
     00001898  A$quiz_manager$1481                quiz_manager
     00001898  C$quiz_manager.c$223$2$61          quiz_manager
     0000189B  A$quiz_manager$1482                quiz_manager
     0000189C  A$quiz_manager$1483                quiz_manager
     0000189F  A$quiz_manager$1484                quiz_manager
     000018A0  A$quiz_manager$1485                quiz_manager
     000018A1  A$quiz_manager$1486                quiz_manager
     000018A2  A$quiz_manager$1487                quiz_manager
     000018A4  A$quiz_manager$1488                quiz_manager
     000018A5  A$quiz_manager$1489                quiz_manager
     000018A6  A$quiz_manager$1490                quiz_manager
     000018A9  A$quiz_manager$1491                quiz_manager
     000018AA  A$quiz_manager$1492                quiz_manager
     000018AB  A$quiz_manager$1493                quiz_manager
ASxxxx Linker V03.00 + NoICE + sdld,  page 71.
Hexadecimal  [32-Bits]

Area                                    Addr        Size        Decimal Bytes (Attributes)
--------------------------------        ----        ----        ------- ----- ------------
_CODE                               00000200    000030D0 =       12496. bytes (REL,CON)

      Value  Global                              Global Defined In Module
      -----  --------------------------------   ------------------------
     000018AC  A$quiz_manager$1497                quiz_manager
     000018AC  C$quiz_manager.c$224$2$61          quiz_manager
     000018AF  A$quiz_manager$1498                quiz_manager
     000018B0  A$quiz_manager$1499                quiz_manager
     000018B1  A$quiz_manager$1500                quiz_manager
     000018B4  A$quiz_manager$1501                quiz_manager
     000018B5  A$quiz_manager$1502                quiz_manager
     000018B6  A$quiz_manager$1503                quiz_manager
     000018B7  A$quiz_manager$1504                quiz_manager
     000018B9  A$quiz_manager$1505                quiz_manager
     000018BA  A$quiz_manager$1506                quiz_manager
     000018BB  A$quiz_manager$1507                quiz_manager
     000018BE  A$quiz_manager$1508                quiz_manager
     000018BF  A$quiz_manager$1509                quiz_manager
     000018C0  A$quiz_manager$1510                quiz_manager
     000018C1  A$quiz_manager$1514                quiz_manager
     000018C1  C$quiz_manager.c$227$2$61          quiz_manager
     000018C4  A$quiz_manager$1515                quiz_manager
     000018C5  A$quiz_manager$1516                quiz_manager
     000018C6  A$quiz_manager$1517                quiz_manager
     000018C7  A$quiz_manager$1518                quiz_manager
     000018CA  A$quiz_manager$1519                quiz_manager
     000018CC  A$quiz_manager$1520                quiz_manager
     000018CD  A$quiz_manager$1521                quiz_manager
     000018CE  A$quiz_manager$1522                quiz_manager
     000018D1  A$quiz_manager$1523                quiz_manager
     000018D2  A$quiz_manager$1524                quiz_manager
     000018D3  A$quiz_manager$1525                quiz_manager
     000018D4  A$quiz_manager$1529                quiz_manager
     000018D4  C$quiz_manager.c$228$2$61          quiz_manager
     000018D7  A$quiz_manager$1530                quiz_manager
     000018D8  A$quiz_manager$1531                quiz_manager
     000018DB  A$quiz_manager$1532                quiz_manager
     000018DC  A$quiz_manager$1533                quiz_manager
     000018DD  A$quiz_manager$1534                quiz_manager
     000018DE  A$quiz_manager$1535                quiz_manager
     000018E0  A$quiz_manager$1536                quiz_manager
     000018E1  A$quiz_manager$1537                quiz_manager
     000018E2  A$quiz_manager$1538                quiz_manager
     000018E5  A$quiz_manager$1539                quiz_manager
     000018E6  A$quiz_manager$1540                quiz_manager
     000018E7  A$quiz_manager$1541                quiz_manager
     000018E8  A$quiz_manager$1545                quiz_manager
     000018E8  C$quiz_manager.c$229$2$61          quiz_manager
     000018EB  A$quiz_manager$1546                quiz_manager
     000018EC  A$quiz_manager$1547                quiz_manager
     000018ED  A$quiz_manager$1548                quiz_manager
     000018F0  A$quiz_manager$1549                quiz_manager
     000018F1  A$quiz_manager$1550                quiz_manager
     000018F2  A$quiz_manager$1551                quiz_manager
     000018F3  A$quiz_manager$1552                quiz_manager
ASxxxx Linker V03.00 + NoICE + sdld,  page 72.
Hexadecimal  [32-Bits]

Area                                    Addr        Size        Decimal Bytes (Attributes)
--------------------------------        ----        ----        ------- ----- ------------
_CODE                               00000200    000030D0 =       12496. bytes (REL,CON)

      Value  Global                              Global Defined In Module
      -----  --------------------------------   ------------------------
     000018F5  A$quiz_manager$1553                quiz_manager
     000018F6  A$quiz_manager$1554                quiz_manager
     000018F7  A$quiz_manager$1555                quiz_manager
     000018FA  A$quiz_manager$1556                quiz_manager
     000018FB  A$quiz_manager$1557                quiz_manager
     000018FC  A$quiz_manager$1558                quiz_manager
     000018FD  A$quiz_manager$1562                quiz_manager
     000018FD  C$quiz_manager.c$232$2$61          quiz_manager
     00001900  A$quiz_manager$1563                quiz_manager
     00001901  A$quiz_manager$1564                quiz_manager
     00001902  A$quiz_manager$1565                quiz_manager
     00001903  A$quiz_manager$1566                quiz_manager
     00001906  A$quiz_manager$1567                quiz_manager
     00001908  A$quiz_manager$1568                quiz_manager
     00001909  A$quiz_manager$1569                quiz_manager
     0000190A  A$quiz_manager$1570                quiz_manager
     0000190D  A$quiz_manager$1571                quiz_manager
     0000190E  A$quiz_manager$1572                quiz_manager
     0000190F  A$quiz_manager$1573                quiz_manager
     00001910  A$quiz_manager$1577                quiz_manager
     00001910  C$quiz_manager.c$233$2$61          quiz_manager
     00001913  A$quiz_manager$1578                quiz_manager
     00001914  A$quiz_manager$1579                quiz_manager
     00001917  A$quiz_manager$1580                quiz_manager
     00001918  A$quiz_manager$1581                quiz_manager
     00001919  A$quiz_manager$1582                quiz_manager
     0000191A  A$quiz_manager$1583                quiz_manager
     0000191C  A$quiz_manager$1584                quiz_manager
     0000191D  A$quiz_manager$1585                quiz_manager
     0000191E  A$quiz_manager$1586                quiz_manager
     00001921  A$quiz_manager$1587                quiz_manager
     00001922  A$quiz_manager$1588                quiz_manager
     00001923  A$quiz_manager$1589                quiz_manager
     00001924  A$quiz_manager$1593                quiz_manager
     00001924  C$quiz_manager.c$234$2$61          quiz_manager
     00001927  A$quiz_manager$1594                quiz_manager
     00001928  A$quiz_manager$1595                quiz_manager
     00001929  A$quiz_manager$1596                quiz_manager
     0000192C  A$quiz_manager$1597                quiz_manager
     0000192D  A$quiz_manager$1598                quiz_manager
     0000192E  A$quiz_manager$1599                quiz_manager
     0000192F  A$quiz_manager$1600                quiz_manager
     00001931  A$quiz_manager$1601                quiz_manager
     00001932  A$quiz_manager$1602                quiz_manager
     00001933  A$quiz_manager$1603                quiz_manager
     00001936  A$quiz_manager$1604                quiz_manager
     00001937  A$quiz_manager$1605                quiz_manager
     00001938  A$quiz_manager$1606                quiz_manager
     00001939  A$quiz_manager$1610                quiz_manager
     00001939  C$quiz_manager.c$237$2$61          quiz_manager
     0000193C  A$quiz_manager$1611                quiz_manager
ASxxxx Linker V03.00 + NoICE + sdld,  page 73.
Hexadecimal  [32-Bits]

Area                                    Addr        Size        Decimal Bytes (Attributes)
--------------------------------        ----        ----        ------- ----- ------------
_CODE                               00000200    000030D0 =       12496. bytes (REL,CON)

      Value  Global                              Global Defined In Module
      -----  --------------------------------   ------------------------
     0000193D  A$quiz_manager$1612                quiz_manager
     0000193E  A$quiz_manager$1613                quiz_manager
     0000193F  A$quiz_manager$1614                quiz_manager
     00001942  A$quiz_manager$1615                quiz_manager
     00001944  A$quiz_manager$1616                quiz_manager
     00001945  A$quiz_manager$1617                quiz_manager
     00001946  A$quiz_manager$1618                quiz_manager
     00001949  A$quiz_manager$1619                quiz_manager
     0000194A  A$quiz_manager$1620                quiz_manager
     0000194B  A$quiz_manager$1621                quiz_manager
     0000194C  A$quiz_manager$1625                quiz_manager
     0000194C  C$quiz_manager.c$238$2$61          quiz_manager
     0000194F  A$quiz_manager$1626                quiz_manager
     00001950  A$quiz_manager$1627                quiz_manager
     00001953  A$quiz_manager$1628                quiz_manager
     00001954  A$quiz_manager$1629                quiz_manager
     00001955  A$quiz_manager$1630                quiz_manager
     00001956  A$quiz_manager$1631                quiz_manager
     00001958  A$quiz_manager$1632                quiz_manager
     00001959  A$quiz_manager$1633                quiz_manager
     0000195A  A$quiz_manager$1634                quiz_manager
     0000195D  A$quiz_manager$1635                quiz_manager
     0000195E  A$quiz_manager$1636                quiz_manager
     0000195F  A$quiz_manager$1637                quiz_manager
     00001960  A$quiz_manager$1641                quiz_manager
     00001960  C$quiz_manager.c$239$2$61          quiz_manager
     00001963  A$quiz_manager$1642                quiz_manager
     00001964  A$quiz_manager$1643                quiz_manager
     00001965  A$quiz_manager$1644                quiz_manager
     00001968  A$quiz_manager$1645                quiz_manager
     00001969  A$quiz_manager$1646                quiz_manager
     0000196A  A$quiz_manager$1647                quiz_manager
     0000196B  A$quiz_manager$1648                quiz_manager
     0000196D  A$quiz_manager$1649                quiz_manager
     0000196E  A$quiz_manager$1650                quiz_manager
     0000196F  A$quiz_manager$1651                quiz_manager
     00001972  A$quiz_manager$1652                quiz_manager
     00001973  A$quiz_manager$1653                quiz_manager
     00001974  A$quiz_manager$1655                quiz_manager
     00001976  A$quiz_manager$1656                quiz_manager
     00001978  A$quiz_manager$1661                quiz_manager
     00001978  C$quiz_manager.c$241$1$57          quiz_manager
     00001978  XG$engine_quiz_manager_load$0$0    quiz_manager
     00001979  A$quiz_manager$1671                quiz_manager
     00001979  C$quiz_manager.c$243$1$57          quiz_manager
     00001979  Fquiz_manager$show_diff$0$0        quiz_manager
     0000197B  A$quiz_manager$1672                quiz_manager
     0000197F  A$quiz_manager$1673                quiz_manager
     00001981  A$quiz_manager$1677                quiz_manager
     00001981  C$quiz_manager.c$245$1$63          quiz_manager
     00001984  A$quiz_manager$1678                quiz_manager
ASxxxx Linker V03.00 + NoICE + sdld,  page 74.
Hexadecimal  [32-Bits]

Area                                    Addr        Size        Decimal Bytes (Attributes)
--------------------------------        ----        ----        ------- ----- ------------
_CODE                               00000200    000030D0 =       12496. bytes (REL,CON)

      Value  Global                              Global Defined In Module
      -----  --------------------------------   ------------------------
     00001985  A$quiz_manager$1682                quiz_manager
     00001985  C$quiz_manager.c$247$2$64          quiz_manager
     00001987  A$quiz_manager$1686                quiz_manager
     00001987  C$quiz_manager.c$251$1$63          quiz_manager
     0000198A  A$quiz_manager$1687                quiz_manager
     0000198D  A$quiz_manager$1688                quiz_manager
     0000198E  A$quiz_manager$1689                quiz_manager
     00001991  A$quiz_manager$1690                quiz_manager
     00001992  A$quiz_manager$1691                quiz_manager
     00001995  A$quiz_manager$1692                quiz_manager
     00001996  A$quiz_manager$1693                quiz_manager
     00001997  A$quiz_manager$1697                quiz_manager
     00001997  C$quiz_manager.c$252$1$63          quiz_manager
     0000199A  A$quiz_manager$1698                quiz_manager
     0000199C  A$quiz_manager$1699                quiz_manager
     0000199D  A$quiz_manager$1700                quiz_manager
     000019A0  A$quiz_manager$1701                quiz_manager
     000019A1  A$quiz_manager$1702                quiz_manager
     000019A2  A$quiz_manager$1703                quiz_manager
     000019A3  A$quiz_manager$1704                quiz_manager
     000019A4  A$quiz_manager$1705                quiz_manager
     000019A7  A$quiz_manager$1706                quiz_manager
     000019A8  A$quiz_manager$1707                quiz_manager
     000019AB  A$quiz_manager$1708                quiz_manager
     000019AC  A$quiz_manager$1709                quiz_manager
     000019AD  A$quiz_manager$1713                quiz_manager
     000019AD  C$quiz_manager.c$253$1$63          quiz_manager
     000019B0  A$quiz_manager$1714                quiz_manager
     000019B1  A$quiz_manager$1715                quiz_manager
     000019B5  A$quiz_manager$1716                quiz_manager
     000019B7  A$quiz_manager$1717                quiz_manager
     000019B8  A$quiz_manager$1718                quiz_manager
     000019B9  A$quiz_manager$1719                quiz_manager
     000019BA  A$quiz_manager$1720                quiz_manager
     000019BB  A$quiz_manager$1721                quiz_manager
     000019BC  A$quiz_manager$1722                quiz_manager
     000019BF  A$quiz_manager$1723                quiz_manager
     000019C0  A$quiz_manager$1724                quiz_manager
     000019C1  A$quiz_manager$1725                quiz_manager
     000019C2  A$quiz_manager$1726                quiz_manager
     000019C5  A$quiz_manager$1727                quiz_manager
     000019C6  A$quiz_manager$1728                quiz_manager
     000019C7  A$quiz_manager$1729                quiz_manager
     000019C8  A$quiz_manager$1730                quiz_manager
     000019C9  A$quiz_manager$1731                quiz_manager
     000019CA  A$quiz_manager$1732                quiz_manager
     000019CD  A$quiz_manager$1733                quiz_manager
     000019CE  A$quiz_manager$1734                quiz_manager
     000019CF  A$quiz_manager$1736                quiz_manager
     000019D1  A$quiz_manager$1741                quiz_manager
     000019D1  C$quiz_manager.c$254$1$63          quiz_manager
ASxxxx Linker V03.00 + NoICE + sdld,  page 75.
Hexadecimal  [32-Bits]

Area                                    Addr        Size        Decimal Bytes (Attributes)
--------------------------------        ----        ----        ------- ----- ------------
_CODE                               00000200    000030D0 =       12496. bytes (REL,CON)

      Value  Global                              Global Defined In Module
      -----  --------------------------------   ------------------------
     000019D1  XFquiz_manager$show_diff$0$0       quiz_manager
     000019D2  Fquiz_manager$__str_6$0$0          quiz_manager
     000019D4  Fquiz_manager$__str_7$0$0          quiz_manager
     000019D6  A$random_manager$57                random_manager
     000019D6  C$random_manager.c$14$0$0          random_manager
     000019D6  C$random_manager.c$18$3$29         random_manager
     000019D6  G$engine_random_manager_init$0$0   random_manager
     000019D6  _engine_random_manager_init        random_manager
     000019D9  A$random_manager$58                random_manager
     000019DB  A$random_manager$63                random_manager
     000019DB  C$random_manager.c$20$3$29         random_manager
     000019DC  A$random_manager$64                random_manager
     000019DE  A$random_manager$65                random_manager
     000019DF  A$random_manager$66                random_manager
     000019E1  A$random_manager$70                random_manager
     000019E1  C$random_manager.c$18$2$28         random_manager
     000019E2  A$random_manager$71                random_manager
     000019E3  A$random_manager$72                random_manager
     000019E5  A$random_manager$73                random_manager
     000019E7  A$random_manager$77                random_manager
     000019E7  C$random_manager.c$23$5$33         random_manager
     000019E9  A$random_manager$82                random_manager
     000019E9  C$random_manager.c$25$2$30         random_manager
     000019EB  A$random_manager$87                random_manager
     000019EB  C$random_manager.c$27$5$33         random_manager
     000019EC  A$random_manager$88                random_manager
     000019EE  A$random_manager$89                random_manager
     000019EF  A$random_manager$90                random_manager
     000019F0  A$random_manager$91                random_manager
     000019F3  A$random_manager$92                random_manager
     000019F4  A$random_manager$93                random_manager
     000019F5  A$random_manager$94                random_manager
     000019F7  A$random_manager$95                random_manager
     000019F8  A$random_manager$96                random_manager
     000019FA  A$random_manager$100               random_manager
     000019FA  C$random_manager.c$25$4$32         random_manager
     000019FB  A$random_manager$101               random_manager
     000019FC  A$random_manager$102               random_manager
     000019FE  A$random_manager$103               random_manager
     00001A00  A$random_manager$107               random_manager
     00001A00  C$random_manager.c$23$2$30         random_manager
     00001A01  A$random_manager$108               random_manager
     00001A02  A$random_manager$109               random_manager
     00001A04  A$random_manager$110               random_manager
     00001A06  A$random_manager$115               random_manager
     00001A06  C$random_manager.c$30$2$30         random_manager
     00001A06  XG$engine_random_manager_init$0$   random_manager
     00001A07  A$random_manager$128               random_manager
     00001A07  C$random_manager.c$32$2$30         random_manager
     00001A07  C$random_manager.c$34$1$34         random_manager
     00001A07  G$engine_random_manager_load$0$0   random_manager
ASxxxx Linker V03.00 + NoICE + sdld,  page 76.
Hexadecimal  [32-Bits]

Area                                    Addr        Size        Decimal Bytes (Attributes)
--------------------------------        ----        ----        ------- ----- ------------
_CODE                               00000200    000030D0 =       12496. bytes (REL,CON)

      Value  Global                              Global Defined In Module
      -----  --------------------------------   ------------------------
     00001A07  _engine_random_manager_load        random_manager
     00001A0A  A$random_manager$129               random_manager
     00001A0B  A$random_manager$133               random_manager
     00001A0B  C$random_manager.c$36$2$35         random_manager
     00001A0E  A$random_manager$137               random_manager
     00001A0E  C$random_manager.c$38$1$34         random_manager
     00001A11  A$random_manager$138               random_manager
     00001A13  A$random_manager$142               random_manager
     00001A13  C$random_manager.c$40$2$36         random_manager
     00001A16  A$random_manager$150               random_manager
     00001A16  C$random_manager.c$44$2$37         random_manager
     00001A16  C$random_manager.c$46$1$34         random_manager
     00001A16  XG$engine_random_manager_load$0$   random_manager
     00001A19  A$random_manager$163               random_manager
     00001A19  C$random_manager.c$49$1$34         random_manager
     00001A19  C$random_manager.c$54$4$41         random_manager
     00001A19  Frandom_manager$load_random$0$0    random_manager
     00001A1B  A$random_manager$168               random_manager
     00001A1B  C$random_manager.c$56$4$41         random_manager
     00001A1C  A$random_manager$169               random_manager
     00001A1F  A$random_manager$170               random_manager
     00001A22  A$random_manager$171               random_manager
     00001A23  A$random_manager$172               random_manager
     00001A24  A$random_manager$173               random_manager
     00001A27  A$random_manager$174               random_manager
     00001A28  A$random_manager$175               random_manager
     00001A29  A$random_manager$176               random_manager
     00001A2A  A$random_manager$177               random_manager
     00001A2B  A$random_manager$181               random_manager
     00001A2B  C$random_manager.c$57$4$41         random_manager
     00001A2E  A$random_manager$182               random_manager
     00001A30  A$random_manager$183               random_manager
     00001A31  A$random_manager$184               random_manager
     00001A32  A$random_manager$185               random_manager
     00001A33  A$random_manager$186               random_manager
     00001A35  A$random_manager$190               random_manager
     00001A35  C$random_manager.c$59$5$42         random_manager
     00001A36  A$random_manager$194               random_manager
     00001A36  C$random_manager.c$52$2$39         random_manager
     00001A37  A$random_manager$195               random_manager
     00001A38  A$random_manager$196               random_manager
     00001A3A  A$random_manager$197               random_manager
     00001A3C  A$random_manager$201               random_manager
     00001A3C  C$random_manager.c$65$6$47         random_manager
     00001A3E  A$random_manager$206               random_manager
     00001A3E  C$random_manager.c$69$2$43         random_manager
     00001A40  A$random_manager$211               random_manager
     00001A40  C$random_manager.c$71$6$47         random_manager
     00001A41  A$random_manager$212               random_manager
     00001A44  A$random_manager$213               random_manager
     00001A47  A$random_manager$214               random_manager
ASxxxx Linker V03.00 + NoICE + sdld,  page 77.
Hexadecimal  [32-Bits]

Area                                    Addr        Size        Decimal Bytes (Attributes)
--------------------------------        ----        ----        ------- ----- ------------
_CODE                               00000200    000030D0 =       12496. bytes (REL,CON)

      Value  Global                              Global Defined In Module
      -----  --------------------------------   ------------------------
     00001A48  A$random_manager$215               random_manager
     00001A49  A$random_manager$216               random_manager
     00001A4C  A$random_manager$217               random_manager
     00001A4D  A$random_manager$218               random_manager
     00001A4E  A$random_manager$219               random_manager
     00001A4F  A$random_manager$220               random_manager
     00001A50  A$random_manager$224               random_manager
     00001A50  C$random_manager.c$72$6$47         random_manager
     00001A51  A$random_manager$225               random_manager
     00001A53  A$random_manager$226               random_manager
     00001A54  A$random_manager$227               random_manager
     00001A55  A$random_manager$228               random_manager
     00001A57  A$random_manager$229               random_manager
     00001A58  A$random_manager$230               random_manager
     00001A59  A$random_manager$231               random_manager
     00001A5B  A$random_manager$232               random_manager
     00001A5C  A$random_manager$233               random_manager
     00001A5D  A$random_manager$234               random_manager
     00001A5F  A$random_manager$235               random_manager
     00001A60  A$random_manager$236               random_manager
     00001A61  A$random_manager$237               random_manager
     00001A62  A$random_manager$238               random_manager
     00001A64  A$random_manager$242               random_manager
     00001A64  C$random_manager.c$74$7$48         random_manager
     00001A65  A$random_manager$246               random_manager
     00001A65  C$random_manager.c$67$4$45         random_manager
     00001A66  A$random_manager$247               random_manager
     00001A67  A$random_manager$248               random_manager
     00001A69  A$random_manager$249               random_manager
     00001A6B  A$random_manager$253               random_manager
     00001A6B  C$random_manager.c$65$2$43         random_manager
     00001A6C  A$random_manager$254               random_manager
     00001A6D  A$random_manager$255               random_manager
     00001A6F  A$random_manager$256               random_manager
     00001A71  A$random_manager$261               random_manager
     00001A71  C$random_manager.c$80$2$43         random_manager
     00001A71  XFrandom_manager$load_random$0$0   random_manager
     00001A72  A$random_manager$274               random_manager
     00001A72  C$random_manager.c$82$2$43         random_manager
     00001A72  C$random_manager.c$85$3$51         random_manager
     00001A72  Frandom_manager$load_normal$0$0    random_manager
     00001A75  A$random_manager$275               random_manager
     00001A77  A$random_manager$280               random_manager
     00001A77  C$random_manager.c$87$3$51         random_manager
     00001A78  A$random_manager$281               random_manager
     00001A7A  A$random_manager$282               random_manager
     00001A7B  A$random_manager$283               random_manager
     00001A7C  A$random_manager$287               random_manager
     00001A7C  C$random_manager.c$85$2$50         random_manager
     00001A7D  A$random_manager$288               random_manager
     00001A7E  A$random_manager$289               random_manager
ASxxxx Linker V03.00 + NoICE + sdld,  page 78.
Hexadecimal  [32-Bits]

Area                                    Addr        Size        Decimal Bytes (Attributes)
--------------------------------        ----        ----        ------- ----- ------------
_CODE                               00000200    000030D0 =       12496. bytes (REL,CON)

      Value  Global                              Global Defined In Module
      -----  --------------------------------   ------------------------
     00001A80  A$random_manager$290               random_manager
     00001A82  A$random_manager$294               random_manager
     00001A82  C$random_manager.c$90$5$55         random_manager
     00001A84  A$random_manager$299               random_manager
     00001A84  C$random_manager.c$92$2$52         random_manager
     00001A86  A$random_manager$304               random_manager
     00001A86  C$random_manager.c$94$5$55         random_manager
     00001A87  A$random_manager$305               random_manager
     00001A89  A$random_manager$306               random_manager
     00001A8A  A$random_manager$307               random_manager
     00001A8B  A$random_manager$308               random_manager
     00001A8E  A$random_manager$309               random_manager
     00001A8F  A$random_manager$310               random_manager
     00001A90  A$random_manager$311               random_manager
     00001A92  A$random_manager$312               random_manager
     00001A93  A$random_manager$313               random_manager
     00001A94  A$random_manager$317               random_manager
     00001A94  C$random_manager.c$92$4$54         random_manager
     00001A95  A$random_manager$318               random_manager
     00001A96  A$random_manager$319               random_manager
     00001A98  A$random_manager$320               random_manager
     00001A9A  A$random_manager$324               random_manager
     00001A9A  C$random_manager.c$90$2$52         random_manager
     00001A9B  A$random_manager$325               random_manager
     00001A9C  A$random_manager$326               random_manager
     00001A9E  A$random_manager$327               random_manager
     00001AA0  A$random_manager$332               random_manager
     00001AA0  C$random_manager.c$97$2$52         random_manager
     00001AA0  XFrandom_manager$load_normal$0$0   random_manager
     00001AA1  A$random_manager$345               random_manager
     00001AA1  C$random_manager.c$102$3$58        random_manager
     00001AA1  C$random_manager.c$99$2$52         random_manager
     00001AA1  Frandom_manager$load_mixed$0$0     random_manager
     00001AA4  A$random_manager$346               random_manager
     00001AA6  A$random_manager$351               random_manager
     00001AA6  C$random_manager.c$104$3$58        random_manager
     00001AA7  A$random_manager$352               random_manager
     00001AA9  A$random_manager$353               random_manager
     00001AAA  A$random_manager$354               random_manager
     00001AAB  A$random_manager$358               random_manager
     00001AAB  C$random_manager.c$102$2$57        random_manager
     00001AAC  A$random_manager$359               random_manager
     00001AAD  A$random_manager$360               random_manager
     00001AAF  A$random_manager$361               random_manager
     00001AB1  A$random_manager$365               random_manager
     00001AB1  C$random_manager.c$107$6$63        random_manager
     00001AB3  A$random_manager$370               random_manager
     00001AB3  C$random_manager.c$111$2$59        random_manager
     00001AB5  A$random_manager$375               random_manager
     00001AB5  C$random_manager.c$113$6$63        random_manager
     00001AB6  A$random_manager$376               random_manager
ASxxxx Linker V03.00 + NoICE + sdld,  page 79.
Hexadecimal  [32-Bits]

Area                                    Addr        Size        Decimal Bytes (Attributes)
--------------------------------        ----        ----        ------- ----- ------------
_CODE                               00000200    000030D0 =       12496. bytes (REL,CON)

      Value  Global                              Global Defined In Module
      -----  --------------------------------   ------------------------
     00001AB9  A$random_manager$377               random_manager
     00001ABC  A$random_manager$378               random_manager
     00001ABD  A$random_manager$379               random_manager
     00001ABE  A$random_manager$380               random_manager
     00001AC1  A$random_manager$381               random_manager
     00001AC2  A$random_manager$382               random_manager
     00001AC3  A$random_manager$383               random_manager
     00001AC4  A$random_manager$384               random_manager
     00001AC5  A$random_manager$388               random_manager
     00001AC5  C$random_manager.c$114$6$63        random_manager
     00001AC6  A$random_manager$389               random_manager
     00001AC8  A$random_manager$390               random_manager
     00001AC9  A$random_manager$391               random_manager
     00001ACA  A$random_manager$392               random_manager
     00001ACC  A$random_manager$393               random_manager
     00001ACD  A$random_manager$394               random_manager
     00001ACE  A$random_manager$395               random_manager
     00001AD0  A$random_manager$396               random_manager
     00001AD1  A$random_manager$397               random_manager
     00001AD2  A$random_manager$398               random_manager
     00001AD4  A$random_manager$399               random_manager
     00001AD5  A$random_manager$400               random_manager
     00001AD6  A$random_manager$401               random_manager
     00001AD7  A$random_manager$402               random_manager
     00001AD9  A$random_manager$406               random_manager
     00001AD9  C$random_manager.c$116$7$64        random_manager
     00001ADA  A$random_manager$410               random_manager
     00001ADA  C$random_manager.c$109$4$61        random_manager
     00001ADB  A$random_manager$411               random_manager
     00001ADC  A$random_manager$412               random_manager
     00001ADE  A$random_manager$413               random_manager
     00001AE0  A$random_manager$417               random_manager
     00001AE0  C$random_manager.c$107$2$59        random_manager
     00001AE1  A$random_manager$418               random_manager
     00001AE2  A$random_manager$419               random_manager
     00001AE4  A$random_manager$420               random_manager
     00001AE6  A$random_manager$425               random_manager
     00001AE6  C$random_manager.c$122$2$59        random_manager
     00001AE6  XFrandom_manager$load_mixed$0$0    random_manager
     00001AE7  A$sample_manager$57                sample_manager
     00001AE7  C$sample_manager.c$15$0$0          sample_manager
     00001AE7  C$sample_manager.c$29$1$4          sample_manager
     00001AE7  G$engine_sample_manager_init$0$0   sample_manager
     00001AE7  _engine_sample_manager_init        sample_manager
     00001AEA  A$sample_manager$58                sample_manager
     00001AEC  A$sample_manager$59                sample_manager
     00001AED  A$sample_manager$87                sample_manager
     00001AED  C$sample_manager.c$163$1$6         sample_manager
     00001AED  C$sample_manager.c$32$1$4          sample_manager
     00001AED  G$engine_sample_manager_play$0$0   sample_manager
     00001AED  _engine_sample_manager_play        sample_manager
ASxxxx Linker V03.00 + NoICE + sdld,  page 80.
Hexadecimal  [32-Bits]

Area                                    Addr        Size        Decimal Bytes (Attributes)
--------------------------------        ----        ----        ------- ----- ------------
_CODE                               00000200    000030D0 =       12496. bytes (REL,CON)

      Value  Global                              Global Defined In Module
      -----  --------------------------------   ------------------------
     00001AEE  A$sample_manager$89                sample_manager
     00001AF0  A$sample_manager$90                sample_manager
     00001AF3  A$sample_manager$91                sample_manager
     00001AF6  A$sample_manager$92                sample_manager
     00001AF7  A$sample_manager$93                sample_manager
     00001AFA  A$sample_manager$95                sample_manager
     00001AFB  A$sample_manager$96                sample_manager
     00001AFE  A$sample_manager$100               sample_manager
     00001AFF  A$sample_manager$101               sample_manager
     00001B01  A$sample_manager$102               sample_manager
     00001B03  A$sample_manager$103               sample_manager
     00001B04  A$sample_manager$104               sample_manager
     00001B05  A$sample_manager$105               sample_manager
     00001B06  A$sample_manager$106               sample_manager
     00001B08  A$sample_manager$107               sample_manager
     00001B0C  A$sample_manager$111               sample_manager
     00001B0D  A$sample_manager$112               sample_manager
     00001B0F  A$sample_manager$113               sample_manager
     00001B11  A$sample_manager$114               sample_manager
     00001B12  A$sample_manager$115               sample_manager
     00001B13  A$sample_manager$116               sample_manager
     00001B14  A$sample_manager$117               sample_manager
     00001B16  A$sample_manager$118               sample_manager
     00001B1A  A$sample_manager$122               sample_manager
     00001B1B  A$sample_manager$123               sample_manager
     00001B1D  A$sample_manager$124               sample_manager
     00001B1F  A$sample_manager$125               sample_manager
     00001B20  A$sample_manager$126               sample_manager
     00001B21  A$sample_manager$127               sample_manager
     00001B22  A$sample_manager$128               sample_manager
     00001B24  A$sample_manager$129               sample_manager
     00001B26  A$sample_manager$130               sample_manager
     00001B27  A$sample_manager$133               sample_manager
     00001B2C  A$sample_manager$136               sample_manager
     00001B2D  A$sample_manager$137               sample_manager
     00001B2E  A$sample_manager$138               sample_manager
     00001B30  A$sample_manager$139               sample_manager
     00001B32  A$sample_manager$140               sample_manager
     00001B34  A$sample_manager$141               sample_manager
     00001B36  A$sample_manager$142               sample_manager
     00001B37  A$sample_manager$143               sample_manager
     00001B38  A$sample_manager$145               sample_manager
     00001B3B  A$sample_manager$147               sample_manager
     00001B41  A$sample_manager$150               sample_manager
     00001B44  A$sample_manager$152               sample_manager
     00001B46  A$sample_manager$154               sample_manager
     00001B47  A$sample_manager$155               sample_manager
     00001B48  A$sample_manager$157               sample_manager
     00001B49  A$sample_manager$158               sample_manager
     00001B4B  A$sample_manager$159               sample_manager
     00001B4D  A$sample_manager$160               sample_manager
ASxxxx Linker V03.00 + NoICE + sdld,  page 81.
Hexadecimal  [32-Bits]

Area                                    Addr        Size        Decimal Bytes (Attributes)
--------------------------------        ----        ----        ------- ----- ------------
_CODE                               00000200    000030D0 =       12496. bytes (REL,CON)

      Value  Global                              Global Defined In Module
      -----  --------------------------------   ------------------------
     00001B4F  A$sample_manager$162               sample_manager
     00001B50  A$sample_manager$163               sample_manager
     00001B52  A$sample_manager$164               sample_manager
     00001B54  A$sample_manager$165               sample_manager
     00001B56  A$sample_manager$167               sample_manager
     00001B57  A$sample_manager$168               sample_manager
     00001B59  A$sample_manager$169               sample_manager
     00001B5B  A$sample_manager$170               sample_manager
     00001B5D  A$sample_manager$173               sample_manager
     00001B5E  A$sample_manager$174               sample_manager
     00001B60  A$sample_manager$176               sample_manager
     00001B62  A$sample_manager$177               sample_manager
     00001B63  A$sample_manager$178               sample_manager
     00001B65  A$sample_manager$179               sample_manager
     00001B66  A$score_manager$63                 score_manager
     00001B66  C$score_manager.c$17$0$0           score_manager
     00001B66  C$score_manager.c$19$1$5           score_manager
     00001B66  G$engine_score_manager_init$0$0    score_manager
     00001B66  _engine_score_manager_init         score_manager
     00001B69  A$score_manager$64                 score_manager
     00001B6B  A$score_manager$69                 score_manager
     00001B6B  C$score_manager.c$20$1$5           score_manager
     00001B6B  XG$engine_score_manager_init$0$0   score_manager
     00001B6C  A$score_manager$82                 score_manager
     00001B6C  C$score_manager.c$21$1$5           score_manager
     00001B6C  C$score_manager.c$23$1$6           score_manager
     00001B6C  G$engine_score_manager_base$0$0    score_manager
     00001B6C  _engine_score_manager_base         score_manager
     00001B6F  A$score_manager$83                 score_manager
     00001B70  A$score_manager$84                 score_manager
     00001B73  A$score_manager$85                 score_manager
     00001B74  A$score_manager$86                 score_manager
     00001B77  A$score_manager$87                 score_manager
     00001B78  A$score_manager$88                 score_manager
     00001B79  A$score_manager$96                 score_manager
     00001B79  C$score_manager.c$24$1$6           score_manager
     00001B79  C$score_manager.c$25$1$6           score_manager
     00001B79  XG$engine_score_manager_base$0$0   score_manager
     00001B7C  Fscore_manager$__str_0$0$0         score_manager
     00001B82  A$score_manager$113                score_manager
     00001B82  C$score_manager.c$26$1$6           score_manager
     00001B82  C$score_manager.c$28$1$7           score_manager
     00001B82  G$engine_score_manager_update$0$   score_manager
     00001B82  _engine_score_manager_update       score_manager
     00001B85  A$score_manager$114                score_manager
     00001B86  A$score_manager$122                score_manager
     00001B86  C$score_manager.c$29$1$7           score_manager
     00001B86  C$score_manager.c$30$1$7           score_manager
     00001B86  XG$engine_score_manager_update$0   score_manager
     00001B89  A$score_manager$135                score_manager
     00001B89  C$score_manager.c$32$1$7           score_manager
ASxxxx Linker V03.00 + NoICE + sdld,  page 82.
Hexadecimal  [32-Bits]

Area                                    Addr        Size        Decimal Bytes (Attributes)
--------------------------------        ----        ----        ------- ----- ------------
_CODE                               00000200    000030D0 =       12496. bytes (REL,CON)

      Value  Global                              Global Defined In Module
      -----  --------------------------------   ------------------------
     00001B89  C$score_manager.c$34$1$8           score_manager
     00001B89  Fscore_manager$draw_score$0$0      score_manager
     00001B8C  A$score_manager$136                score_manager
     00001B8D  A$score_manager$137                score_manager
     00001B8F  A$score_manager$138                score_manager
     00001B92  A$score_manager$139                score_manager
     00001B93  A$score_manager$140                score_manager
     00001B94  A$score_manager$141                score_manager
     00001B97  A$score_manager$142                score_manager
     00001B98  A$score_manager$143                score_manager
     00001B99  A$score_manager$148                score_manager
     00001B99  C$score_manager.c$35$1$8           score_manager
     00001B99  XFscore_manager$draw_score$0$0     score_manager
     00001B9A  A$select_manager$110               select_manager
     00001B9A  C$select_manager.c$23$0$0          select_manager
     00001B9A  C$select_manager.c$26$3$12         select_manager
     00001B9A  G$engine_select_manager_init$0$0   select_manager
     00001B9A  _engine_select_manager_init        select_manager
     00001B9D  A$select_manager$111               select_manager
     00001B9F  A$select_manager$116               select_manager
     00001B9F  C$select_manager.c$28$3$12         select_manager
     00001BA0  A$select_manager$117               select_manager
     00001BA2  A$select_manager$118               select_manager
     00001BA3  A$select_manager$119               select_manager
     00001BA4  A$select_manager$120               select_manager
     00001BA5  A$select_manager$121               select_manager
     00001BA6  A$select_manager$122               select_manager
     00001BA7  A$select_manager$123               select_manager
     00001BA9  A$select_manager$124               select_manager
     00001BAB  A$select_manager$125               select_manager
     00001BAC  A$select_manager$129               select_manager
     00001BAC  C$select_manager.c$26$2$11         select_manager
     00001BAD  A$select_manager$130               select_manager
     00001BAE  A$select_manager$131               select_manager
     00001BB0  A$select_manager$132               select_manager
     00001BB2  A$select_manager$136               select_manager
     00001BB2  C$select_manager.c$31$1$10         select_manager
     00001BB5  A$select_manager$137               select_manager
     00001BB7  A$select_manager$141               select_manager
     00001BB7  C$select_manager.c$32$1$10         select_manager
     00001BBA  A$select_manager$142               select_manager
     00001BBC  A$select_manager$146               select_manager
     00001BBC  C$select_manager.c$33$1$10         select_manager
     00001BBF  A$select_manager$147               select_manager
     00001BC1  A$select_manager$151               select_manager
     00001BC1  C$select_manager.c$34$1$10         select_manager
     00001BC4  A$select_manager$152               select_manager
     00001BC6  A$select_manager$156               select_manager
     00001BC6  C$select_manager.c$35$1$10         select_manager
     00001BC7  A$select_manager$157               select_manager
     00001BCA  A$select_manager$162               select_manager
ASxxxx Linker V03.00 + NoICE + sdld,  page 83.
Hexadecimal  [32-Bits]

Area                                    Addr        Size        Decimal Bytes (Attributes)
--------------------------------        ----        ----        ------- ----- ------------
_CODE                               00000200    000030D0 =       12496. bytes (REL,CON)

      Value  Global                              Global Defined In Module
      -----  --------------------------------   ------------------------
     00001BCA  C$select_manager.c$36$1$10         select_manager
     00001BCA  XG$engine_select_manager_init$0$   select_manager
     00001BCB  A$select_manager$175               select_manager
     00001BCB  C$select_manager.c$38$1$10         select_manager
     00001BCB  C$select_manager.c$41$3$15         select_manager
     00001BCB  G$engine_select_manager_base$0$0   select_manager
     00001BCB  _engine_select_manager_base        select_manager
     00001BCD  A$select_manager$180               select_manager
     00001BCD  C$select_manager.c$43$3$15         select_manager
     00001BD0  A$select_manager$181               select_manager
     00001BD2  A$select_manager$182               select_manager
     00001BD3  A$select_manager$183               select_manager
     00001BD4  A$select_manager$184               select_manager
     00001BD5  A$select_manager$185               select_manager
     00001BD7  A$select_manager$186               select_manager
     00001BD8  A$select_manager$187               select_manager
     00001BD9  A$select_manager$188               select_manager
     00001BDA  A$select_manager$189               select_manager
     00001BDB  A$select_manager$190               select_manager
     00001BDE  A$select_manager$191               select_manager
     00001BDF  A$select_manager$192               select_manager
     00001BE0  A$select_manager$193               select_manager
     00001BE1  A$select_manager$194               select_manager
     00001BE2  A$select_manager$195               select_manager
     00001BE3  A$select_manager$196               select_manager
     00001BE5  A$select_manager$197               select_manager
     00001BE6  A$select_manager$198               select_manager
     00001BE7  A$select_manager$199               select_manager
     00001BE8  A$select_manager$200               select_manager
     00001BEB  A$select_manager$201               select_manager
     00001BEC  A$select_manager$202               select_manager
     00001BED  A$select_manager$203               select_manager
     00001BEE  A$select_manager$207               select_manager
     00001BEE  C$select_manager.c$41$2$14         select_manager
     00001BEF  A$select_manager$208               select_manager
     00001BF0  A$select_manager$209               select_manager
     00001BF2  A$select_manager$210               select_manager
     00001BF4  A$select_manager$215               select_manager
     00001BF4  C$select_manager.c$45$2$14         select_manager
     00001BF4  XG$engine_select_manager_base$0$   select_manager
     00001BF5  A$select_manager$228               select_manager
     00001BF5  C$select_manager.c$47$2$14         select_manager
     00001BF5  C$select_manager.c$50$3$18         select_manager
     00001BF5  G$engine_select_manager_clear$0$   select_manager
     00001BF5  _engine_select_manager_clear       select_manager
     00001BF7  A$select_manager$233               select_manager
     00001BF7  C$select_manager.c$52$3$18         select_manager
     00001BF8  A$select_manager$234               select_manager
     00001BF9  A$select_manager$235               select_manager
     00001BFA  A$select_manager$236               select_manager
     00001BFB  A$select_manager$237               select_manager
ASxxxx Linker V03.00 + NoICE + sdld,  page 84.
Hexadecimal  [32-Bits]

Area                                    Addr        Size        Decimal Bytes (Attributes)
--------------------------------        ----        ----        ------- ----- ------------
_CODE                               00000200    000030D0 =       12496. bytes (REL,CON)

      Value  Global                              Global Defined In Module
      -----  --------------------------------   ------------------------
     00001BFC  A$select_manager$238               select_manager
     00001BFD  A$select_manager$239               select_manager
     00001C00  A$select_manager$240               select_manager
     00001C01  A$select_manager$241               select_manager
     00001C04  A$select_manager$242               select_manager
     00001C05  A$select_manager$243               select_manager
     00001C06  A$select_manager$244               select_manager
     00001C07  A$select_manager$248               select_manager
     00001C07  C$select_manager.c$50$2$17         select_manager
     00001C08  A$select_manager$249               select_manager
     00001C09  A$select_manager$250               select_manager
     00001C0B  A$select_manager$251               select_manager
     00001C0D  A$select_manager$255               select_manager
     00001C0D  C$select_manager.c$54$3$20         select_manager
     00001C0F  A$select_manager$260               select_manager
     00001C0F  C$select_manager.c$56$3$20         select_manager
     00001C10  A$select_manager$261               select_manager
     00001C11  A$select_manager$262               select_manager
     00001C12  A$select_manager$263               select_manager
     00001C13  A$select_manager$264               select_manager
     00001C14  A$select_manager$265               select_manager
     00001C15  A$select_manager$266               select_manager
     00001C18  A$select_manager$267               select_manager
     00001C19  A$select_manager$268               select_manager
     00001C1C  A$select_manager$269               select_manager
     00001C1D  A$select_manager$270               select_manager
     00001C1E  A$select_manager$271               select_manager
     00001C1F  A$select_manager$275               select_manager
     00001C1F  C$select_manager.c$54$2$19         select_manager
     00001C20  A$select_manager$276               select_manager
     00001C21  A$select_manager$277               select_manager
     00001C23  A$select_manager$278               select_manager
     00001C25  A$select_manager$282               select_manager
     00001C25  C$select_manager.c$58$3$22         select_manager
     00001C27  A$select_manager$287               select_manager
     00001C27  C$select_manager.c$60$3$22         select_manager
     00001C28  A$select_manager$288               select_manager
     00001C29  A$select_manager$289               select_manager
     00001C2A  A$select_manager$290               select_manager
     00001C2B  A$select_manager$291               select_manager
     00001C2C  A$select_manager$292               select_manager
     00001C2D  A$select_manager$293               select_manager
     00001C30  A$select_manager$294               select_manager
     00001C31  A$select_manager$295               select_manager
     00001C34  A$select_manager$296               select_manager
     00001C35  A$select_manager$297               select_manager
     00001C36  A$select_manager$298               select_manager
     00001C37  A$select_manager$302               select_manager
     00001C37  C$select_manager.c$58$2$21         select_manager
     00001C38  A$select_manager$303               select_manager
     00001C39  A$select_manager$304               select_manager
ASxxxx Linker V03.00 + NoICE + sdld,  page 85.
Hexadecimal  [32-Bits]

Area                                    Addr        Size        Decimal Bytes (Attributes)
--------------------------------        ----        ----        ------- ----- ------------
_CODE                               00000200    000030D0 =       12496. bytes (REL,CON)

      Value  Global                              Global Defined In Module
      -----  --------------------------------   ------------------------
     00001C3B  A$select_manager$305               select_manager
     00001C3D  A$select_manager$309               select_manager
     00001C3D  C$select_manager.c$62$1$16         select_manager
     00001C40  A$select_manager$310               select_manager
     00001C41  A$select_manager$311               select_manager
     00001C44  A$select_manager$312               select_manager
     00001C45  A$select_manager$313               select_manager
     00001C48  A$select_manager$314               select_manager
     00001C49  A$select_manager$315               select_manager
     00001C4A  A$select_manager$320               select_manager
     00001C4A  C$select_manager.c$63$1$16         select_manager
     00001C4A  XG$engine_select_manager_clear$0   select_manager
     00001C4B  Fselect_manager$__str_0$0$0        select_manager
     00001C58  Fselect_manager$__str_1$0$0        select_manager
     00001C64  Fselect_manager$__str_2$0$0        select_manager
     00001C6D  Fselect_manager$__str_3$0$0        select_manager
     00001C71  A$select_manager$353               select_manager
     00001C71  C$select_manager.c$65$1$16         select_manager
     00001C71  C$select_manager.c$66$1$16         select_manager
     00001C71  G$engine_select_manager_clear2$0   select_manager
     00001C71  XG$engine_select_manager_clear2$   select_manager
     00001C71  _engine_select_manager_clear2      select_manager
     00001C72  A$select_manager$370               select_manager
     00001C72  C$select_manager.c$67$1$16         select_manager
     00001C72  C$select_manager.c$68$1$16         select_manager
     00001C72  G$engine_select_manager_load_dif   select_manager
     00001C72  XG$engine_select_manager_load_di   select_manager
     00001C72  _engine_select_manager_load_diff   select_manager
     00001C73  A$select_manager$387               select_manager
     00001C73  C$select_manager.c$69$1$16         select_manager
     00001C73  C$select_manager.c$71$1$16         select_manager
     00001C73  G$engine_select_manager_load_lon   select_manager
     00001C73  XG$engine_select_manager_load_lo   select_manager
     00001C73  _engine_select_manager_load_long   select_manager
     00001C74  A$select_manager$400               select_manager
     00001C74  C$select_manager.c$73$1$16         select_manager
     00001C74  C$select_manager.c$75$1$26         select_manager
     00001C74  G$engine_select_manager_load_qui   select_manager
     00001C74  _engine_select_manager_load_quiz   select_manager
     00001C77  A$select_manager$401               select_manager
     00001C79  A$select_manager$405               select_manager
     00001C79  C$select_manager.c$76$1$26         select_manager
     00001C7C  A$select_manager$406               select_manager
     00001C7E  A$select_manager$410               select_manager
     00001C7E  C$select_manager.c$77$1$26         select_manager
     00001C81  A$select_manager$411               select_manager
     00001C84  A$select_manager$416               select_manager
     00001C84  C$select_manager.c$78$1$26         select_manager
     00001C84  XG$engine_select_manager_load_qu   select_manager
     00001C85  A$select_manager$426               select_manager
     00001C85  C$select_manager.c$81$1$26         select_manager
ASxxxx Linker V03.00 + NoICE + sdld,  page 86.
Hexadecimal  [32-Bits]

Area                                    Addr        Size        Decimal Bytes (Attributes)
--------------------------------        ----        ----        ------- ----- ------------
_CODE                               00000200    000030D0 =       12496. bytes (REL,CON)

      Value  Global                              Global Defined In Module
      -----  --------------------------------   ------------------------
     00001C85  G$engine_select_manager_move_up$   select_manager
     00001C85  _engine_select_manager_move_up     select_manager
     00001C87  A$select_manager$427               select_manager
     00001C8B  A$select_manager$428               select_manager
     00001C8D  A$select_manager$432               select_manager
     00001C8D  C$select_manager.c$83$1$28         select_manager
     00001C90  A$select_manager$433               select_manager
     00001C91  A$select_manager$434               select_manager
     00001C93  A$select_manager$438               select_manager
     00001C93  C$select_manager.c$85$2$29         select_manager
     00001C97  A$select_manager$439               select_manager
     00001C99  A$select_manager$444               select_manager
     00001C99  C$select_manager.c$89$2$30         select_manager
     00001C9C  A$select_manager$449               select_manager
     00001C9C  C$select_manager.c$92$1$28         select_manager
     00001C9F  A$select_manager$450               select_manager
     00001CA2  A$select_manager$451               select_manager
     00001CA4  A$select_manager$452               select_manager
     00001CA5  A$select_manager$453               select_manager
     00001CA6  A$select_manager$454               select_manager
     00001CA9  A$select_manager$458               select_manager
     00001CA9  C$select_manager.c$93$1$28         select_manager
     00001CAC  A$select_manager$459               select_manager
     00001CAE  A$select_manager$464               select_manager
     00001CAE  C$select_manager.c$94$1$28         select_manager
     00001CAE  XG$engine_select_manager_move_up   select_manager
     00001CAF  A$select_manager$474               select_manager
     00001CAF  C$select_manager.c$96$1$28         select_manager
     00001CAF  G$engine_select_manager_move_dow   select_manager
     00001CAF  _engine_select_manager_move_down   select_manager
     00001CB1  A$select_manager$475               select_manager
     00001CB5  A$select_manager$476               select_manager
     00001CB7  A$select_manager$480               select_manager
     00001CB7  C$select_manager.c$98$1$32         select_manager
     00001CBA  A$select_manager$481               select_manager
     00001CBC  A$select_manager$482               select_manager
     00001CBE  A$select_manager$486               select_manager
     00001CBE  C$select_manager.c$100$2$33        select_manager
     00001CC2  A$select_manager$487               select_manager
     00001CC4  A$select_manager$492               select_manager
     00001CC4  C$select_manager.c$104$2$34        select_manager
     00001CC7  A$select_manager$497               select_manager
     00001CC7  C$select_manager.c$107$1$32        select_manager
     00001CCA  A$select_manager$498               select_manager
     00001CCD  A$select_manager$499               select_manager
     00001CCF  A$select_manager$500               select_manager
     00001CD0  A$select_manager$501               select_manager
     00001CD1  A$select_manager$502               select_manager
     00001CD4  A$select_manager$506               select_manager
     00001CD4  C$select_manager.c$108$1$32        select_manager
     00001CD7  A$select_manager$507               select_manager
ASxxxx Linker V03.00 + NoICE + sdld,  page 87.
Hexadecimal  [32-Bits]

Area                                    Addr        Size        Decimal Bytes (Attributes)
--------------------------------        ----        ----        ------- ----- ------------
_CODE                               00000200    000030D0 =       12496. bytes (REL,CON)

      Value  Global                              Global Defined In Module
      -----  --------------------------------   ------------------------
     00001CD9  A$select_manager$512               select_manager
     00001CD9  C$select_manager.c$109$1$32        select_manager
     00001CD9  XG$engine_select_manager_move_do   select_manager
     00001CDA  A$select_manager$525               select_manager
     00001CDA  C$select_manager.c$111$1$32        select_manager
     00001CDA  C$select_manager.c$113$1$35        select_manager
     00001CDA  G$engine_select_manager_draw_sel   select_manager
     00001CDA  _engine_select_manager_draw_sele   select_manager
     00001CDD  A$select_manager$526               select_manager
     00001CDE  A$select_manager$527               select_manager
     00001CE0  A$select_manager$528               select_manager
     00001CE1  A$select_manager$529               select_manager
     00001CE4  A$select_manager$530               select_manager
     00001CE5  A$select_manager$535               select_manager
     00001CE5  C$select_manager.c$114$1$35        select_manager
     00001CE5  XG$engine_select_manager_draw_se   select_manager
     00001CE6  A$select_manager$548               select_manager
     00001CE6  C$select_manager.c$115$1$35        select_manager
     00001CE6  C$select_manager.c$117$1$36        select_manager
     00001CE6  G$engine_select_manager_draw_rig   select_manager
     00001CE6  _engine_select_manager_draw_righ   select_manager
     00001CE9  A$select_manager$549               select_manager
     00001CEB  A$select_manager$550               select_manager
     00001CEC  A$select_manager$551               select_manager
     00001CED  A$select_manager$552               select_manager
     00001CEE  A$select_manager$553               select_manager
     00001CEF  A$select_manager$554               select_manager
     00001CF0  A$select_manager$555               select_manager
     00001CF3  A$select_manager$556               select_manager
     00001CF4  A$select_manager$561               select_manager
     00001CF4  C$select_manager.c$118$1$36        select_manager
     00001CF4  XG$engine_select_manager_draw_ri   select_manager
     00001CF5  A$select_manager$574               select_manager
     00001CF5  C$select_manager.c$119$1$36        select_manager
     00001CF5  C$select_manager.c$121$1$37        select_manager
     00001CF5  G$engine_select_manager_draw_wro   select_manager
     00001CF5  _engine_select_manager_draw_wron   select_manager
     00001CF8  A$select_manager$575               select_manager
     00001CFA  A$select_manager$576               select_manager
     00001CFB  A$select_manager$577               select_manager
     00001CFC  A$select_manager$578               select_manager
     00001CFD  A$select_manager$579               select_manager
     00001CFE  A$select_manager$580               select_manager
     00001CFF  A$select_manager$581               select_manager
     00001D02  A$select_manager$582               select_manager
     00001D03  A$select_manager$587               select_manager
     00001D03  C$select_manager.c$122$1$37        select_manager
     00001D03  XG$engine_select_manager_draw_wr   select_manager
     00001D04  A$screen_manager$107               screen_manager
     00001D04  C$screen_manager.c$28$0$0          screen_manager
     00001D04  C$screen_manager.c$30$1$19         screen_manager
ASxxxx Linker V03.00 + NoICE + sdld,  page 88.
Hexadecimal  [32-Bits]

Area                                    Addr        Size        Decimal Bytes (Attributes)
--------------------------------        ----        ----        ------- ----- ------------
_CODE                               00000200    000030D0 =       12496. bytes (REL,CON)

      Value  Global                              Global Defined In Module
      -----  --------------------------------   ------------------------
     00001D04  G$engine_screen_manager_init$0$0   screen_manager
     00001D04  _engine_screen_manager_init        screen_manager
     00001D07  A$screen_manager$108               screen_manager
     00001D08  A$screen_manager$109               screen_manager
     00001D09  A$screen_manager$110               screen_manager
     00001D0C  A$screen_manager$114               screen_manager
     00001D0C  C$screen_manager.c$31$1$19         screen_manager
     00001D0F  A$screen_manager$115               screen_manager
     00001D11  A$screen_manager$119               screen_manager
     00001D11  C$screen_manager.c$34$1$19         screen_manager
     00001D14  A$screen_manager$123               screen_manager
     00001D14  C$screen_manager.c$35$1$19         screen_manager
     00001D17  A$screen_manager$127               screen_manager
     00001D17  C$screen_manager.c$36$1$19         screen_manager
     00001D1A  A$screen_manager$131               screen_manager
     00001D1A  C$screen_manager.c$37$1$19         screen_manager
     00001D1D  A$screen_manager$135               screen_manager
     00001D1D  C$screen_manager.c$38$1$19         screen_manager
     00001D20  A$screen_manager$139               screen_manager
     00001D20  C$screen_manager.c$39$1$19         screen_manager
     00001D23  A$screen_manager$143               screen_manager
     00001D23  C$screen_manager.c$40$1$19         screen_manager
     00001D26  A$screen_manager$147               screen_manager
     00001D26  C$screen_manager.c$41$1$19         screen_manager
     00001D29  A$screen_manager$151               screen_manager
     00001D29  C$screen_manager.c$42$1$19         screen_manager
     00001D2C  A$screen_manager$155               screen_manager
     00001D2C  C$screen_manager.c$45$1$19         screen_manager
     00001D2F  A$screen_manager$156               screen_manager
     00001D32  A$screen_manager$160               screen_manager
     00001D32  C$screen_manager.c$46$1$19         screen_manager
     00001D35  A$screen_manager$161               screen_manager
     00001D38  A$screen_manager$165               screen_manager
     00001D38  C$screen_manager.c$47$1$19         screen_manager
     00001D3B  A$screen_manager$166               screen_manager
     00001D3E  A$screen_manager$170               screen_manager
     00001D3E  C$screen_manager.c$48$1$19         screen_manager
     00001D41  A$screen_manager$171               screen_manager
     00001D44  A$screen_manager$175               screen_manager
     00001D44  C$screen_manager.c$49$1$19         screen_manager
     00001D47  A$screen_manager$176               screen_manager
     00001D4A  A$screen_manager$180               screen_manager
     00001D4A  C$screen_manager.c$50$1$19         screen_manager
     00001D4D  A$screen_manager$181               screen_manager
     00001D50  A$screen_manager$185               screen_manager
     00001D50  C$screen_manager.c$51$1$19         screen_manager
     00001D53  A$screen_manager$186               screen_manager
     00001D56  A$screen_manager$190               screen_manager
     00001D56  C$screen_manager.c$52$1$19         screen_manager
     00001D59  A$screen_manager$191               screen_manager
     00001D5C  A$screen_manager$195               screen_manager
ASxxxx Linker V03.00 + NoICE + sdld,  page 89.
Hexadecimal  [32-Bits]

Area                                    Addr        Size        Decimal Bytes (Attributes)
--------------------------------        ----        ----        ------- ----- ------------
_CODE                               00000200    000030D0 =       12496. bytes (REL,CON)

      Value  Global                              Global Defined In Module
      -----  --------------------------------   ------------------------
     00001D5C  C$screen_manager.c$53$1$19         screen_manager
     00001D5F  A$screen_manager$196               screen_manager
     00001D62  A$screen_manager$200               screen_manager
     00001D62  C$screen_manager.c$54$1$19         screen_manager
     00001D65  A$screen_manager$201               screen_manager
     00001D68  A$screen_manager$205               screen_manager
     00001D68  C$screen_manager.c$55$1$19         screen_manager
     00001D6B  A$screen_manager$206               screen_manager
     00001D6E  A$screen_manager$210               screen_manager
     00001D6E  C$screen_manager.c$56$1$19         screen_manager
     00001D71  A$screen_manager$211               screen_manager
     00001D74  A$screen_manager$215               screen_manager
     00001D74  C$screen_manager.c$57$1$19         screen_manager
     00001D77  A$screen_manager$216               screen_manager
     00001D7A  A$screen_manager$220               screen_manager
     00001D7A  C$screen_manager.c$58$1$19         screen_manager
     00001D7D  A$screen_manager$221               screen_manager
     00001D80  A$screen_manager$225               screen_manager
     00001D80  C$screen_manager.c$59$1$19         screen_manager
     00001D83  A$screen_manager$226               screen_manager
     00001D86  A$screen_manager$230               screen_manager
     00001D86  C$screen_manager.c$62$1$19         screen_manager
     00001D89  A$screen_manager$231               screen_manager
     00001D8C  A$screen_manager$235               screen_manager
     00001D8C  C$screen_manager.c$63$1$19         screen_manager
     00001D8F  A$screen_manager$236               screen_manager
     00001D92  A$screen_manager$240               screen_manager
     00001D92  C$screen_manager.c$64$1$19         screen_manager
     00001D95  A$screen_manager$241               screen_manager
     00001D98  A$screen_manager$245               screen_manager
     00001D98  C$screen_manager.c$65$1$19         screen_manager
     00001D9B  A$screen_manager$246               screen_manager
     00001D9E  A$screen_manager$250               screen_manager
     00001D9E  C$screen_manager.c$66$1$19         screen_manager
     00001DA1  A$screen_manager$251               screen_manager
     00001DA4  A$screen_manager$255               screen_manager
     00001DA4  C$screen_manager.c$67$1$19         screen_manager
     00001DA7  A$screen_manager$256               screen_manager
     00001DAA  A$screen_manager$260               screen_manager
     00001DAA  C$screen_manager.c$68$1$19         screen_manager
     00001DAD  A$screen_manager$261               screen_manager
     00001DB0  A$screen_manager$265               screen_manager
     00001DB0  C$screen_manager.c$69$1$19         screen_manager
     00001DB3  A$screen_manager$266               screen_manager
     00001DB6  A$screen_manager$270               screen_manager
     00001DB6  C$screen_manager.c$70$1$19         screen_manager
     00001DB9  A$screen_manager$271               screen_manager
     00001DBC  A$screen_manager$275               screen_manager
     00001DBC  C$screen_manager.c$71$1$19         screen_manager
     00001DBF  A$screen_manager$276               screen_manager
     00001DC2  A$screen_manager$280               screen_manager
ASxxxx Linker V03.00 + NoICE + sdld,  page 90.
Hexadecimal  [32-Bits]

Area                                    Addr        Size        Decimal Bytes (Attributes)
--------------------------------        ----        ----        ------- ----- ------------
_CODE                               00000200    000030D0 =       12496. bytes (REL,CON)

      Value  Global                              Global Defined In Module
      -----  --------------------------------   ------------------------
     00001DC2  C$screen_manager.c$72$1$19         screen_manager
     00001DC5  A$screen_manager$281               screen_manager
     00001DC8  A$screen_manager$285               screen_manager
     00001DC8  C$screen_manager.c$73$1$19         screen_manager
     00001DCB  A$screen_manager$286               screen_manager
     00001DCE  A$screen_manager$290               screen_manager
     00001DCE  C$screen_manager.c$74$1$19         screen_manager
     00001DD1  A$screen_manager$291               screen_manager
     00001DD4  A$screen_manager$295               screen_manager
     00001DD4  C$screen_manager.c$75$1$19         screen_manager
     00001DD7  A$screen_manager$296               screen_manager
     00001DDA  A$screen_manager$300               screen_manager
     00001DDA  C$screen_manager.c$76$1$19         screen_manager
     00001DDD  A$screen_manager$301               screen_manager
     00001DE0  A$screen_manager$306               screen_manager
     00001DE0  C$screen_manager.c$77$1$19         screen_manager
     00001DE0  XG$engine_screen_manager_init$0$   screen_manager
     00001DE1  A$screen_manager$319               screen_manager
     00001DE1  C$screen_manager.c$79$1$19         screen_manager
     00001DE1  C$screen_manager.c$81$1$20         screen_manager
     00001DE1  G$engine_screen_manager_update$0   screen_manager
     00001DE1  _engine_screen_manager_update      screen_manager
     00001DE4  A$screen_manager$320               screen_manager
     00001DE8  A$screen_manager$321               screen_manager
     00001DEB  A$screen_manager$322               screen_manager
     00001DED  A$screen_manager$326               screen_manager
     00001DED  C$screen_manager.c$83$2$21         screen_manager
     00001DF0  A$screen_manager$327               screen_manager
     00001DF4  A$screen_manager$328               screen_manager
     00001DF7  A$screen_manager$332               screen_manager
     00001DF7  C$screen_manager.c$84$2$21         screen_manager
     00001DFA  A$screen_manager$333               screen_manager
     00001DFD  A$screen_manager$334               screen_manager
     00001DFF  A$screen_manager$335               screen_manager
     00001E00  A$screen_manager$336               screen_manager
     00001E01  A$screen_manager$337               screen_manager
     00001E02  A$screen_manager$338               screen_manager
     00001E03  A$screen_manager$339               screen_manager
     00001E04  A$screen_manager$340               screen_manager
     00001E05  A$screen_manager$341               screen_manager
     00001E08  A$screen_manager$346               screen_manager
     00001E08  C$screen_manager.c$87$1$20         screen_manager
     00001E0B  A$screen_manager$347               screen_manager
     00001E0F  A$screen_manager$348               screen_manager
     00001E12  A$screen_manager$349               screen_manager
     00001E14  A$screen_manager$350               screen_manager
     00001E15  A$screen_manager$351               screen_manager
     00001E16  A$screen_manager$352               screen_manager
     00001E17  A$screen_manager$353               screen_manager
     00001E18  A$screen_manager$354               screen_manager
     00001E19  A$screen_manager$355               screen_manager
ASxxxx Linker V03.00 + NoICE + sdld,  page 91.
Hexadecimal  [32-Bits]

Area                                    Addr        Size        Decimal Bytes (Attributes)
--------------------------------        ----        ----        ------- ----- ------------
_CODE                               00000200    000030D0 =       12496. bytes (REL,CON)

      Value  Global                              Global Defined In Module
      -----  --------------------------------   ------------------------
     00001E1C  A$screen_manager$356               screen_manager
     00001E1D  A$screen_manager$357               screen_manager
     00001E1E  A$screen_manager$358               screen_manager
     00001E1F  A$screen_manager$359               screen_manager
     00001E22  A$screen_manager$360               screen_manager
     00001E23  A$screen_manager$365               screen_manager
     00001E23  C$screen_manager.c$88$1$20         screen_manager
     00001E23  XG$engine_screen_manager_update$   screen_manager
     00001E24  A$sound_manager$60                 sound_manager
     00001E24  C$sound_manager.c$12$0$0           sound_manager
     00001E24  C$sound_manager.c$14$1$22          sound_manager
     00001E24  G$engine_sound_manager_init$0$0    sound_manager
     00001E24  _engine_sound_manager_init         sound_manager
     00001E27  A$sound_manager$65                 sound_manager
     00001E27  C$sound_manager.c$15$1$22          sound_manager
     00001E27  XG$engine_sound_manager_init$0$0   sound_manager
     00001E2A  G$psgInit$0$0                      sound_manager
     00001E2A  _psgInit                           sound_manager
     00001E35  A$sound_manager$88                 sound_manager
     00001E35  C$sound_manager.c$17$1$22          sound_manager
     00001E35  G$engine_sound_manager_play$0$0    sound_manager
     00001E35  _engine_sound_manager_play         sound_manager
     00001E37  A$sound_manager$89                 sound_manager
     00001E3B  A$sound_manager$90                 sound_manager
     00001E3D  A$sound_manager$94                 sound_manager
     00001E3D  C$sound_manager.c$22$1$24          sound_manager
     00001E40  A$sound_manager$95                 sound_manager
     00001E43  A$sound_manager$96                 sound_manager
     00001E45  A$sound_manager$97                 sound_manager
     00001E46  A$sound_manager$98                 sound_manager
     00001E47  A$sound_manager$99                 sound_manager
     00001E48  A$sound_manager$100                sound_manager
     00001E49  A$sound_manager$101                sound_manager
     00001E4A  A$sound_manager$105                sound_manager
     00001E4A  C$sound_manager.c$23$1$24          sound_manager
     00001E4D  A$sound_manager$106                sound_manager
     00001E50  A$sound_manager$107                sound_manager
     00001E52  A$sound_manager$108                sound_manager
     00001E53  A$sound_manager$109                sound_manager
     00001E54  A$sound_manager$113                sound_manager
     00001E54  C$sound_manager.c$25$1$24          sound_manager
     00001E57  A$sound_manager$114                sound_manager
     00001E58  A$sound_manager$118                sound_manager
     00001E58  C$sound_manager.c$27$2$25          sound_manager
     00001E5A  A$sound_manager$122                sound_manager
     00001E5A  C$sound_manager.c$30$1$24          sound_manager
     00001E5B  A$sound_manager$123                sound_manager
     00001E5C  A$sound_manager$124                sound_manager
     00001E5D  A$sound_manager$125                sound_manager
     00001E60  A$sound_manager$126                sound_manager
     00001E61  A$sound_manager$130                sound_manager
ASxxxx Linker V03.00 + NoICE + sdld,  page 92.
Hexadecimal  [32-Bits]

Area                                    Addr        Size        Decimal Bytes (Attributes)
--------------------------------        ----        ----        ------- ----- ------------
_CODE                               00000200    000030D0 =       12496. bytes (REL,CON)

      Value  Global                              Global Defined In Module
      -----  --------------------------------   ------------------------
     00001E61  C$sound_manager.c$31$1$24          sound_manager
     00001E62  A$sound_manager$131                sound_manager
     00001E65  A$sound_manager$133                sound_manager
     00001E67  A$sound_manager$138                sound_manager
     00001E67  C$sound_manager.c$32$1$24          sound_manager
     00001E67  XG$engine_sound_manager_play$0$0   sound_manager
     00001E68  A$sprite_manager$58                sprite_manager
     00001E68  C$sprite_manager.c$11$1$24         sprite_manager
     00001E68  C$sprite_manager.c$9$0$0           sprite_manager
     00001E68  G$engine_sprite_manager_draw_sel   sprite_manager
     00001E68  _engine_sprite_manager_draw_sele   sprite_manager
     00001E6B  A$sprite_manager$59                sprite_manager
     00001E6C  A$sprite_manager$60                sprite_manager
     00001E6F  A$sprite_manager$61                sprite_manager
     00001E70  A$sprite_manager$62                sprite_manager
     00001E71  A$sprite_manager$63                sprite_manager
     00001E72  A$sprite_manager$64                sprite_manager
     00001E73  A$sprite_manager$65                sprite_manager
     00001E76  A$sprite_manager$66                sprite_manager
     00001E77  A$sprite_manager$67                sprite_manager
     00001E78  A$sprite_manager$68                sprite_manager
     00001E79  A$sprite_manager$69                sprite_manager
     00001E7A  A$sprite_manager$70                sprite_manager
     00001E7D  A$sprite_manager$71                sprite_manager
     00001E7E  A$sprite_manager$72                sprite_manager
     00001E7F  A$sprite_manager$77                sprite_manager
     00001E7F  C$sprite_manager.c$12$1$24         sprite_manager
     00001E7F  XG$engine_sprite_manager_draw_se   sprite_manager
     00001E80  A$sprite_manager$90                sprite_manager
     00001E80  C$sprite_manager.c$13$1$24         sprite_manager
     00001E80  C$sprite_manager.c$15$1$26         sprite_manager
     00001E80  G$engine_sprite_manager_draw_rig   sprite_manager
     00001E80  _engine_sprite_manager_draw_righ   sprite_manager
     00001E83  A$sprite_manager$91                sprite_manager
     00001E84  A$sprite_manager$92                sprite_manager
     00001E87  A$sprite_manager$93                sprite_manager
     00001E88  A$sprite_manager$94                sprite_manager
     00001E89  A$sprite_manager$95                sprite_manager
     00001E8A  A$sprite_manager$96                sprite_manager
     00001E8B  A$sprite_manager$97                sprite_manager
     00001E8E  A$sprite_manager$98                sprite_manager
     00001E8F  A$sprite_manager$99                sprite_manager
     00001E90  A$sprite_manager$100               sprite_manager
     00001E91  A$sprite_manager$101               sprite_manager
     00001E92  A$sprite_manager$102               sprite_manager
     00001E95  A$sprite_manager$103               sprite_manager
     00001E96  A$sprite_manager$104               sprite_manager
     00001E97  A$sprite_manager$109               sprite_manager
     00001E97  C$sprite_manager.c$16$1$26         sprite_manager
     00001E97  XG$engine_sprite_manager_draw_ri   sprite_manager
     00001E98  A$sprite_manager$122               sprite_manager
ASxxxx Linker V03.00 + NoICE + sdld,  page 93.
Hexadecimal  [32-Bits]

Area                                    Addr        Size        Decimal Bytes (Attributes)
--------------------------------        ----        ----        ------- ----- ------------
_CODE                               00000200    000030D0 =       12496. bytes (REL,CON)

      Value  Global                              Global Defined In Module
      -----  --------------------------------   ------------------------
     00001E98  C$sprite_manager.c$17$1$26         sprite_manager
     00001E98  C$sprite_manager.c$19$1$28         sprite_manager
     00001E98  G$engine_sprite_manager_draw_wro   sprite_manager
     00001E98  _engine_sprite_manager_draw_wron   sprite_manager
     00001E9B  A$sprite_manager$123               sprite_manager
     00001E9C  A$sprite_manager$124               sprite_manager
     00001E9F  A$sprite_manager$125               sprite_manager
     00001EA0  A$sprite_manager$126               sprite_manager
     00001EA1  A$sprite_manager$127               sprite_manager
     00001EA2  A$sprite_manager$128               sprite_manager
     00001EA3  A$sprite_manager$129               sprite_manager
     00001EA6  A$sprite_manager$130               sprite_manager
     00001EA7  A$sprite_manager$131               sprite_manager
     00001EA8  A$sprite_manager$132               sprite_manager
     00001EA9  A$sprite_manager$133               sprite_manager
     00001EAA  A$sprite_manager$134               sprite_manager
     00001EAD  A$sprite_manager$135               sprite_manager
     00001EAE  A$sprite_manager$136               sprite_manager
     00001EAF  A$sprite_manager$141               sprite_manager
     00001EAF  C$sprite_manager.c$20$1$28         sprite_manager
     00001EAF  XG$engine_sprite_manager_draw_wr   sprite_manager
     00001EB0  A$sprite_manager$151               sprite_manager
     00001EB0  C$sprite_manager.c$22$1$28         sprite_manager
     00001EB0  Fsprite_manager$engine_sprite_ma   sprite_manager
     00001EB2  A$sprite_manager$152               sprite_manager
     00001EB6  A$sprite_manager$153               sprite_manager
     00001EB8  A$sprite_manager$157               sprite_manager
     00001EB8  C$sprite_manager.c$24$1$30         sprite_manager
     00001EBB  A$sprite_manager$158               sprite_manager
     00001EBE  A$sprite_manager$159               sprite_manager
     00001EBF  A$sprite_manager$160               sprite_manager
     00001EC2  A$sprite_manager$161               sprite_manager
     00001EC5  A$sprite_manager$162               sprite_manager
     00001EC6  A$sprite_manager$163               sprite_manager
     00001EC9  A$sprite_manager$164               sprite_manager
     00001ECA  A$sprite_manager$165               sprite_manager
     00001ECB  A$sprite_manager$169               sprite_manager
     00001ECB  C$sprite_manager.c$25$1$30         sprite_manager
     00001ECE  A$sprite_manager$170               sprite_manager
     00001ED1  A$sprite_manager$171               sprite_manager
     00001ED2  A$sprite_manager$172               sprite_manager
     00001ED5  A$sprite_manager$173               sprite_manager
     00001ED7  A$sprite_manager$174               sprite_manager
     00001ED8  A$sprite_manager$175               sprite_manager
     00001ED9  A$sprite_manager$176               sprite_manager
     00001EDA  A$sprite_manager$177               sprite_manager
     00001EDD  A$sprite_manager$178               sprite_manager
     00001EDE  A$sprite_manager$179               sprite_manager
     00001EE1  A$sprite_manager$180               sprite_manager
     00001EE2  A$sprite_manager$181               sprite_manager
     00001EE3  A$sprite_manager$182               sprite_manager
ASxxxx Linker V03.00 + NoICE + sdld,  page 94.
Hexadecimal  [32-Bits]

Area                                    Addr        Size        Decimal Bytes (Attributes)
--------------------------------        ----        ----        ------- ----- ------------
_CODE                               00000200    000030D0 =       12496. bytes (REL,CON)

      Value  Global                              Global Defined In Module
      -----  --------------------------------   ------------------------
     00001EE4  A$sprite_manager$186               sprite_manager
     00001EE4  C$sprite_manager.c$26$1$30         sprite_manager
     00001EE7  A$sprite_manager$187               sprite_manager
     00001EEA  A$sprite_manager$188               sprite_manager
     00001EEB  A$sprite_manager$189               sprite_manager
     00001EEC  A$sprite_manager$190               sprite_manager
     00001EEF  A$sprite_manager$191               sprite_manager
     00001EF1  A$sprite_manager$192               sprite_manager
     00001EF2  A$sprite_manager$193               sprite_manager
     00001EF3  A$sprite_manager$194               sprite_manager
     00001EF4  A$sprite_manager$195               sprite_manager
     00001EF7  A$sprite_manager$196               sprite_manager
     00001EF8  A$sprite_manager$197               sprite_manager
     00001EF9  A$sprite_manager$198               sprite_manager
     00001EFA  A$sprite_manager$199               sprite_manager
     00001EFB  A$sprite_manager$200               sprite_manager
     00001EFE  A$sprite_manager$201               sprite_manager
     00001EFF  A$sprite_manager$202               sprite_manager
     00001F00  A$sprite_manager$203               sprite_manager
     00001F01  A$sprite_manager$207               sprite_manager
     00001F01  C$sprite_manager.c$27$1$30         sprite_manager
     00001F04  A$sprite_manager$208               sprite_manager
     00001F07  A$sprite_manager$209               sprite_manager
     00001F08  A$sprite_manager$210               sprite_manager
     00001F09  A$sprite_manager$211               sprite_manager
     00001F0A  A$sprite_manager$212               sprite_manager
     00001F0D  A$sprite_manager$213               sprite_manager
     00001F0F  A$sprite_manager$214               sprite_manager
     00001F10  A$sprite_manager$215               sprite_manager
     00001F11  A$sprite_manager$216               sprite_manager
     00001F12  A$sprite_manager$217               sprite_manager
     00001F13  A$sprite_manager$218               sprite_manager
     00001F16  A$sprite_manager$219               sprite_manager
     00001F17  A$sprite_manager$220               sprite_manager
     00001F1A  A$sprite_manager$221               sprite_manager
     00001F1B  A$sprite_manager$222               sprite_manager
     00001F1C  A$sprite_manager$223               sprite_manager
     00001F1D  A$sprite_manager$224               sprite_manager
     00001F1E  A$sprite_manager$228               sprite_manager
     00001F1E  C$sprite_manager.c$29$1$30         sprite_manager
     00001F21  A$sprite_manager$229               sprite_manager
     00001F23  A$sprite_manager$230               sprite_manager
     00001F24  A$sprite_manager$231               sprite_manager
     00001F27  A$sprite_manager$232               sprite_manager
     00001F29  A$sprite_manager$233               sprite_manager
     00001F2A  A$sprite_manager$234               sprite_manager
     00001F2D  A$sprite_manager$235               sprite_manager
     00001F2F  A$sprite_manager$236               sprite_manager
     00001F30  A$sprite_manager$237               sprite_manager
     00001F31  A$sprite_manager$238               sprite_manager
     00001F32  A$sprite_manager$239               sprite_manager
ASxxxx Linker V03.00 + NoICE + sdld,  page 95.
Hexadecimal  [32-Bits]

Area                                    Addr        Size        Decimal Bytes (Attributes)
--------------------------------        ----        ----        ------- ----- ------------
_CODE                               00000200    000030D0 =       12496. bytes (REL,CON)

      Value  Global                              Global Defined In Module
      -----  --------------------------------   ------------------------
     00001F33  A$sprite_manager$240               sprite_manager
     00001F34  A$sprite_manager$241               sprite_manager
     00001F35  A$sprite_manager$242               sprite_manager
     00001F38  A$sprite_manager$243               sprite_manager
     00001F39  A$sprite_manager$244               sprite_manager
     00001F3A  A$sprite_manager$245               sprite_manager
     00001F3D  A$sprite_manager$246               sprite_manager
     00001F3E  A$sprite_manager$247               sprite_manager
     00001F3F  A$sprite_manager$248               sprite_manager
     00001F40  A$sprite_manager$249               sprite_manager
     00001F41  A$sprite_manager$253               sprite_manager
     00001F41  C$sprite_manager.c$30$1$30         sprite_manager
     00001F44  A$sprite_manager$254               sprite_manager
     00001F46  A$sprite_manager$255               sprite_manager
     00001F47  A$sprite_manager$256               sprite_manager
     00001F4A  A$sprite_manager$257               sprite_manager
     00001F4C  A$sprite_manager$258               sprite_manager
     00001F4D  A$sprite_manager$259               sprite_manager
     00001F4E  A$sprite_manager$260               sprite_manager
     00001F4F  A$sprite_manager$261               sprite_manager
     00001F50  A$sprite_manager$262               sprite_manager
     00001F51  A$sprite_manager$263               sprite_manager
     00001F52  A$sprite_manager$264               sprite_manager
     00001F53  A$sprite_manager$265               sprite_manager
     00001F54  A$sprite_manager$266               sprite_manager
     00001F55  A$sprite_manager$267               sprite_manager
     00001F58  A$sprite_manager$268               sprite_manager
     00001F59  A$sprite_manager$269               sprite_manager
     00001F5A  A$sprite_manager$270               sprite_manager
     00001F5B  A$sprite_manager$271               sprite_manager
     00001F5C  A$sprite_manager$275               sprite_manager
     00001F5C  C$sprite_manager.c$31$1$30         sprite_manager
     00001F5F  A$sprite_manager$276               sprite_manager
     00001F61  A$sprite_manager$277               sprite_manager
     00001F62  A$sprite_manager$278               sprite_manager
     00001F65  A$sprite_manager$279               sprite_manager
     00001F67  A$sprite_manager$280               sprite_manager
     00001F68  A$sprite_manager$281               sprite_manager
     00001F69  A$sprite_manager$282               sprite_manager
     00001F6A  A$sprite_manager$283               sprite_manager
     00001F6B  A$sprite_manager$284               sprite_manager
     00001F6C  A$sprite_manager$285               sprite_manager
     00001F6D  A$sprite_manager$286               sprite_manager
     00001F70  A$sprite_manager$287               sprite_manager
     00001F71  A$sprite_manager$288               sprite_manager
     00001F72  A$sprite_manager$289               sprite_manager
     00001F73  A$sprite_manager$290               sprite_manager
     00001F74  A$sprite_manager$294               sprite_manager
     00001F74  C$sprite_manager.c$32$1$30         sprite_manager
     00001F77  A$sprite_manager$295               sprite_manager
     00001F79  A$sprite_manager$296               sprite_manager
ASxxxx Linker V03.00 + NoICE + sdld,  page 96.
Hexadecimal  [32-Bits]

Area                                    Addr        Size        Decimal Bytes (Attributes)
--------------------------------        ----        ----        ------- ----- ------------
_CODE                               00000200    000030D0 =       12496. bytes (REL,CON)

      Value  Global                              Global Defined In Module
      -----  --------------------------------   ------------------------
     00001F7A  A$sprite_manager$297               sprite_manager
     00001F7D  A$sprite_manager$298               sprite_manager
     00001F7F  A$sprite_manager$299               sprite_manager
     00001F80  A$sprite_manager$300               sprite_manager
     00001F81  A$sprite_manager$301               sprite_manager
     00001F82  A$sprite_manager$302               sprite_manager
     00001F83  A$sprite_manager$303               sprite_manager
     00001F84  A$sprite_manager$304               sprite_manager
     00001F87  A$sprite_manager$305               sprite_manager
     00001F88  A$sprite_manager$306               sprite_manager
     00001F89  A$sprite_manager$307               sprite_manager
     00001F8A  A$sprite_manager$308               sprite_manager
     00001F8B  A$sprite_manager$312               sprite_manager
     00001F8B  C$sprite_manager.c$34$1$30         sprite_manager
     00001F8E  A$sprite_manager$313               sprite_manager
     00001F90  A$sprite_manager$314               sprite_manager
     00001F91  A$sprite_manager$315               sprite_manager
     00001F94  A$sprite_manager$316               sprite_manager
     00001F96  A$sprite_manager$317               sprite_manager
     00001F97  A$sprite_manager$318               sprite_manager
     00001F9A  A$sprite_manager$319               sprite_manager
     00001F9C  A$sprite_manager$320               sprite_manager
     00001F9D  A$sprite_manager$321               sprite_manager
     00001F9E  A$sprite_manager$322               sprite_manager
     00001F9F  A$sprite_manager$323               sprite_manager
     00001FA0  A$sprite_manager$324               sprite_manager
     00001FA1  A$sprite_manager$325               sprite_manager
     00001FA2  A$sprite_manager$326               sprite_manager
     00001FA5  A$sprite_manager$327               sprite_manager
     00001FA6  A$sprite_manager$328               sprite_manager
     00001FA7  A$sprite_manager$329               sprite_manager
     00001FAA  A$sprite_manager$330               sprite_manager
     00001FAB  A$sprite_manager$331               sprite_manager
     00001FAC  A$sprite_manager$332               sprite_manager
     00001FAD  A$sprite_manager$333               sprite_manager
     00001FAE  A$sprite_manager$337               sprite_manager
     00001FAE  C$sprite_manager.c$35$1$30         sprite_manager
     00001FB1  A$sprite_manager$338               sprite_manager
     00001FB3  A$sprite_manager$339               sprite_manager
     00001FB4  A$sprite_manager$340               sprite_manager
     00001FB7  A$sprite_manager$341               sprite_manager
     00001FB9  A$sprite_manager$342               sprite_manager
     00001FBA  A$sprite_manager$343               sprite_manager
     00001FBB  A$sprite_manager$344               sprite_manager
     00001FBC  A$sprite_manager$345               sprite_manager
     00001FBD  A$sprite_manager$346               sprite_manager
     00001FBE  A$sprite_manager$347               sprite_manager
     00001FBF  A$sprite_manager$348               sprite_manager
     00001FC0  A$sprite_manager$349               sprite_manager
     00001FC1  A$sprite_manager$350               sprite_manager
     00001FC2  A$sprite_manager$351               sprite_manager
ASxxxx Linker V03.00 + NoICE + sdld,  page 97.
Hexadecimal  [32-Bits]

Area                                    Addr        Size        Decimal Bytes (Attributes)
--------------------------------        ----        ----        ------- ----- ------------
_CODE                               00000200    000030D0 =       12496. bytes (REL,CON)

      Value  Global                              Global Defined In Module
      -----  --------------------------------   ------------------------
     00001FC5  A$sprite_manager$352               sprite_manager
     00001FC6  A$sprite_manager$353               sprite_manager
     00001FC7  A$sprite_manager$354               sprite_manager
     00001FC8  A$sprite_manager$355               sprite_manager
     00001FC9  A$sprite_manager$359               sprite_manager
     00001FC9  C$sprite_manager.c$36$1$30         sprite_manager
     00001FCC  A$sprite_manager$360               sprite_manager
     00001FCE  A$sprite_manager$361               sprite_manager
     00001FCF  A$sprite_manager$362               sprite_manager
     00001FD2  A$sprite_manager$363               sprite_manager
     00001FD4  A$sprite_manager$364               sprite_manager
     00001FD5  A$sprite_manager$365               sprite_manager
     00001FD6  A$sprite_manager$366               sprite_manager
     00001FD7  A$sprite_manager$367               sprite_manager
     00001FD8  A$sprite_manager$368               sprite_manager
     00001FD9  A$sprite_manager$369               sprite_manager
     00001FDA  A$sprite_manager$370               sprite_manager
     00001FDD  A$sprite_manager$371               sprite_manager
     00001FDE  A$sprite_manager$372               sprite_manager
     00001FDF  A$sprite_manager$373               sprite_manager
     00001FE0  A$sprite_manager$374               sprite_manager
     00001FE1  A$sprite_manager$378               sprite_manager
     00001FE1  C$sprite_manager.c$37$1$30         sprite_manager
     00001FE4  A$sprite_manager$379               sprite_manager
     00001FE6  A$sprite_manager$380               sprite_manager
     00001FE7  A$sprite_manager$381               sprite_manager
     00001FEA  A$sprite_manager$382               sprite_manager
     00001FEC  A$sprite_manager$383               sprite_manager
     00001FED  A$sprite_manager$384               sprite_manager
     00001FEE  A$sprite_manager$385               sprite_manager
     00001FEF  A$sprite_manager$386               sprite_manager
     00001FF0  A$sprite_manager$387               sprite_manager
     00001FF1  A$sprite_manager$388               sprite_manager
     00001FF4  A$sprite_manager$389               sprite_manager
     00001FF5  A$sprite_manager$390               sprite_manager
     00001FF6  A$sprite_manager$391               sprite_manager
     00001FF7  A$sprite_manager$392               sprite_manager
     00001FF8  A$sprite_manager$396               sprite_manager
     00001FF8  C$sprite_manager.c$39$1$30         sprite_manager
     00001FFB  A$sprite_manager$397               sprite_manager
     00001FFD  A$sprite_manager$398               sprite_manager
     00001FFE  A$sprite_manager$399               sprite_manager
     00002001  A$sprite_manager$400               sprite_manager
     00002003  A$sprite_manager$401               sprite_manager
     00002004  A$sprite_manager$402               sprite_manager
     00002007  A$sprite_manager$403               sprite_manager
     00002009  A$sprite_manager$404               sprite_manager
     0000200A  A$sprite_manager$405               sprite_manager
     0000200B  A$sprite_manager$406               sprite_manager
     0000200C  A$sprite_manager$407               sprite_manager
     0000200D  A$sprite_manager$408               sprite_manager
ASxxxx Linker V03.00 + NoICE + sdld,  page 98.
Hexadecimal  [32-Bits]

Area                                    Addr        Size        Decimal Bytes (Attributes)
--------------------------------        ----        ----        ------- ----- ------------
_CODE                               00000200    000030D0 =       12496. bytes (REL,CON)

      Value  Global                              Global Defined In Module
      -----  --------------------------------   ------------------------
     0000200E  A$sprite_manager$409               sprite_manager
     0000200F  A$sprite_manager$410               sprite_manager
     00002012  A$sprite_manager$411               sprite_manager
     00002013  A$sprite_manager$412               sprite_manager
     00002014  A$sprite_manager$413               sprite_manager
     00002017  A$sprite_manager$414               sprite_manager
     00002018  A$sprite_manager$415               sprite_manager
     00002019  A$sprite_manager$416               sprite_manager
     0000201A  A$sprite_manager$417               sprite_manager
     0000201B  A$sprite_manager$421               sprite_manager
     0000201B  C$sprite_manager.c$40$1$30         sprite_manager
     0000201E  A$sprite_manager$422               sprite_manager
     00002020  A$sprite_manager$423               sprite_manager
     00002021  A$sprite_manager$424               sprite_manager
     00002024  A$sprite_manager$425               sprite_manager
     00002026  A$sprite_manager$426               sprite_manager
     00002027  A$sprite_manager$427               sprite_manager
     00002028  A$sprite_manager$428               sprite_manager
     00002029  A$sprite_manager$429               sprite_manager
     0000202A  A$sprite_manager$430               sprite_manager
     0000202B  A$sprite_manager$431               sprite_manager
     0000202C  A$sprite_manager$432               sprite_manager
     0000202D  A$sprite_manager$433               sprite_manager
     0000202E  A$sprite_manager$434               sprite_manager
     0000202F  A$sprite_manager$435               sprite_manager
     00002032  A$sprite_manager$436               sprite_manager
     00002033  A$sprite_manager$437               sprite_manager
     00002034  A$sprite_manager$438               sprite_manager
     00002035  A$sprite_manager$439               sprite_manager
     00002036  A$sprite_manager$443               sprite_manager
     00002036  C$sprite_manager.c$41$1$30         sprite_manager
     00002039  A$sprite_manager$444               sprite_manager
     0000203B  A$sprite_manager$445               sprite_manager
     0000203C  A$sprite_manager$446               sprite_manager
     0000203F  A$sprite_manager$447               sprite_manager
     00002041  A$sprite_manager$448               sprite_manager
     00002042  A$sprite_manager$449               sprite_manager
     00002043  A$sprite_manager$450               sprite_manager
     00002044  A$sprite_manager$451               sprite_manager
     00002045  A$sprite_manager$452               sprite_manager
     00002046  A$sprite_manager$453               sprite_manager
     00002049  A$sprite_manager$454               sprite_manager
     0000204A  A$sprite_manager$455               sprite_manager
     0000204B  A$sprite_manager$456               sprite_manager
     0000204C  A$sprite_manager$460               sprite_manager
     0000204C  C$sprite_manager.c$42$1$30         sprite_manager
     0000204F  A$sprite_manager$461               sprite_manager
     00002051  A$sprite_manager$462               sprite_manager
     00002052  A$sprite_manager$463               sprite_manager
     00002055  A$sprite_manager$464               sprite_manager
     00002057  A$sprite_manager$465               sprite_manager
ASxxxx Linker V03.00 + NoICE + sdld,  page 99.
Hexadecimal  [32-Bits]

Area                                    Addr        Size        Decimal Bytes (Attributes)
--------------------------------        ----        ----        ------- ----- ------------
_CODE                               00000200    000030D0 =       12496. bytes (REL,CON)

      Value  Global                              Global Defined In Module
      -----  --------------------------------   ------------------------
     00002058  A$sprite_manager$466               sprite_manager
     00002059  A$sprite_manager$467               sprite_manager
     0000205A  A$sprite_manager$468               sprite_manager
     0000205D  A$sprite_manager$469               sprite_manager
     0000205E  A$sprite_manager$470               sprite_manager
     0000205F  A$sprite_manager$471               sprite_manager
     00002061  A$sprite_manager$476               sprite_manager
     00002061  C$sprite_manager.c$43$1$30         sprite_manager
     00002061  XFsprite_manager$engine_sprite_m   sprite_manager
     00002062  A$timer_manager$63                 timer_manager
     00002062  C$timer_manager.c$6$0$0            timer_manager
     00002062  C$timer_manager.c$8$1$1            timer_manager
     00002062  G$screen_bases_screen_init$0$0     timer_manager
     00002062  _screen_bases_screen_init          timer_manager
     00002065  A$timer_manager$64                 timer_manager
     00002067  A$timer_manager$68                 timer_manager
     00002067  C$timer_manager.c$9$1$1            timer_manager
     0000206A  A$timer_manager$69                 timer_manager
     0000206D  A$timer_manager$74                 timer_manager
     0000206D  C$timer_manager.c$10$1$1           timer_manager
     0000206D  XG$screen_bases_screen_init$0$0    timer_manager
     0000206E  G$sound_sample_bank$0$0            sound_object
     0000206E  _sound_sample_bank                 sound_object
     00002074  A$diff_screen$68                   diff_screen
     00002074  C$diff_screen.c$12$0$0             diff_screen
     00002074  C$diff_screen.c$14$1$28            diff_screen
     00002074  G$screen_diff_screen_init$0$0      diff_screen
     00002074  _screen_diff_screen_init           diff_screen
     00002077  A$diff_screen$69                   diff_screen
     00002079  A$diff_screen$74                   diff_screen
     00002079  C$diff_screen.c$15$1$28            diff_screen
     00002079  XG$screen_diff_screen_init$0$0     diff_screen
     0000207A  A$diff_screen$87                   diff_screen
     0000207A  C$diff_screen.c$17$1$28            diff_screen
     0000207A  C$diff_screen.c$19$1$29            diff_screen
     0000207A  G$screen_diff_screen_load$0$0      diff_screen
     0000207A  _screen_diff_screen_load           diff_screen
     0000207D  A$diff_screen$91                   diff_screen
     0000207D  C$diff_screen.c$20$1$29            diff_screen
     00002080  A$diff_screen$95                   diff_screen
     00002080  C$diff_screen.c$22$1$29            diff_screen
     00002083  A$diff_screen$96                   diff_screen
     00002084  A$diff_screen$97                   diff_screen
     00002087  A$diff_screen$98                   diff_screen
     00002088  A$diff_screen$99                   diff_screen
     0000208B  A$diff_screen$100                  diff_screen
     0000208C  A$diff_screen$101                  diff_screen
     0000208D  A$diff_screen$105                  diff_screen
     0000208D  C$diff_screen.c$23$1$29            diff_screen
     00002090  A$diff_screen$113                  diff_screen
     00002090  C$diff_screen.c$24$1$29            diff_screen
ASxxxx Linker V03.00 + NoICE + sdld,  page 100.
Hexadecimal  [32-Bits]

Area                                    Addr        Size        Decimal Bytes (Attributes)
--------------------------------        ----        ----        ------- ----- ------------
_CODE                               00000200    000030D0 =       12496. bytes (REL,CON)

      Value  Global                              Global Defined In Module
      -----  --------------------------------   ------------------------
     00002090  C$diff_screen.c$25$1$29            diff_screen
     00002090  XG$screen_diff_screen_load$0$0     diff_screen
     00002093  Fdiff_screen$__str_0$0$0           diff_screen
     000020A4  A$diff_screen$130                  diff_screen
     000020A4  C$diff_screen.c$27$1$29            diff_screen
     000020A4  C$diff_screen.c$29$1$31            diff_screen
     000020A4  G$screen_diff_screen_update$0$0    diff_screen
     000020A4  _screen_diff_screen_update         diff_screen
     000020A7  A$diff_screen$131                  diff_screen
     000020A8  A$diff_screen$132                  diff_screen
     000020AB  A$diff_screen$136                  diff_screen
     000020AB  C$diff_screen.c$30$1$31            diff_screen
     000020AE  A$diff_screen$137                  diff_screen
     000020AF  A$diff_screen$138                  diff_screen
     000020B2  A$diff_screen$142                  diff_screen
     000020B2  C$diff_screen.c$31$1$31            diff_screen
     000020B5  A$diff_screen$143                  diff_screen
     000020B6  A$diff_screen$144                  diff_screen
     000020B9  A$diff_screen$145                  diff_screen
     000020BA  A$diff_screen$149                  diff_screen
     000020BA  C$diff_screen.c$32$1$31            diff_screen
     000020BB  A$diff_screen$150                  diff_screen
     000020BC  A$diff_screen$151                  diff_screen
     000020BD  A$diff_screen$152                  diff_screen
     000020BE  A$diff_screen$153                  diff_screen
     000020BF  A$diff_screen$154                  diff_screen
     000020C0  A$diff_screen$159                  diff_screen
     000020C0  C$diff_screen.c$33$1$31            diff_screen
     000020C0  XG$screen_diff_screen_update$0$0   diff_screen
     000020C1  A$func_screen$65                   func_screen
     000020C1  C$func_screen.c$12$0$0             func_screen
     000020C1  C$func_screen.c$14$1$26            func_screen
     000020C1  G$screen_func_screen_load$0$0      func_screen
     000020C1  _screen_func_screen_load           func_screen
     000020C4  A$func_screen$69                   func_screen
     000020C4  C$func_screen.c$15$1$26            func_screen
     000020C7  A$func_screen$70                   func_screen
     000020C8  A$func_screen$71                   func_screen
     000020C9  A$func_screen$72                   func_screen
     000020CC  A$func_screen$73                   func_screen
     000020CD  A$func_screen$78                   func_screen
     000020CD  C$func_screen.c$16$1$26            func_screen
     000020CD  XG$screen_func_screen_load$0$0     func_screen
     000020CE  A$func_screen$91                   func_screen
     000020CE  C$func_screen.c$18$1$26            func_screen
     000020CE  C$func_screen.c$20$1$28            func_screen
     000020CE  G$screen_func_screen_update$0$0    func_screen
     000020CE  _screen_func_screen_update         func_screen
     000020D1  A$func_screen$95                   func_screen
     000020D1  C$func_screen.c$21$1$28            func_screen
     000020D2  A$func_screen$96                   func_screen
ASxxxx Linker V03.00 + NoICE + sdld,  page 101.
Hexadecimal  [32-Bits]

Area                                    Addr        Size        Decimal Bytes (Attributes)
--------------------------------        ----        ----        ------- ----- ------------
_CODE                               00000200    000030D0 =       12496. bytes (REL,CON)

      Value  Global                              Global Defined In Module
      -----  --------------------------------   ------------------------
     000020D3  A$func_screen$97                   func_screen
     000020D5  A$func_screen$101                  func_screen
     000020D5  C$func_screen.c$23$2$29            func_screen
     000020D9  A$func_screen$102                  func_screen
     000020DC  A$func_screen$103                  func_screen
     000020DE  A$func_screen$104                  func_screen
     000020E0  A$func_screen$108                  func_screen
     000020E0  C$func_screen.c$25$3$30            func_screen
     000020E4  A$func_screen$109                  func_screen
     000020E6  A$func_screen$114                  func_screen
     000020E6  C$func_screen.c$29$3$31            func_screen
     000020E9  A$func_screen$115                  func_screen
     000020EA  A$func_screen$120                  func_screen
     000020EA  C$func_screen.c$31$2$29            func_screen
     000020ED  A$func_screen$121                  func_screen
     000020EE  A$func_screen$122                  func_screen
     000020EF  A$func_screen$123                  func_screen
     000020F2  A$func_screen$124                  func_screen
     000020F3  A$func_screen$125                  func_screen
     000020F5  A$func_screen$130                  func_screen
     000020F5  C$func_screen.c$35$2$32            func_screen
     000020F8  A$func_screen$134                  func_screen
     000020F8  C$func_screen.c$36$2$32            func_screen
     000020F9  A$func_screen$135                  func_screen
     000020FA  A$func_screen$136                  func_screen
     000020FC  A$func_screen$140                  func_screen
     000020FC  C$func_screen.c$38$3$33            func_screen
     00002100  A$func_screen$141                  func_screen
     00002103  A$func_screen$142                  func_screen
     00002104  A$func_screen$143                  func_screen
     00002106  A$func_screen$147                  func_screen
     00002106  C$func_screen.c$40$4$34            func_screen
     0000210A  A$func_screen$148                  func_screen
     0000210C  A$func_screen$153                  func_screen
     0000210C  C$func_screen.c$44$4$35            func_screen
     0000210F  A$func_screen$154                  func_screen
     00002110  A$func_screen$159                  func_screen
     00002110  C$func_screen.c$46$3$33            func_screen
     00002113  A$func_screen$160                  func_screen
     00002114  A$func_screen$161                  func_screen
     00002115  A$func_screen$162                  func_screen
     00002118  A$func_screen$163                  func_screen
     00002119  A$func_screen$168                  func_screen
     00002119  C$func_screen.c$50$1$28            func_screen
     0000211A  A$func_screen$169                  func_screen
     0000211B  A$func_screen$170                  func_screen
     0000211C  A$func_screen$171                  func_screen
     0000211D  A$func_screen$172                  func_screen
     0000211F  A$func_screen$177                  func_screen
     0000211F  C$func_screen.c$51$1$28            func_screen
     0000211F  XG$screen_func_screen_update$0$0   func_screen
ASxxxx Linker V03.00 + NoICE + sdld,  page 102.
Hexadecimal  [32-Bits]

Area                                    Addr        Size        Decimal Bytes (Attributes)
--------------------------------        ----        ----        ------- ----- ------------
_CODE                               00000200    000030D0 =       12496. bytes (REL,CON)

      Value  Global                              Global Defined In Module
      -----  --------------------------------   ------------------------
     00002120  A$func_screen$190                  func_screen
     00002120  C$func_screen.c$53$1$28            func_screen
     00002120  C$func_screen.c$55$1$37            func_screen
     00002120  Ffunc_screen$draw_screen$0$0       func_screen
     00002123  A$func_screen$194                  func_screen
     00002123  C$func_screen.c$56$1$37            func_screen
     00002126  A$func_screen$195                  func_screen
     00002127  A$func_screen$196                  func_screen
     00002128  A$func_screen$197                  func_screen
     00002129  A$func_screen$198                  func_screen
     0000212A  A$func_screen$199                  func_screen
     0000212D  A$func_screen$200                  func_screen
     0000212E  A$func_screen$208                  func_screen
     0000212E  C$func_screen.c$57$1$37            func_screen
     0000212E  C$func_screen.c$58$1$37            func_screen
     0000212E  XFfunc_screen$draw_screen$0$0      func_screen
     00002131  A$intro_screen$69                  intro_screen
     00002131  C$intro_screen.c$14$0$0            intro_screen
     00002131  C$intro_screen.c$16$1$27           intro_screen
     00002131  G$screen_intro_screen_init$0$0     intro_screen
     00002131  _screen_intro_screen_init          intro_screen
     00002134  A$intro_screen$70                  intro_screen
     00002136  A$intro_screen$75                  intro_screen
     00002136  C$intro_screen.c$17$1$27           intro_screen
     00002136  XG$screen_intro_screen_init$0$0    intro_screen
     00002137  A$intro_screen$88                  intro_screen
     00002137  C$intro_screen.c$19$1$27           intro_screen
     00002137  C$intro_screen.c$21$1$28           intro_screen
     00002137  G$screen_intro_screen_load$0$0     intro_screen
     00002137  _screen_intro_screen_load          intro_screen
     0000213A  A$intro_screen$89                  intro_screen
     0000213B  A$intro_screen$90                  intro_screen
     0000213E  A$intro_screen$91                  intro_screen
     0000213F  A$intro_screen$92                  intro_screen
     00002142  A$intro_screen$93                  intro_screen
     00002143  A$intro_screen$94                  intro_screen
     00002144  A$intro_screen$99                  intro_screen
     00002144  C$intro_screen.c$22$1$28           intro_screen
     00002144  XG$screen_intro_screen_load$0$0    intro_screen
     00002145  Fintro_screen$__str_0$0$0          intro_screen
     00002154  A$intro_screen$116                 intro_screen
     00002154  C$intro_screen.c$24$1$28           intro_screen
     00002154  C$intro_screen.c$26$1$30           intro_screen
     00002154  G$screen_intro_screen_update$0$0   intro_screen
     00002154  _screen_intro_screen_update        intro_screen
     00002157  A$intro_screen$120                 intro_screen
     00002157  C$intro_screen.c$27$1$30           intro_screen
     00002158  A$intro_screen$121                 intro_screen
     00002159  A$intro_screen$122                 intro_screen
     0000215B  A$intro_screen$126                 intro_screen
     0000215B  C$intro_screen.c$30$2$31           intro_screen
ASxxxx Linker V03.00 + NoICE + sdld,  page 103.
Hexadecimal  [32-Bits]

Area                                    Addr        Size        Decimal Bytes (Attributes)
--------------------------------        ----        ----        ------- ----- ------------
_CODE                               00000200    000030D0 =       12496. bytes (REL,CON)

      Value  Global                              Global Defined In Module
      -----  --------------------------------   ------------------------
     0000215E  A$intro_screen$130                 intro_screen
     0000215E  C$intro_screen.c$31$2$31           intro_screen
     00002161  A$intro_screen$131                 intro_screen
     00002162  A$intro_screen$132                 intro_screen
     00002165  A$intro_screen$133                 intro_screen
     00002166  A$intro_screen$134                 intro_screen
     00002169  A$intro_screen$135                 intro_screen
     0000216A  A$intro_screen$136                 intro_screen
     0000216B  A$intro_screen$141                 intro_screen
     0000216B  C$intro_screen.c$34$1$30           intro_screen
     0000216C  A$intro_screen$142                 intro_screen
     0000216D  A$intro_screen$143                 intro_screen
     0000216E  A$intro_screen$144                 intro_screen
     0000216F  A$intro_screen$145                 intro_screen
     00002171  A$intro_screen$150                 intro_screen
     00002171  C$intro_screen.c$35$1$30           intro_screen
     00002171  XG$screen_intro_screen_update$0$   intro_screen
     00002172  Fintro_screen$__str_1$0$0          intro_screen
     0000217D  A$level_screen$60                  level_screen
     0000217D  C$level_screen.c$14$1$14           level_screen
     0000217D  C$level_screen.c$8$0$0             level_screen
     0000217D  G$screen_level_screen_load$0$0     level_screen
     0000217D  _screen_level_screen_load          level_screen
     00002180  A$level_screen$64                  level_screen
     00002180  C$level_screen.c$16$1$14           level_screen
     00002183  A$level_screen$65                  level_screen
     00002184  A$level_screen$66                  level_screen
     00002185  A$level_screen$67                  level_screen
     00002186  A$level_screen$71                  level_screen
     00002186  C$level_screen.c$17$1$14           level_screen
     00002187  A$level_screen$72                  level_screen
     00002188  A$level_screen$73                  level_screen
     0000218B  A$level_screen$74                  level_screen
     0000218C  A$level_screen$78                  level_screen
     0000218C  C$level_screen.c$19$1$14           level_screen
     0000218F  A$level_screen$86                  level_screen
     0000218F  C$level_screen.c$20$1$14           level_screen
     0000218F  C$level_screen.c$23$1$14           level_screen
     0000218F  XG$screen_level_screen_load$0$0    level_screen
     00002192  A$level_screen$99                  level_screen
     00002192  C$level_screen.c$25$1$14           level_screen
     00002192  C$level_screen.c$30$1$16           level_screen
     00002192  G$screen_level_screen_update$0$0   level_screen
     00002192  _screen_level_screen_update        level_screen
     00002193  A$level_screen$100                 level_screen
     00002194  A$level_screen$101                 level_screen
     00002195  A$level_screen$102                 level_screen
     00002196  A$level_screen$103                 level_screen
     00002198  A$level_screen$108                 level_screen
     00002198  C$level_screen.c$31$1$16           level_screen
     00002198  XG$screen_level_screen_update$0$   level_screen
ASxxxx Linker V03.00 + NoICE + sdld,  page 104.
Hexadecimal  [32-Bits]

Area                                    Addr        Size        Decimal Bytes (Attributes)
--------------------------------        ----        ----        ------- ----- ------------
_CODE                               00000200    000030D0 =       12496. bytes (REL,CON)

      Value  Global                              Global Defined In Module
      -----  --------------------------------   ------------------------
     00002199  A$long_screen$61                   long_screen
     00002199  C$long_screen.c$10$1$6             long_screen
     00002199  C$long_screen.c$8$0$0              long_screen
     00002199  G$screen_long_screen_init$0$0      long_screen
     00002199  _screen_long_screen_init           long_screen
     0000219C  A$long_screen$62                   long_screen
     0000219E  A$long_screen$67                   long_screen
     0000219E  C$long_screen.c$11$1$6             long_screen
     0000219E  XG$screen_long_screen_init$0$0     long_screen
     0000219F  A$long_screen$80                   long_screen
     0000219F  C$long_screen.c$13$1$6             long_screen
     0000219F  C$long_screen.c$15$1$7             long_screen
     0000219F  G$screen_long_screen_load$0$0      long_screen
     0000219F  _screen_long_screen_load           long_screen
     000021A2  A$long_screen$81                   long_screen
     000021A3  A$long_screen$82                   long_screen
     000021A6  A$long_screen$83                   long_screen
     000021A7  A$long_screen$84                   long_screen
     000021AA  A$long_screen$85                   long_screen
     000021AB  A$long_screen$86                   long_screen
     000021AC  A$long_screen$91                   long_screen
     000021AC  C$long_screen.c$16$1$7             long_screen
     000021AC  XG$screen_long_screen_load$0$0     long_screen
     000021AD  Flong_screen$__str_0$0$0           long_screen
     000021BB  A$long_screen$108                  long_screen
     000021BB  C$long_screen.c$18$1$7             long_screen
     000021BB  C$long_screen.c$20$1$9             long_screen
     000021BB  G$screen_long_screen_update$0$0    long_screen
     000021BB  _screen_long_screen_update         long_screen
     000021BC  A$long_screen$109                  long_screen
     000021BD  A$long_screen$110                  long_screen
     000021BE  A$long_screen$111                  long_screen
     000021BF  A$long_screen$112                  long_screen
     000021C1  A$long_screen$117                  long_screen
     000021C1  C$long_screen.c$21$1$9             long_screen
     000021C1  XG$screen_long_screen_update$0$0   long_screen
     000021C2  A$none_screen$57                   none_screen
     000021C2  C$none_screen.c$5$0$0              none_screen
     000021C2  C$none_screen.c$7$1$6              none_screen
     000021C2  G$screen_none_screen_load$0$0      none_screen
     000021C2  _screen_none_screen_load           none_screen
     000021C5  A$none_screen$58                   none_screen
     000021C6  A$none_screen$59                   none_screen
     000021C9  A$none_screen$60                   none_screen
     000021CA  A$none_screen$61                   none_screen
     000021CD  A$none_screen$62                   none_screen
     000021CE  A$none_screen$63                   none_screen
     000021CF  A$none_screen$68                   none_screen
     000021CF  C$none_screen.c$8$1$6              none_screen
     000021CF  XG$screen_none_screen_load$0$0     none_screen
     000021D0  Fnone_screen$__str_0$0$0           none_screen
ASxxxx Linker V03.00 + NoICE + sdld,  page 105.
Hexadecimal  [32-Bits]

Area                                    Addr        Size        Decimal Bytes (Attributes)
--------------------------------        ----        ----        ------- ----- ------------
_CODE                               00000200    000030D0 =       12496. bytes (REL,CON)

      Value  Global                              Global Defined In Module
      -----  --------------------------------   ------------------------
     000021DE  A$none_screen$85                   none_screen
     000021DE  C$none_screen.c$10$1$6             none_screen
     000021DE  C$none_screen.c$12$1$8             none_screen
     000021DE  G$screen_none_screen_update$0$0    none_screen
     000021DE  _screen_none_screen_update         none_screen
     000021DF  A$none_screen$86                   none_screen
     000021E0  A$none_screen$87                   none_screen
     000021E1  A$none_screen$88                   none_screen
     000021E2  A$none_screen$89                   none_screen
     000021E4  A$none_screen$94                   none_screen
     000021E4  C$none_screen.c$13$1$8             none_screen
     000021E4  XG$screen_none_screen_update$0$0   none_screen
     000021E5  A$number_screen$59                 number_screen
     000021E5  C$number_screen.c$12$1$25          number_screen
     000021E5  C$number_screen.c$7$0$0            number_screen
     000021E5  G$screen_number_screen_load$0$0    number_screen
     000021E5  _screen_number_screen_load         number_screen
     000021E8  A$number_screen$63                 number_screen
     000021E8  C$number_screen.c$13$1$25          number_screen
     000021EA  A$number_screen$64                 number_screen
     000021EB  A$number_screen$65                 number_screen
     000021EC  A$number_screen$66                 number_screen
     000021EF  A$number_screen$67                 number_screen
     000021F0  A$number_screen$75                 number_screen
     000021F0  C$number_screen.c$14$1$25          number_screen
     000021F0  C$number_screen.c$15$1$25          number_screen
     000021F0  XG$screen_number_screen_load$0$0   number_screen
     000021F3  A$number_screen$88                 number_screen
     000021F3  C$number_screen.c$17$1$25          number_screen
     000021F3  C$number_screen.c$19$1$27          number_screen
     000021F3  G$screen_number_screen_update$0$   number_screen
     000021F3  _screen_number_screen_update       number_screen
     000021F4  A$number_screen$89                 number_screen
     000021F5  A$number_screen$90                 number_screen
     000021F6  A$number_screen$91                 number_screen
     000021F7  A$number_screen$92                 number_screen
     000021F9  A$number_screen$97                 number_screen
     000021F9  C$number_screen.c$21$1$27          number_screen
     000021F9  XG$screen_number_screen_update$0   number_screen
     000021FA  A$over_screen$64                   over_screen
     000021FA  C$over_screen.c$11$1$6             over_screen
     000021FA  C$over_screen.c$9$0$0              over_screen
     000021FA  G$screen_over_screen_init$0$0      over_screen
     000021FA  _screen_over_screen_init           over_screen
     000021FD  A$over_screen$65                   over_screen
     000021FF  A$over_screen$69                   over_screen
     000021FF  C$over_screen.c$12$1$6             over_screen
     00002202  A$over_screen$70                   over_screen
     00002205  A$over_screen$75                   over_screen
     00002205  C$over_screen.c$13$1$6             over_screen
     00002205  XG$screen_over_screen_init$0$0     over_screen
ASxxxx Linker V03.00 + NoICE + sdld,  page 106.
Hexadecimal  [32-Bits]

Area                                    Addr        Size        Decimal Bytes (Attributes)
--------------------------------        ----        ----        ------- ----- ------------
_CODE                               00000200    000030D0 =       12496. bytes (REL,CON)

      Value  Global                              Global Defined In Module
      -----  --------------------------------   ------------------------
     00002206  A$over_screen$88                   over_screen
     00002206  C$over_screen.c$15$1$6             over_screen
     00002206  C$over_screen.c$17$1$7             over_screen
     00002206  G$screen_over_screen_load$0$0      over_screen
     00002206  _screen_over_screen_load           over_screen
     00002209  A$over_screen$89                   over_screen
     0000220A  A$over_screen$90                   over_screen
     0000220D  A$over_screen$91                   over_screen
     0000220E  A$over_screen$92                   over_screen
     00002211  A$over_screen$93                   over_screen
     00002212  A$over_screen$94                   over_screen
     00002213  A$over_screen$99                   over_screen
     00002213  C$over_screen.c$18$1$7             over_screen
     00002213  XG$screen_over_screen_load$0$0     over_screen
     00002214  Fover_screen$__str_0$0$0           over_screen
     00002222  A$over_screen$116                  over_screen
     00002222  C$over_screen.c$20$1$7             over_screen
     00002222  C$over_screen.c$22$1$9             over_screen
     00002222  G$screen_over_screen_update$0$0    over_screen
     00002222  _screen_over_screen_update         over_screen
     00002223  A$over_screen$117                  over_screen
     00002224  A$over_screen$118                  over_screen
     00002225  A$over_screen$119                  over_screen
     00002226  A$over_screen$120                  over_screen
     00002228  A$over_screen$125                  over_screen
     00002228  C$over_screen.c$23$1$9             over_screen
     00002228  XG$screen_over_screen_update$0$0   over_screen
     00002229  A$play_screen$75                   play_screen
     00002229  C$play_screen.c$13$0$0             play_screen
     00002229  C$play_screen.c$15$1$14            play_screen
     00002229  G$screen_play_screen_init$0$0      play_screen
     00002229  _screen_play_screen_init           play_screen
     0000222C  A$play_screen$76                   play_screen
     0000222E  A$play_screen$81                   play_screen
     0000222E  C$play_screen.c$16$1$14            play_screen
     0000222E  XG$screen_play_screen_init$0$0     play_screen
     0000222F  A$play_screen$94                   play_screen
     0000222F  C$play_screen.c$18$1$14            play_screen
     0000222F  C$play_screen.c$20$1$15            play_screen
     0000222F  G$screen_play_screen_load$0$0      play_screen
     0000222F  _screen_play_screen_load           play_screen
     00002232  A$play_screen$98                   play_screen
     00002232  C$play_screen.c$21$1$15            play_screen
     00002235  A$play_screen$102                  play_screen
     00002235  C$play_screen.c$22$1$15            play_screen
     00002238  A$play_screen$106                  play_screen
     00002238  C$play_screen.c$24$1$15            play_screen
     0000223B  A$play_screen$107                  play_screen
     0000223E  A$play_screen$108                  play_screen
     00002240  A$play_screen$109                  play_screen
     00002241  A$play_screen$110                  play_screen
ASxxxx Linker V03.00 + NoICE + sdld,  page 107.
Hexadecimal  [32-Bits]

Area                                    Addr        Size        Decimal Bytes (Attributes)
--------------------------------        ----        ----        ------- ----- ------------
_CODE                               00000200    000030D0 =       12496. bytes (REL,CON)

      Value  Global                              Global Defined In Module
      -----  --------------------------------   ------------------------
     00002242  A$play_screen$111                  play_screen
     00002246  A$play_screen$112                  play_screen
     00002249  A$play_screen$116                  play_screen
     00002249  C$play_screen.c$25$1$15            play_screen
     0000224C  A$play_screen$117                  play_screen
     0000224F  A$play_screen$118                  play_screen
     00002251  A$play_screen$119                  play_screen
     00002252  A$play_screen$120                  play_screen
     00002253  A$play_screen$121                  play_screen
     00002254  A$play_screen$122                  play_screen
     00002255  A$play_screen$123                  play_screen
     00002256  A$play_screen$124                  play_screen
     00002257  A$play_screen$125                  play_screen
     0000225A  A$play_screen$129                  play_screen
     0000225A  C$play_screen.c$26$1$15            play_screen
     0000225B  A$play_screen$130                  play_screen
     0000225C  A$play_screen$131                  play_screen
     0000225D  A$play_screen$132                  play_screen
     0000225E  A$play_screen$133                  play_screen
     00002261  A$play_screen$137                  play_screen
     00002261  C$play_screen.c$27$1$15            play_screen
     00002262  A$play_screen$138                  play_screen
     00002263  A$play_screen$139                  play_screen
     00002264  A$play_screen$140                  play_screen
     00002265  A$play_screen$141                  play_screen
     00002266  A$play_screen$142                  play_screen
     00002269  A$play_screen$146                  play_screen
     00002269  C$play_screen.c$28$1$15            play_screen
     0000226A  A$play_screen$147                  play_screen
     0000226B  A$play_screen$148                  play_screen
     0000226C  A$play_screen$149                  play_screen
     0000226D  A$play_screen$150                  play_screen
     0000226E  A$play_screen$151                  play_screen
     0000226F  A$play_screen$152                  play_screen
     00002272  A$play_screen$156                  play_screen
     00002272  C$play_screen.c$30$1$15            play_screen
     00002275  A$play_screen$160                  play_screen
     00002275  C$play_screen.c$31$1$15            play_screen
     00002278  A$play_screen$161                  play_screen
     00002279  A$play_screen$162                  play_screen
     0000227A  A$play_screen$163                  play_screen
     0000227D  A$play_screen$164                  play_screen
     0000227E  A$play_screen$165                  play_screen
     0000227F  A$play_screen$166                  play_screen
     00002282  A$play_screen$167                  play_screen
     00002283  A$play_screen$168                  play_screen
     00002284  A$play_screen$169                  play_screen
     00002287  A$play_screen$170                  play_screen
     00002288  A$play_screen$171                  play_screen
     00002289  A$play_screen$172                  play_screen
     0000228C  A$play_screen$173                  play_screen
ASxxxx Linker V03.00 + NoICE + sdld,  page 108.
Hexadecimal  [32-Bits]

Area                                    Addr        Size        Decimal Bytes (Attributes)
--------------------------------        ----        ----        ------- ----- ------------
_CODE                               00000200    000030D0 =       12496. bytes (REL,CON)

      Value  Global                              Global Defined In Module
      -----  --------------------------------   ------------------------
     0000228D  A$play_screen$174                  play_screen
     0000228E  A$play_screen$175                  play_screen
     00002291  A$play_screen$176                  play_screen
     00002292  A$play_screen$177                  play_screen
     00002293  A$play_screen$178                  play_screen
     00002296  A$play_screen$179                  play_screen
     00002299  A$play_screen$180                  play_screen
     0000229A  A$play_screen$181                  play_screen
     0000229B  A$play_screen$185                  play_screen
     0000229B  C$play_screen.c$33$1$15            play_screen
     0000229E  A$play_screen$186                  play_screen
     0000229F  A$play_screen$187                  play_screen
     000022A0  A$play_screen$188                  play_screen
     000022A3  A$play_screen$189                  play_screen
     000022A4  A$play_screen$193                  play_screen
     000022A4  C$play_screen.c$34$1$15            play_screen
     000022A7  A$play_screen$194                  play_screen
     000022A8  A$play_screen$195                  play_screen
     000022A9  A$play_screen$196                  play_screen
     000022AC  A$play_screen$197                  play_screen
     000022AD  A$play_screen$202                  play_screen
     000022AD  C$play_screen.c$35$1$15            play_screen
     000022AD  XG$screen_play_screen_load$0$0     play_screen
     000022AE  A$play_screen$215                  play_screen
     000022AE  C$play_screen.c$37$1$15            play_screen
     000022AE  C$play_screen.c$40$1$17            play_screen
     000022AE  G$screen_play_screen_update$0$0    play_screen
     000022AE  _screen_play_screen_update         play_screen
     000022B1  A$play_screen$219                  play_screen
     000022B1  C$play_screen.c$43$1$17            play_screen
     000022B2  A$play_screen$220                  play_screen
     000022B3  A$play_screen$221                  play_screen
     000022B4  A$play_screen$222                  play_screen
     000022B5  A$play_screen$226                  play_screen
     000022B5  C$play_screen.c$41$1$17            play_screen
     000022B6  A$play_screen$227                  play_screen
     000022B7  A$play_screen$228                  play_screen
     000022B9  A$play_screen$232                  play_screen
     000022B9  C$play_screen.c$43$2$18            play_screen
     000022BB  A$play_screen$233                  play_screen
     000022BC  A$play_screen$237                  play_screen
     000022BC  C$play_screen.c$44$2$18            play_screen
     000022BD  A$play_screen$242                  play_screen
     000022BD  C$play_screen.c$47$1$17            play_screen
     000022BE  A$play_screen$243                  play_screen
     000022C1  A$play_screen$244                  play_screen
     000022C2  A$play_screen$248                  play_screen
     000022C2  C$play_screen.c$48$1$17            play_screen
     000022C3  A$play_screen$249                  play_screen
     000022C4  A$play_screen$250                  play_screen
     000022C6  A$play_screen$254                  play_screen
ASxxxx Linker V03.00 + NoICE + sdld,  page 109.
Hexadecimal  [32-Bits]

Area                                    Addr        Size        Decimal Bytes (Attributes)
--------------------------------        ----        ----        ------- ----- ------------
_CODE                               00000200    000030D0 =       12496. bytes (REL,CON)

      Value  Global                              Global Defined In Module
      -----  --------------------------------   ------------------------
     000022C6  C$play_screen.c$50$2$19            play_screen
     000022C8  A$play_screen$255                  play_screen
     000022C9  A$play_screen$259                  play_screen
     000022C9  C$play_screen.c$51$2$19            play_screen
     000022CA  A$play_screen$264                  play_screen
     000022CA  C$play_screen.c$54$1$17            play_screen
     000022CB  A$play_screen$265                  play_screen
     000022CE  A$play_screen$266                  play_screen
     000022CF  A$play_screen$270                  play_screen
     000022CF  C$play_screen.c$56$1$17            play_screen
     000022D2  A$play_screen$271                  play_screen
     000022D3  A$play_screen$272                  play_screen
     000022D5  A$play_screen$276                  play_screen
     000022D5  C$play_screen.c$58$2$20            play_screen
     000022D8  A$play_screen$277                  play_screen
     000022D9  A$play_screen$278                  play_screen
     000022DB  A$play_screen$279                  play_screen
     000022DF  A$play_screen$280                  play_screen
     000022E2  A$play_screen$281                  play_screen
     000022E3  A$play_screen$282                  play_screen
     000022E6  A$play_screen$283                  play_screen
     000022E7  A$play_screen$284                  play_screen
     000022E9  A$play_screen$288                  play_screen
     000022E9  C$play_screen.c$60$3$21            play_screen
     000022EA  A$play_screen$289                  play_screen
     000022ED  A$play_screen$290                  play_screen
     000022EE  A$play_screen$291                  play_screen
     000022EF  A$play_screen$292                  play_screen
     000022F2  A$play_screen$293                  play_screen
     000022F3  A$play_screen$294                  play_screen
     000022F4  A$play_screen$295                  play_screen
     000022F7  A$play_screen$296                  play_screen
     000022F8  A$play_screen$297                  play_screen
     000022F9  A$play_screen$301                  play_screen
     000022F9  C$play_screen.c$61$3$21            play_screen
     000022FD  A$play_screen$302                  play_screen
     00002300  A$play_screen$303                  play_screen
     00002302  A$play_screen$304                  play_screen
     00002304  A$play_screen$305                  play_screen
     00002305  A$play_screen$306                  play_screen
     00002306  A$play_screen$307                  play_screen
     00002309  A$play_screen$311                  play_screen
     00002309  C$play_screen.c$62$3$21            play_screen
     0000230C  A$play_screen$312                  play_screen
     0000230F  A$play_screen$317                  play_screen
     0000230F  C$play_screen.c$66$1$17            play_screen
     00002310  A$play_screen$318                  play_screen
     00002313  A$play_screen$319                  play_screen
     00002314  A$play_screen$323                  play_screen
     00002314  C$play_screen.c$67$1$17            play_screen
     00002315  A$play_screen$324                  play_screen
ASxxxx Linker V03.00 + NoICE + sdld,  page 110.
Hexadecimal  [32-Bits]

Area                                    Addr        Size        Decimal Bytes (Attributes)
--------------------------------        ----        ----        ------- ----- ------------
_CODE                               00000200    000030D0 =       12496. bytes (REL,CON)

      Value  Global                              Global Defined In Module
      -----  --------------------------------   ------------------------
     00002316  A$play_screen$325                  play_screen
     00002318  A$play_screen$329                  play_screen
     00002318  C$play_screen.c$69$2$22            play_screen
     00002319  A$play_screen$330                  play_screen
     0000231C  A$play_screen$331                  play_screen
     0000231D  A$play_screen$332                  play_screen
     0000231E  A$play_screen$333                  play_screen
     00002321  A$play_screen$334                  play_screen
     00002322  A$play_screen$335                  play_screen
     00002323  A$play_screen$336                  play_screen
     00002327  A$play_screen$337                  play_screen
     0000232A  A$play_screen$342                  play_screen
     0000232A  C$play_screen.c$71$1$17            play_screen
     0000232B  A$play_screen$343                  play_screen
     0000232E  A$play_screen$344                  play_screen
     0000232F  A$play_screen$348                  play_screen
     0000232F  C$play_screen.c$72$1$17            play_screen
     00002330  A$play_screen$349                  play_screen
     00002331  A$play_screen$350                  play_screen
     00002333  A$play_screen$354                  play_screen
     00002333  C$play_screen.c$74$2$23            play_screen
     00002334  A$play_screen$355                  play_screen
     00002337  A$play_screen$356                  play_screen
     00002338  A$play_screen$357                  play_screen
     00002339  A$play_screen$358                  play_screen
     0000233C  A$play_screen$359                  play_screen
     0000233D  A$play_screen$360                  play_screen
     0000233E  A$play_screen$361                  play_screen
     00002342  A$play_screen$362                  play_screen
     00002345  A$play_screen$367                  play_screen
     00002345  C$play_screen.c$77$1$17            play_screen
     00002347  A$play_screen$368                  play_screen
     00002348  A$play_screen$373                  play_screen
     00002348  C$play_screen.c$78$1$17            play_screen
     00002348  XG$screen_play_screen_update$0$0   play_screen
     00002349  A$quiz_screen$67                   quiz_screen
     00002349  C$quiz_screen.c$14$0$0             quiz_screen
     00002349  C$quiz_screen.c$16$1$14            quiz_screen
     00002349  G$screen_quiz_screen_init$0$0      quiz_screen
     00002349  _screen_quiz_screen_init           quiz_screen
     0000234C  A$quiz_screen$68                   quiz_screen
     0000234E  A$quiz_screen$73                   quiz_screen
     0000234E  C$quiz_screen.c$17$1$14            quiz_screen
     0000234E  XG$screen_quiz_screen_init$0$0     quiz_screen
     0000234F  A$quiz_screen$86                   quiz_screen
     0000234F  C$quiz_screen.c$19$1$14            quiz_screen
     0000234F  C$quiz_screen.c$21$1$15            quiz_screen
     0000234F  G$screen_quiz_screen_load$0$0      quiz_screen
     0000234F  _screen_quiz_screen_load           quiz_screen
     00002352  A$quiz_screen$87                   quiz_screen
     00002353  A$quiz_screen$91                   quiz_screen
ASxxxx Linker V03.00 + NoICE + sdld,  page 111.
Hexadecimal  [32-Bits]

Area                                    Addr        Size        Decimal Bytes (Attributes)
--------------------------------        ----        ----        ------- ----- ------------
_CODE                               00000200    000030D0 =       12496. bytes (REL,CON)

      Value  Global                              Global Defined In Module
      -----  --------------------------------   ------------------------
     00002353  C$quiz_screen.c$22$1$15            quiz_screen
     00002356  A$quiz_screen$95                   quiz_screen
     00002356  C$quiz_screen.c$24$1$15            quiz_screen
     00002359  A$quiz_screen$96                   quiz_screen
     0000235D  A$quiz_screen$97                   quiz_screen
     00002360  A$quiz_screen$98                   quiz_screen
     00002362  A$quiz_screen$102                  quiz_screen
     00002362  C$quiz_screen.c$26$2$16            quiz_screen
     00002365  A$quiz_screen$103                  quiz_screen
     00002367  A$quiz_screen$104                  quiz_screen
     00002369  A$quiz_screen$109                  quiz_screen
     00002369  C$quiz_screen.c$30$2$17            quiz_screen
     0000236C  A$quiz_screen$110                  quiz_screen
     0000236E  A$quiz_screen$115                  quiz_screen
     0000236E  C$quiz_screen.c$34$1$15            quiz_screen
     00002371  A$quiz_screen$116                  quiz_screen
     00002372  A$quiz_screen$117                  quiz_screen
     00002375  A$quiz_screen$121                  quiz_screen
     00002375  C$quiz_screen.c$37$2$18            quiz_screen
     00002378  A$quiz_screen$125                  quiz_screen
     00002378  C$quiz_screen.c$38$2$18            quiz_screen
     0000237B  A$quiz_screen$133                  quiz_screen
     0000237B  C$quiz_screen.c$43$2$19            quiz_screen
     0000237B  C$quiz_screen.c$47$1$15            quiz_screen
     0000237B  XG$screen_quiz_screen_load$0$0     quiz_screen
     0000237E  A$quiz_screen$146                  quiz_screen
     0000237E  C$quiz_screen.c$49$1$15            quiz_screen
     0000237E  C$quiz_screen.c$51$1$21            quiz_screen
     0000237E  G$screen_quiz_screen_update$0$0    quiz_screen
     0000237E  _screen_quiz_screen_update         quiz_screen
     0000237F  A$quiz_screen$147                  quiz_screen
     00002380  A$quiz_screen$148                  quiz_screen
     00002381  A$quiz_screen$149                  quiz_screen
     00002382  A$quiz_screen$150                  quiz_screen
     00002384  A$quiz_screen$155                  quiz_screen
     00002384  C$quiz_screen.c$52$1$21            quiz_screen
     00002384  XG$screen_quiz_screen_update$0$0   quiz_screen
     00002385  A$ready_screen$64                  ready_screen
     00002385  C$ready_screen.c$11$1$6            ready_screen
     00002385  C$ready_screen.c$9$0$0             ready_screen
     00002385  G$screen_ready_screen_init$0$0     ready_screen
     00002385  _screen_ready_screen_init          ready_screen
     00002388  A$ready_screen$65                  ready_screen
     0000238B  A$ready_screen$69                  ready_screen
     0000238B  C$ready_screen.c$12$1$6            ready_screen
     0000238E  A$ready_screen$70                  ready_screen
     00002390  A$ready_screen$75                  ready_screen
     00002390  C$ready_screen.c$13$1$6            ready_screen
     00002390  XG$screen_ready_screen_init$0$0    ready_screen
     00002391  A$ready_screen$88                  ready_screen
     00002391  C$ready_screen.c$15$1$6            ready_screen
ASxxxx Linker V03.00 + NoICE + sdld,  page 112.
Hexadecimal  [32-Bits]

Area                                    Addr        Size        Decimal Bytes (Attributes)
--------------------------------        ----        ----        ------- ----- ------------
_CODE                               00000200    000030D0 =       12496. bytes (REL,CON)

      Value  Global                              Global Defined In Module
      -----  --------------------------------   ------------------------
     00002391  C$ready_screen.c$17$1$7            ready_screen
     00002391  G$screen_ready_screen_load$0$0     ready_screen
     00002391  _screen_ready_screen_load          ready_screen
     00002394  A$ready_screen$89                  ready_screen
     00002395  A$ready_screen$90                  ready_screen
     00002398  A$ready_screen$91                  ready_screen
     00002399  A$ready_screen$92                  ready_screen
     0000239C  A$ready_screen$93                  ready_screen
     0000239D  A$ready_screen$94                  ready_screen
     0000239E  A$ready_screen$99                  ready_screen
     0000239E  C$ready_screen.c$18$1$7            ready_screen
     0000239E  XG$screen_ready_screen_load$0$0    ready_screen
     0000239F  Fready_screen$__str_0$0$0          ready_screen
     000023AE  A$ready_screen$116                 ready_screen
     000023AE  C$ready_screen.c$20$1$7            ready_screen
     000023AE  C$ready_screen.c$22$1$9            ready_screen
     000023AE  G$screen_ready_screen_update$0$0   ready_screen
     000023AE  _screen_ready_screen_update        ready_screen
     000023AF  A$ready_screen$117                 ready_screen
     000023B0  A$ready_screen$118                 ready_screen
     000023B1  A$ready_screen$119                 ready_screen
     000023B2  A$ready_screen$120                 ready_screen
     000023B4  A$ready_screen$125                 ready_screen
     000023B4  C$ready_screen.c$23$1$9            ready_screen
     000023B4  XG$screen_ready_screen_update$0$   ready_screen
     000023B5  A$score_screen$57                  score_screen
     000023B5  C$score_screen.c$5$0$0             score_screen
     000023B5  C$score_screen.c$7$1$6             score_screen
     000023B5  G$screen_score_screen_load$0$0     score_screen
     000023B5  _screen_score_screen_load          score_screen
     000023B8  A$score_screen$58                  score_screen
     000023B9  A$score_screen$59                  score_screen
     000023BC  A$score_screen$60                  score_screen
     000023BD  A$score_screen$61                  score_screen
     000023C0  A$score_screen$62                  score_screen
     000023C1  A$score_screen$63                  score_screen
     000023C2  A$score_screen$68                  score_screen
     000023C2  C$score_screen.c$8$1$6             score_screen
     000023C2  XG$screen_score_screen_load$0$0    score_screen
     000023C3  Fscore_screen$__str_0$0$0          score_screen
     000023D2  A$score_screen$85                  score_screen
     000023D2  C$score_screen.c$10$1$6            score_screen
     000023D2  C$score_screen.c$12$1$8            score_screen
     000023D2  G$screen_score_screen_update$0$0   score_screen
     000023D2  _screen_score_screen_update        score_screen
     000023D3  A$score_screen$86                  score_screen
     000023D4  A$score_screen$87                  score_screen
     000023D5  A$score_screen$88                  score_screen
     000023D6  A$score_screen$89                  score_screen
     000023D8  A$score_screen$94                  score_screen
     000023D8  C$score_screen.c$13$1$8            score_screen
ASxxxx Linker V03.00 + NoICE + sdld,  page 113.
Hexadecimal  [32-Bits]

Area                                    Addr        Size        Decimal Bytes (Attributes)
--------------------------------        ----        ----        ------- ----- ------------
_CODE                               00000200    000030D0 =       12496. bytes (REL,CON)

      Value  Global                              Global Defined In Module
      -----  --------------------------------   ------------------------
     000023D8  XG$screen_score_screen_update$0$   score_screen
     000023D9  A$splash_screen$64                 splash_screen
     000023D9  C$splash_screen.c$11$0$0           splash_screen
     000023D9  C$splash_screen.c$13$1$24          splash_screen
     000023D9  G$screen_splash_screen_init$0$0    splash_screen
     000023D9  _screen_splash_screen_init         splash_screen
     000023DC  A$splash_screen$65                 splash_screen
     000023DE  A$splash_screen$70                 splash_screen
     000023DE  C$splash_screen.c$14$1$24          splash_screen
     000023DE  XG$screen_splash_screen_init$0$0   splash_screen
     000023DF  A$splash_screen$83                 splash_screen
     000023DF  C$splash_screen.c$16$1$24          splash_screen
     000023DF  C$splash_screen.c$18$1$25          splash_screen
     000023DF  G$screen_splash_screen_load$0$0    splash_screen
     000023DF  _screen_splash_screen_load         splash_screen
     000023E2  A$splash_screen$87                 splash_screen
     000023E2  C$splash_screen.c$19$1$25          splash_screen
     000023E5  A$splash_screen$91                 splash_screen
     000023E5  C$splash_screen.c$20$1$25          splash_screen
     000023E8  A$splash_screen$99                 splash_screen
     000023E8  C$splash_screen.c$21$1$25          splash_screen
     000023E8  C$splash_screen.c$22$1$25          splash_screen
     000023E8  XG$screen_splash_screen_load$0$0   splash_screen
     000023EB  A$splash_screen$112                splash_screen
     000023EB  C$splash_screen.c$24$1$25          splash_screen
     000023EB  C$splash_screen.c$26$1$27          splash_screen
     000023EB  G$screen_splash_screen_update$0$   splash_screen
     000023EB  _screen_splash_screen_update       splash_screen
     000023EC  A$splash_screen$113                splash_screen
     000023ED  A$splash_screen$114                splash_screen
     000023EE  A$splash_screen$115                splash_screen
     000023EF  A$splash_screen$116                splash_screen
     000023F1  A$splash_screen$121                splash_screen
     000023F1  C$splash_screen.c$27$1$27          splash_screen
     000023F1  XG$screen_splash_screen_update$0   splash_screen
     000023F2  A$test_screen$67                   test_screen
     000023F2  C$test_screen.c$11$1$7             test_screen
     000023F2  C$test_screen.c$9$0$0              test_screen
     000023F2  G$screen_test_screen_load$0$0      test_screen
     000023F2  _screen_test_screen_load           test_screen
     000023F5  A$test_screen$68                   test_screen
     000023F6  A$test_screen$69                   test_screen
     000023F9  A$test_screen$70                   test_screen
     000023FA  A$test_screen$71                   test_screen
     000023FD  A$test_screen$72                   test_screen
     000023FE  A$test_screen$73                   test_screen
     000023FF  A$test_screen$78                   test_screen
     000023FF  C$test_screen.c$12$1$7             test_screen
     000023FF  XG$screen_test_screen_load$0$0     test_screen
     00002400  Ftest_screen$__str_0$0$0           test_screen
     00002410  A$test_screen$95                   test_screen
ASxxxx Linker V03.00 + NoICE + sdld,  page 114.
Hexadecimal  [32-Bits]

Area                                    Addr        Size        Decimal Bytes (Attributes)
--------------------------------        ----        ----        ------- ----- ------------
_CODE                               00000200    000030D0 =       12496. bytes (REL,CON)

      Value  Global                              Global Defined In Module
      -----  --------------------------------   ------------------------
     00002410  C$test_screen.c$14$1$7             test_screen
     00002410  C$test_screen.c$16$1$9             test_screen
     00002410  G$screen_test_screen_update$0$0    test_screen
     00002410  _screen_test_screen_update         test_screen
     00002413  A$test_screen$99                   test_screen
     00002413  C$test_screen.c$17$1$9             test_screen
     00002414  A$test_screen$100                  test_screen
     00002415  A$test_screen$101                  test_screen
     00002417  A$test_screen$105                  test_screen
     00002417  C$test_screen.c$19$2$10            test_screen
     0000241A  A$test_screen$106                  test_screen
     0000241B  A$test_screen$107                  test_screen
     0000241E  A$test_screen$108                  test_screen
     0000241F  A$test_screen$109                  test_screen
     00002422  A$test_screen$110                  test_screen
     00002423  A$test_screen$111                  test_screen
     00002424  A$test_screen$115                  test_screen
     00002424  C$test_screen.c$20$2$10            test_screen
     00002425  A$test_screen$116                  test_screen
     00002426  A$test_screen$117                  test_screen
     00002427  A$test_screen$118                  test_screen
     0000242A  A$test_screen$119                  test_screen
     0000242B  A$test_screen$120                  test_screen
     0000242E  A$test_screen$125                  test_screen
     0000242E  C$test_screen.c$24$2$11            test_screen
     00002431  A$test_screen$129                  test_screen
     00002431  C$test_screen.c$25$2$11            test_screen
     00002432  A$test_screen$130                  test_screen
     00002433  A$test_screen$131                  test_screen
     00002435  A$test_screen$135                  test_screen
     00002435  C$test_screen.c$27$3$12            test_screen
     00002438  A$test_screen$136                  test_screen
     00002439  A$test_screen$137                  test_screen
     0000243C  A$test_screen$138                  test_screen
     0000243D  A$test_screen$139                  test_screen
     00002440  A$test_screen$140                  test_screen
     00002441  A$test_screen$144                  test_screen
     00002441  C$test_screen.c$28$3$12            test_screen
     00002443  A$test_screen$145                  test_screen
     00002444  A$test_screen$146                  test_screen
     00002445  A$test_screen$147                  test_screen
     00002448  A$test_screen$148                  test_screen
     00002449  A$test_screen$149                  test_screen
     0000244B  A$test_screen$154                  test_screen
     0000244B  C$test_screen.c$32$3$13            test_screen
     0000244E  A$test_screen$158                  test_screen
     0000244E  C$test_screen.c$33$3$13            test_screen
     0000244F  A$test_screen$159                  test_screen
     00002450  A$test_screen$160                  test_screen
     00002452  A$test_screen$164                  test_screen
     00002452  C$test_screen.c$35$4$14            test_screen
ASxxxx Linker V03.00 + NoICE + sdld,  page 115.
Hexadecimal  [32-Bits]

Area                                    Addr        Size        Decimal Bytes (Attributes)
--------------------------------        ----        ----        ------- ----- ------------
_CODE                               00000200    000030D0 =       12496. bytes (REL,CON)

      Value  Global                              Global Defined In Module
      -----  --------------------------------   ------------------------
     00002455  A$test_screen$165                  test_screen
     00002456  A$test_screen$166                  test_screen
     00002459  A$test_screen$167                  test_screen
     0000245A  A$test_screen$168                  test_screen
     0000245D  A$test_screen$169                  test_screen
     0000245E  A$test_screen$173                  test_screen
     0000245E  C$test_screen.c$36$4$14            test_screen
     00002460  A$test_screen$174                  test_screen
     00002461  A$test_screen$175                  test_screen
     00002462  A$test_screen$176                  test_screen
     00002465  A$test_screen$177                  test_screen
     00002466  A$test_screen$178                  test_screen
     00002468  A$test_screen$183                  test_screen
     00002468  C$test_screen.c$40$4$15            test_screen
     0000246B  A$test_screen$187                  test_screen
     0000246B  C$test_screen.c$41$4$15            test_screen
     0000246C  A$test_screen$188                  test_screen
     0000246D  A$test_screen$189                  test_screen
     0000246F  A$test_screen$193                  test_screen
     0000246F  C$test_screen.c$43$5$16            test_screen
     00002472  A$test_screen$194                  test_screen
     00002473  A$test_screen$195                  test_screen
     00002476  A$test_screen$196                  test_screen
     00002477  A$test_screen$197                  test_screen
     0000247A  A$test_screen$198                  test_screen
     0000247B  A$test_screen$202                  test_screen
     0000247B  C$test_screen.c$44$5$16            test_screen
     0000247D  A$test_screen$203                  test_screen
     0000247E  A$test_screen$204                  test_screen
     0000247F  A$test_screen$205                  test_screen
     00002482  A$test_screen$206                  test_screen
     00002483  A$test_screen$207                  test_screen
     00002485  A$test_screen$212                  test_screen
     00002485  C$test_screen.c$48$5$17            test_screen
     00002488  A$test_screen$216                  test_screen
     00002488  C$test_screen.c$49$5$17            test_screen
     00002489  A$test_screen$217                  test_screen
     0000248A  A$test_screen$218                  test_screen
     0000248C  A$test_screen$222                  test_screen
     0000248C  C$test_screen.c$51$6$18            test_screen
     0000248F  A$test_screen$223                  test_screen
     00002490  A$test_screen$224                  test_screen
     00002493  A$test_screen$225                  test_screen
     00002494  A$test_screen$226                  test_screen
     00002497  A$test_screen$227                  test_screen
     00002498  A$test_screen$231                  test_screen
     00002498  C$test_screen.c$52$6$18            test_screen
     0000249A  A$test_screen$232                  test_screen
     0000249B  A$test_screen$233                  test_screen
     0000249C  A$test_screen$234                  test_screen
     0000249F  A$test_screen$235                  test_screen
ASxxxx Linker V03.00 + NoICE + sdld,  page 116.
Hexadecimal  [32-Bits]

Area                                    Addr        Size        Decimal Bytes (Attributes)
--------------------------------        ----        ----        ------- ----- ------------
_CODE                               00000200    000030D0 =       12496. bytes (REL,CON)

      Value  Global                              Global Defined In Module
      -----  --------------------------------   ------------------------
     000024A0  A$test_screen$236                  test_screen
     000024A2  A$test_screen$241                  test_screen
     000024A2  C$test_screen.c$56$6$19            test_screen
     000024A5  A$test_screen$245                  test_screen
     000024A5  C$test_screen.c$57$6$19            test_screen
     000024A6  A$test_screen$246                  test_screen
     000024A7  A$test_screen$247                  test_screen
     000024A9  A$test_screen$251                  test_screen
     000024A9  C$test_screen.c$59$7$20            test_screen
     000024AC  A$test_screen$252                  test_screen
     000024AD  A$test_screen$253                  test_screen
     000024B0  A$test_screen$254                  test_screen
     000024B1  A$test_screen$255                  test_screen
     000024B4  A$test_screen$256                  test_screen
     000024B5  A$test_screen$260                  test_screen
     000024B5  C$test_screen.c$60$7$20            test_screen
     000024B7  A$test_screen$261                  test_screen
     000024B8  A$test_screen$262                  test_screen
     000024B9  A$test_screen$263                  test_screen
     000024BC  A$test_screen$264                  test_screen
     000024BD  A$test_screen$269                  test_screen
     000024BD  C$test_screen.c$68$1$9             test_screen
     000024BE  A$test_screen$270                  test_screen
     000024BF  A$test_screen$271                  test_screen
     000024C0  A$test_screen$272                  test_screen
     000024C1  A$test_screen$273                  test_screen
     000024C3  A$test_screen$278                  test_screen
     000024C3  C$test_screen.c$69$1$9             test_screen
     000024C3  XG$screen_test_screen_update$0$0   test_screen
     000024C4  Ftest_screen$__str_1$0$0           test_screen
     000024D0  Ftest_screen$__str_2$0$0           test_screen
     000024DC  Ftest_screen$__str_3$0$0           test_screen
     000024E8  Ftest_screen$__str_4$0$0           test_screen
     000024F4  Ftest_screen$__str_5$0$0           test_screen
     00002500  Ftest_screen$__str_6$0$0           test_screen
     0000250C  A$title_screen$65                  title_screen
     0000250C  C$title_screen.c$12$0$0            title_screen
     0000250C  C$title_screen.c$14$1$44           title_screen
     0000250C  G$screen_title_screen_init$0$0     title_screen
     0000250C  _screen_title_screen_init          title_screen
     0000250F  A$title_screen$66                  title_screen
     00002511  A$title_screen$71                  title_screen
     00002511  C$title_screen.c$15$1$44           title_screen
     00002511  XG$screen_title_screen_init$0$0    title_screen
     00002512  A$title_screen$84                  title_screen
     00002512  C$title_screen.c$17$1$44           title_screen
     00002512  C$title_screen.c$19$1$45           title_screen
     00002512  G$screen_title_screen_load$0$0     title_screen
     00002512  _screen_title_screen_load          title_screen
     00002515  A$title_screen$88                  title_screen
     00002515  C$title_screen.c$20$1$45           title_screen
ASxxxx Linker V03.00 + NoICE + sdld,  page 117.
Hexadecimal  [32-Bits]

Area                                    Addr        Size        Decimal Bytes (Attributes)
--------------------------------        ----        ----        ------- ----- ------------
_CODE                               00000200    000030D0 =       12496. bytes (REL,CON)

      Value  Global                              Global Defined In Module
      -----  --------------------------------   ------------------------
     00002518  A$title_screen$92                  title_screen
     00002518  C$title_screen.c$21$1$45           title_screen
     0000251B  A$title_screen$93                  title_screen
     0000251C  A$title_screen$94                  title_screen
     0000251F  A$title_screen$95                  title_screen
     00002520  A$title_screen$96                  title_screen
     00002523  A$title_screen$97                  title_screen
     00002524  A$title_screen$98                  title_screen
     00002525  A$title_screen$106                 title_screen
     00002525  C$title_screen.c$22$1$45           title_screen
     00002525  C$title_screen.c$23$1$45           title_screen
     00002525  XG$screen_title_screen_load$0$0    title_screen
     00002528  Ftitle_screen$__str_0$0$0          title_screen
     0000252D  A$title_screen$123                 title_screen
     0000252D  C$title_screen.c$25$1$45           title_screen
     0000252D  C$title_screen.c$27$1$47           title_screen
     0000252D  G$screen_title_screen_update$0$0   title_screen
     0000252D  _screen_title_screen_update        title_screen
     00002530  A$title_screen$127                 title_screen
     00002530  C$title_screen.c$28$1$47           title_screen
     00002531  A$title_screen$128                 title_screen
     00002532  A$title_screen$129                 title_screen
     00002533  A$title_screen$130                 title_screen
     00002534  A$title_screen$131                 title_screen
     00002536  A$title_screen$136                 title_screen
     00002536  C$title_screen.c$29$1$47           title_screen
     00002536  XG$screen_title_screen_update$0$   title_screen
     00002537  G$font__palette__bin$0$0           gfx
     00002537  _font__palette__bin                gfx
     00002547  G$font__tilemap__bin$0$0           gfx
     00002547  _font__tilemap__bin                gfx
     000025C7  G$font__tiles__psgcompr$0$0        gfx
     000025C7  _font__tiles__psgcompr             gfx
     0000285E  G$right__palette__bin$0$0          gfx
     0000285E  _right__palette__bin               gfx
     0000286E  G$right__tiles__psgcompr$0$0       gfx
     0000286E  _right__tiles__psgcompr            gfx
     0000291D  G$select__palette__bin$0$0         gfx
     0000291D  _select__palette__bin              gfx
     00002928  G$select__tiles__psgcompr$0$0      gfx
     00002928  _select__tiles__psgcompr           gfx
     000029CE  G$wrong__palette__bin$0$0          gfx
     000029CE  _wrong__palette__bin               gfx
     000029DE  G$wrong__tiles__psgcompr$0$0       gfx
     000029DE  _wrong__tiles__psgcompr            gfx
     00002A92  G$sfx_cheat_psg$0$0                psg
     00002A92  _sfx_cheat_psg                     psg
     00002AB5  G$sfx_right_psg$0$0                psg
     00002AB5  _sfx_right_psg                     psg
     00002AD5  G$sfx_wrong_psg$0$0                psg
     00002AD5  _sfx_wrong_psg                     psg
ASxxxx Linker V03.00 + NoICE + sdld,  page 118.
Hexadecimal  [32-Bits]

Area                                    Addr        Size        Decimal Bytes (Attributes)
--------------------------------        ----        ----        ------- ----- ------------
_CODE                               00000200    000030D0 =       12496. bytes (REL,CON)

      Value  Global                              Global Defined In Module
      -----  --------------------------------   ------------------------
     00002AF8  __divuint                          
     00002B00  __divuchar                         
     00002B07  __divu8                            
     00002B0A  __divu16                           
     00002B39  _UNSAFE_SMS_copySpritestoSAT       SMSlib_UNSAFE
     00002B51  _UNSAFE_SMS_VRAMmemcpy32           SMSlib_UNSAFE
     00002B6E  _UNSAFE_SMS_VRAMmemcpy64           SMSlib_UNSAFE
     00002B8B  _UNSAFE_SMS_VRAMmemcpy128          SMSlib_UNSAFE
     00002BA8  _SMS_init                          SMSlib
     00002BFC  _VDPReg_init                       SMSlib
     00002C07  _SMS_VDPType                       SMSlib
     00002C0F  _SMS_VDPturnOnFeature              SMSlib
     00002C26  _SMS_VDPturnOffFeature             SMSlib
     00002C3F  _SMS_setBGScrollX                  SMSlib
     00002C49  _SMS_setBGScrollY                  SMSlib
     00002C53  _SMS_setBackdropColor              SMSlib
     00002C5D  _SMS_useFirstHalfTilesforSprites   SMSlib
     00002C71  _SMS_setSpriteMode                 SMSlib
     00002CB6  _SMS_setBGPaletteColor             SMSlib
     00002CCA  _SMS_setSpritePaletteColor         SMSlib
     00002CDE  _SMS_loadBGPalette                 SMSlib
     00002CF2  _SMS_loadSpritePalette             SMSlib
     00002D06  _SMS_setColor                      SMSlib
     00002D0A  _SMS_initSprites                   SMSlib
     00002D10  _SMS_addSprite                     SMSlib
     00002D65  _SMS_finalizeSprites               SMSlib
     00002D77  _SMS_copySpritestoSAT              SMSlib
     00002DA0  _SMS_waitForVBlank                 SMSlib
     00002DAD  _SMS_getKeysStatus                 SMSlib
     00002DB1  _SMS_getKeysPressed                SMSlib
     00002DCE  _SMS_getKeysHeld                   SMSlib
     00002DE5  _SMS_getKeysReleased               SMSlib
     00002E02  _SMS_queryPauseRequested           SMSlib
     00002E0A  _SMS_resetPauseRequest             SMSlib
     00002E10  _SMS_setLineInterruptHandler       SMSlib
     00002E21  _SMS_setLineCounter                SMSlib
     00002E30  _SMS_getVCount                     SMSlib
     00002E34  _SMS_getHCount                     SMSlib
     00002E38  _SMS_isr                           SMSlib
     00002E6E  _SMS_nmi_isr                       SMSlib
     00002E81  _rand                              rand
     00002F3D  _srand                             rand
     00002F5B  _SMS_loadSTMcompressedTileMapAre   SMSlib_STMcomp
     0000313C  ___sdcc_call_hl                    
     0000313D  _SMS_loadPSGaidencompressedTiles   SMSlib_PSGaiden
     0000321F  __modschar                         
     0000322C  __modsint                          
     00003238  _SMS_loadTileMap                   SMSlib_loadTileMap
     00003271  __moduchar                         
     0000327D  __moduint                          
     00003288  __divsint                          
ASxxxx Linker V03.00 + NoICE + sdld,  page 119.
Hexadecimal  [32-Bits]

Area                                    Addr        Size        Decimal Bytes (Attributes)
--------------------------------        ----        ----        ------- ----- ------------
_CODE                               00000200    000030D0 =       12496. bytes (REL,CON)

      Value  Global                              Global Defined In Module
      -----  --------------------------------   ------------------------
     00003291  __divschar                         
     00003298  __div8                             
     0000329C  __div_signexte                     
     000032A0  __div16                            
     000032C6  __get_remainder                    

ASxxxx Linker V03.00 + NoICE + sdld,  page 120.
Hexadecimal  [32-Bits]

Area                                    Addr        Size        Decimal Bytes (Attributes)
--------------------------------        ----        ----        ------- ----- ------------
_HEADER0                            00000000    00000006 =           6. bytes (ABS,CON)

      Value  Global                              Global Defined In Module
      -----  --------------------------------   ------------------------
     00000006  _SMS_crt0_RST08                    crt0

ASxxxx Linker V03.00 + NoICE + sdld,  page 121.
Hexadecimal  [32-Bits]

Area                                    Addr        Size        Decimal Bytes (Attributes)
--------------------------------        ----        ----        ------- ----- ------------
_HEADER1                            00000000    00000009 =           9. bytes (ABS,CON)

      Value  Global                              Global Defined In Module
      -----  --------------------------------   ------------------------
     00000011  _SMS_crt0_RST18                    crt0

ASxxxx Linker V03.00 + NoICE + sdld,  page 122.
Hexadecimal  [32-Bits]

Area                                    Addr        Size        Decimal Bytes (Attributes)
--------------------------------        ----        ----        ------- ----- ------------
_HEADER2                            00000000    0000000A =          10. bytes (ABS,CON)

      Value  Global                              Global Defined In Module
      -----  --------------------------------   ------------------------
ASxxxx Linker V03.00 + NoICE + sdld,  page 123.
Hexadecimal  [32-Bits]

Area                                    Addr        Size        Decimal Bytes (Attributes)
--------------------------------        ----        ----        ------- ----- ------------
_HEADER3                            00000000    00000003 =           3. bytes (ABS,CON)

      Value  Global                              Global Defined In Module
      -----  --------------------------------   ------------------------
ASxxxx Linker V03.00 + NoICE + sdld,  page 124.
Hexadecimal  [32-Bits]

Area                                    Addr        Size        Decimal Bytes (Attributes)
--------------------------------        ----        ----        ------- ----- ------------
_HEADER4                            00000000    00000003 =           3. bytes (ABS,CON)

      Value  Global                              Global Defined In Module
      -----  --------------------------------   ------------------------
ASxxxx Linker V03.00 + NoICE + sdld,  page 125.
Hexadecimal  [32-Bits]

Area                                    Addr        Size        Decimal Bytes (Attributes)
--------------------------------        ----        ----        ------- ----- ------------
_HEADER5                            00000000    0000012A =         298. bytes (ABS,CON)

      Value  Global                              Global Defined In Module
      -----  --------------------------------   ------------------------
     00000099  _OUTI128                           crt0
     00000119  _OUTI64                            crt0
     00000159  _OUTI32                            crt0
     00000199  _outi_block                        crt0

ASxxxx Linker V03.00 + NoICE + sdld,  page 126.
Hexadecimal  [32-Bits]

Area                                    Addr        Size        Decimal Bytes (Attributes)
--------------------------------        ----        ----        ------- ----- ------------
_INITIALIZER                        000032D0    00000046 =          70. bytes (REL,CON)

      Value  Global                              Global Defined In Module
      -----  --------------------------------   ------------------------
     000032D0  Finput_manager$__xinit_curr_joyp   input_manager
     000032D2  Finput_manager$__xinit_prev_joyp   input_manager
     000032D4  Fselect_manager$__xinit_select_h   select_manager
     000032D8  Fselect_manager$__xinit_select_t   select_manager
     000032E4  Fselect_manager$__xinit_select_d   select_manager
     000032FC  Fselect_manager$__xinit_select_l   select_manager
     00003300  Fsound_object$__xinit_sound_samp   sound_object
     0000330C  Ffunc_screen$__xinit_index$0$0     func_screen
     0000330D  Ftest_screen$__xinit_index$0$0     test_screen
ASxxxx Linker V03.00 + NoICE + sdld,  page 127.
Hexadecimal  [32-Bits]

Area                                    Addr        Size        Decimal Bytes (Attributes)
--------------------------------        ----        ----        ------- ----- ------------
_GSINIT                             00003316    0000000F =          15. bytes (REL,CON)

      Value  Global                              Global Defined In Module
      -----  --------------------------------   ------------------------
     00003316  gsinit                             crt0

ASxxxx Linker V03.00 + NoICE + sdld,  page 128.
Hexadecimal  [32-Bits]

Area                                    Addr        Size        Decimal Bytes (Attributes)
--------------------------------        ----        ----        ------- ----- ------------
_GSFINAL                            00003325    00000001 =           1. bytes (REL,CON)

      Value  Global                              Global Defined In Module
      -----  --------------------------------   ------------------------
ASxxxx Linker V03.00 + NoICE + sdld,  page 129.
Hexadecimal  [32-Bits]

Area                                    Addr        Size        Decimal Bytes (Attributes)
--------------------------------        ----        ----        ------- ----- ------------
_DATA                               0000C000    0000029F =         671. bytes (REL,CON)

      Value  Global                              Global Defined In Module
      -----  --------------------------------   ------------------------
     0000C000  _PSGMusicStatus                    PSGlib
     0000C001  _PSGMusicStart                     PSGlib
     0000C003  _PSGMusicPointer                   PSGlib
     0000C005  _PSGMusicLoopPoint                 PSGlib
     0000C007  _PSGMusicSkipFrames                PSGlib
     0000C008  _PSGLoopFlag                       PSGlib
     0000C009  _PSGMusicLastLatch                 PSGlib
     0000C00A  _PSGMusicVolumeAttenuation         PSGlib
     0000C00B  _PSGMusicSubstringLen              PSGlib
     0000C00C  _PSGMusicSubstringRetAddr          PSGlib
     0000C00E  _PSGChan0Volume                    PSGlib
     0000C00F  _PSGChan1Volume                    PSGlib
     0000C010  _PSGChan2Volume                    PSGlib
     0000C011  _PSGChan3Volume                    PSGlib
     0000C012  _PSGChan2LowTone                   PSGlib
     0000C013  _PSGChan2HighTone                  PSGlib
     0000C014  _PSGChan3LowTone                   PSGlib
     0000C015  _PSGChannel2SFX                    PSGlib
     0000C016  _PSGChannel3SFX                    PSGlib
     0000C017  _PSGSFXChan2Volume                 PSGlib
     0000C018  _PSGSFXChan3Volume                 PSGlib
     0000C019  _PSGSFXStatus                      PSGlib
     0000C01A  _PSGSFXStart                       PSGlib
     0000C01C  _PSGSFXPointer                     PSGlib
     0000C01E  _PSGSFXLoopPoint                   PSGlib
     0000C020  _PSGSFXSkipFrames                  PSGlib
     0000C021  _PSGSFXLoopFlag                    PSGlib
     0000C022  _PSGSFXSubstringLen                PSGlib
     0000C023  _PSGSFXSubstringRetAddr            PSGlib
     0000C025  Factor_manager$draw_method$0$0     actor_manager
     0000C045  Faudio_manager$prevRight$0$0       audio_manager
     0000C046  Faudio_manager$currRight$0$0       audio_manager
     0000C047  Faudio_manager$prevWrong$0$0       audio_manager
     0000C048  Faudio_manager$currWrong$0$0       audio_manager
     0000C049  G$cheat_count$0$0                  global_manager
     0000C049  _cheat_count                       global_manager
     0000C04A  G$local_cheat$0$0                  global_manager
     0000C04A  _local_cheat                       global_manager
     0000C04B  G$hacker_debug$0$0                 hack_manager
     0000C04B  _hacker_debug                      hack_manager
     0000C04C  G$hacker_cheat$0$0                 hack_manager
     0000C04C  _hacker_cheat                      hack_manager
     0000C04D  G$hacker_random$0$0                hack_manager
     0000C04D  _hacker_random                     hack_manager
     0000C04E  G$hacker_music$0$0                 hack_manager
     0000C04E  _hacker_music                      hack_manager
     0000C04F  G$hacker_sound$0$0                 hack_manager
     0000C04F  _hacker_sound                      hack_manager
     0000C050  G$hacker_extra$0$0                 hack_manager
     0000C050  _hacker_extra                      hack_manager
ASxxxx Linker V03.00 + NoICE + sdld,  page 130.
Hexadecimal  [32-Bits]

Area                                    Addr        Size        Decimal Bytes (Attributes)
--------------------------------        ----        ----        ------- ----- ------------
_DATA                               0000C000    0000029F =         671. bytes (REL,CON)

      Value  Global                              Global Defined In Module
      -----  --------------------------------   ------------------------
     0000C051  G$quiz_questions$0$0               quiz_manager
     0000C051  _quiz_questions                    quiz_manager
     0000C083  G$quiz_options$0$0                 quiz_manager
     0000C083  _quiz_options                      quiz_manager
     0000C14B  G$option_height$0$0                quiz_manager
     0000C14B  _option_height                     quiz_manager
     0000C14F  G$question_index$0$0               quiz_manager
     0000C14F  _question_index                    quiz_manager
     0000C150  G$question_long$0$0                quiz_manager
     0000C150  _question_long                     quiz_manager
     0000C151  G$question_count$0$0               quiz_manager
     0000C151  _question_count                    quiz_manager
     0000C152  G$question_value$0$0               quiz_manager
     0000C152  _question_value                    quiz_manager
     0000C153  G$option1_value$0$0                quiz_manager
     0000C153  _option1_value                     quiz_manager
     0000C154  G$option2_value$0$0                quiz_manager
     0000C154  _option2_value                     quiz_manager
     0000C155  G$option3_value$0$0                quiz_manager
     0000C155  _option3_value                     quiz_manager
     0000C156  G$option4_value$0$0                quiz_manager
     0000C156  _option4_value                     quiz_manager
     0000C157  G$answer_index$0$0                 quiz_manager
     0000C157  _answer_index                      quiz_manager
     0000C158  G$answer_value$0$0                 quiz_manager
     0000C158  _answer_value                      quiz_manager
     0000C159  G$score_player$0$0                 score_manager
     0000C159  _score_player                      score_manager
     0000C15A  G$diff_select$0$0                  select_manager
     0000C15A  _diff_select                       select_manager
     0000C15B  G$long_select$0$0                  select_manager
     0000C15B  _long_select                       select_manager
     0000C15C  G$quiz_select$0$0                  select_manager
     0000C15C  _quiz_select                       select_manager
     0000C15D  G$select_choice$0$0                select_manager
     0000C15D  _select_choice                     select_manager
     0000C15E  G$select_height$0$0                select_manager
     0000C15E  _select_height                     select_manager
     0000C15F  G$select_option$0$0                select_manager
     0000C15F  _select_option                     select_manager
     0000C163  Fscreen_manager$curr_screen_type   screen_manager
     0000C164  Fscreen_manager$next_screen_type   screen_manager
     0000C165  Fscreen_manager$load_method$0$0    screen_manager
     0000C183  Fscreen_manager$update_method$0$   screen_manager
     0000C1A1  G$screen_bases_screen_count$0$0    timer_manager
     0000C1A1  _screen_bases_screen_count         timer_manager
     0000C1A2  G$screen_bases_screen_timer$0$0    timer_manager
     0000C1A2  _screen_bases_screen_timer         timer_manager
     0000C1A4  Fdiff_screen$screen_diff_screen_   diff_screen
     0000C1A5  Fintro_screen$screen_intro_scree   intro_screen
     0000C1A6  Fintro_screen$cheat_count$0$0      intro_screen
ASxxxx Linker V03.00 + NoICE + sdld,  page 131.
Hexadecimal  [32-Bits]

Area                                    Addr        Size        Decimal Bytes (Attributes)
--------------------------------        ----        ----        ------- ----- ------------
_DATA                               0000C000    0000029F =         671. bytes (REL,CON)

      Value  Global                              Global Defined In Module
      -----  --------------------------------   ------------------------
     0000C1A7  Fintro_screen$local_cheat$0$0      intro_screen
     0000C1A8  Flong_screen$screen_long_screen_   long_screen
     0000C1A9  Fover_screen$screen_over_screen_   over_screen
     0000C1AA  Fover_screen$screen_over_screen_   over_screen
     0000C1AC  Fplay_screen$screen_cheat_screen   play_screen
     0000C1AD  Fquiz_screen$screen_quiz_screen_   quiz_screen
     0000C1AE  Fquiz_screen$screen_quiz_screen_   quiz_screen
     0000C1AF  Fready_screen$screen_ready_scree   ready_screen
     0000C1B1  Fready_screen$screen_ready_scree   ready_screen
     0000C1B2  Fsplash_screen$screen_splash_scr   splash_screen
     0000C1B3  Ftitle_screen$screen_title_scree   title_screen
     0000C1B4  _VDPBlank                          SMSlib
     0000C1B5  _SMS_VDPFlags                      SMSlib
     0000C1B6  _PauseRequested                    SMSlib
     0000C1B7  _VDPType                           SMSlib
     0000C1B8  _KeysStatus                        SMSlib
     0000C1BA  _PreviousKeysStatus                SMSlib
     0000C1BC  _SpriteTableY                      SMSlib
     0000C1FC  _SpriteTableXN                     SMSlib
     0000C27C  _SpriteNextFree                    SMSlib
     0000C27D  _SMS_theLineInterruptHandler       SMSlib
     0000C27F  _decompBuffer                      SMSlib_PSGaiden
ASxxxx Linker V03.00 + NoICE + sdld,  page 132.
Hexadecimal  [32-Bits]

Area                                    Addr        Size        Decimal Bytes (Attributes)
--------------------------------        ----        ----        ------- ----- ------------
_INITIALIZED                        0000C29F    00000046 =          70. bytes (REL,CON)

      Value  Global                              Global Defined In Module
      -----  --------------------------------   ------------------------
     0000C29F  Finput_manager$curr_joypad1$0$0    input_manager
     0000C2A1  Finput_manager$prev_joypad1$0$0    input_manager
     0000C2A3  G$select_high_option$0$0           select_manager
     0000C2A3  _select_high_option                select_manager
     0000C2A7  G$select_text_option$0$0           select_manager
     0000C2A7  _select_text_option                select_manager
     0000C2B3  G$select_diff_option$0$0           select_manager
     0000C2B3  _select_diff_option                select_manager
     0000C2CB  G$select_long_option$0$0           select_manager
     0000C2CB  _select_long_option                select_manager
     0000C2CF  G$sound_sample_data$0$0            sound_object
     0000C2CF  _sound_sample_data                 sound_object
     0000C2DB  Ffunc_screen$index$0$0             func_screen
     0000C2DC  Ftest_screen$index$0$0             test_screen
     0000C2DD  _VDPReg                            SMSlib
     0000C2DF  _spritesHeight                     SMSlib
     0000C2E0  _spritesWidth                      SMSlib

ASxxxx Linker V03.00 + NoICE + sdld,  page 133.
Hexadecimal  [32-Bits]

Area                                    Addr        Size        Decimal Bytes (Attributes)
--------------------------------        ----        ----        ------- ----- ------------
_BANK2                              00008000    00003C8C =       15500. bytes (REL,CON)

      Value  Global                              Global Defined In Module
      -----  --------------------------------   ------------------------
     00008000  G$bank2_quiz_line1$0$0             bank2
     00008000  _bank2_quiz_line1                  bank2
     0000860E  G$bank2_quiz_line2$0$0             bank2
     0000860E  _bank2_quiz_line2                  bank2
     00008C1C  G$bank2_quiz_line3$0$0             bank2
     00008C1C  _bank2_quiz_line3                  bank2
     0000922A  G$bank2_opt1_line1$0$0             bank2
     0000922A  _bank2_opt1_line1                  bank2
     000095AE  G$bank2_opt1_line2$0$0             bank2
     000095AE  _bank2_opt1_line2                  bank2
     00009932  G$bank2_opt1_line3$0$0             bank2
     00009932  _bank2_opt1_line3                  bank2
     00009CB6  G$bank2_opt2_line1$0$0             bank2
     00009CB6  _bank2_opt2_line1                  bank2
     0000A03A  G$bank2_opt2_line2$0$0             bank2
     0000A03A  _bank2_opt2_line2                  bank2
     0000A3BE  G$bank2_opt2_line3$0$0             bank2
     0000A3BE  _bank2_opt2_line3                  bank2
     0000A742  G$bank2_opt3_line1$0$0             bank2
     0000A742  _bank2_opt3_line1                  bank2
     0000AAC6  G$bank2_opt3_line2$0$0             bank2
     0000AAC6  _bank2_opt3_line2                  bank2
     0000AE4A  G$bank2_opt3_line3$0$0             bank2
     0000AE4A  _bank2_opt3_line3                  bank2
     0000B1CE  G$bank2_opt4_line1$0$0             bank2
     0000B1CE  _bank2_opt4_line1                  bank2
     0000B552  G$bank2_opt4_line2$0$0             bank2
     0000B552  _bank2_opt4_line2                  bank2
     0000B8D6  G$bank2_opt4_line3$0$0             bank2
     0000B8D6  _bank2_opt4_line3                  bank2
     0000BC5A  G$bank2_soln$0$0                   bank2
     0000BC5A  _bank2_soln                        bank2

ASxxxx Linker V03.00 + NoICE + sdld,  page 134.
Hexadecimal  [32-Bits]

Area                                    Addr        Size        Decimal Bytes (Attributes)
--------------------------------        ----        ----        ------- ----- ------------
_BANK3                              00008000    00003C8C =       15500. bytes (REL,CON)

      Value  Global                              Global Defined In Module
      -----  --------------------------------   ------------------------
     00008000  G$bank3_quiz_line1$0$0             bank3
     00008000  _bank3_quiz_line1                  bank3
     0000860E  G$bank3_quiz_line2$0$0             bank3
     0000860E  _bank3_quiz_line2                  bank3
     00008C1C  G$bank3_quiz_line3$0$0             bank3
     00008C1C  _bank3_quiz_line3                  bank3
     0000922A  G$bank3_opt1_line1$0$0             bank3
     0000922A  _bank3_opt1_line1                  bank3
     000095AE  G$bank3_opt1_line2$0$0             bank3
     000095AE  _bank3_opt1_line2                  bank3
     00009932  G$bank3_opt1_line3$0$0             bank3
     00009932  _bank3_opt1_line3                  bank3
     00009CB6  G$bank3_opt2_line1$0$0             bank3
     00009CB6  _bank3_opt2_line1                  bank3
     0000A03A  G$bank3_opt2_line2$0$0             bank3
     0000A03A  _bank3_opt2_line2                  bank3
     0000A3BE  G$bank3_opt2_line3$0$0             bank3
     0000A3BE  _bank3_opt2_line3                  bank3
     0000A742  G$bank3_opt3_line1$0$0             bank3
     0000A742  _bank3_opt3_line1                  bank3
     0000AAC6  G$bank3_opt3_line2$0$0             bank3
     0000AAC6  _bank3_opt3_line2                  bank3
     0000AE4A  G$bank3_opt3_line3$0$0             bank3
     0000AE4A  _bank3_opt3_line3                  bank3
     0000B1CE  G$bank3_opt4_line1$0$0             bank3
     0000B1CE  _bank3_opt4_line1                  bank3
     0000B552  G$bank3_opt4_line2$0$0             bank3
     0000B552  _bank3_opt4_line2                  bank3
     0000B8D6  G$bank3_opt4_line3$0$0             bank3
     0000B8D6  _bank3_opt4_line3                  bank3
     0000BC5A  G$bank3_soln$0$0                   bank3
     0000BC5A  _bank3_soln                        bank3

ASxxxx Linker V03.00 + NoICE + sdld,  page 135.
Hexadecimal  [32-Bits]

Area                                    Addr        Size        Decimal Bytes (Attributes)
--------------------------------        ----        ----        ------- ----- ------------
_BANK4                              00008000    00003C8C =       15500. bytes (REL,CON)

      Value  Global                              Global Defined In Module
      -----  --------------------------------   ------------------------
     00008000  G$bank4_quiz_line1$0$0             bank4
     00008000  _bank4_quiz_line1                  bank4
     0000860E  G$bank4_quiz_line2$0$0             bank4
     0000860E  _bank4_quiz_line2                  bank4
     00008C1C  G$bank4_quiz_line3$0$0             bank4
     00008C1C  _bank4_quiz_line3                  bank4
     0000922A  G$bank4_opt1_line1$0$0             bank4
     0000922A  _bank4_opt1_line1                  bank4
     000095AE  G$bank4_opt1_line2$0$0             bank4
     000095AE  _bank4_opt1_line2                  bank4
     00009932  G$bank4_opt1_line3$0$0             bank4
     00009932  _bank4_opt1_line3                  bank4
     00009CB6  G$bank4_opt2_line1$0$0             bank4
     00009CB6  _bank4_opt2_line1                  bank4
     0000A03A  G$bank4_opt2_line2$0$0             bank4
     0000A03A  _bank4_opt2_line2                  bank4
     0000A3BE  G$bank4_opt2_line3$0$0             bank4
     0000A3BE  _bank4_opt2_line3                  bank4
     0000A742  G$bank4_opt3_line1$0$0             bank4
     0000A742  _bank4_opt3_line1                  bank4
     0000AAC6  G$bank4_opt3_line2$0$0             bank4
     0000AAC6  _bank4_opt3_line2                  bank4
     0000AE4A  G$bank4_opt3_line3$0$0             bank4
     0000AE4A  _bank4_opt3_line3                  bank4
     0000B1CE  G$bank4_opt4_line1$0$0             bank4
     0000B1CE  _bank4_opt4_line1                  bank4
     0000B552  G$bank4_opt4_line2$0$0             bank4
     0000B552  _bank4_opt4_line2                  bank4
     0000B8D6  G$bank4_opt4_line3$0$0             bank4
     0000B8D6  _bank4_opt4_line3                  bank4
     0000BC5A  G$bank4_soln$0$0                   bank4
     0000BC5A  _bank4_soln                        bank4

ASxxxx Linker V03.00 + NoICE + sdld,  page 136.
Hexadecimal  [32-Bits]

Area                                    Addr        Size        Decimal Bytes (Attributes)
--------------------------------        ----        ----        ------- ----- ------------
_BANK5                              00008000    00003C8C =       15500. bytes (REL,CON)

      Value  Global                              Global Defined In Module
      -----  --------------------------------   ------------------------
     00008000  G$bank5_quiz_line1$0$0             bank5
     00008000  _bank5_quiz_line1                  bank5
     0000860E  G$bank5_quiz_line2$0$0             bank5
     0000860E  _bank5_quiz_line2                  bank5
     00008C1C  G$bank5_quiz_line3$0$0             bank5
     00008C1C  _bank5_quiz_line3                  bank5
     0000922A  G$bank5_opt1_line1$0$0             bank5
     0000922A  _bank5_opt1_line1                  bank5
     000095AE  G$bank5_opt1_line2$0$0             bank5
     000095AE  _bank5_opt1_line2                  bank5
     00009932  G$bank5_opt1_line3$0$0             bank5
     00009932  _bank5_opt1_line3                  bank5
     00009CB6  G$bank5_opt2_line1$0$0             bank5
     00009CB6  _bank5_opt2_line1                  bank5
     0000A03A  G$bank5_opt2_line2$0$0             bank5
     0000A03A  _bank5_opt2_line2                  bank5
     0000A3BE  G$bank5_opt2_line3$0$0             bank5
     0000A3BE  _bank5_opt2_line3                  bank5
     0000A742  G$bank5_opt3_line1$0$0             bank5
     0000A742  _bank5_opt3_line1                  bank5
     0000AAC6  G$bank5_opt3_line2$0$0             bank5
     0000AAC6  _bank5_opt3_line2                  bank5
     0000AE4A  G$bank5_opt3_line3$0$0             bank5
     0000AE4A  _bank5_opt3_line3                  bank5
     0000B1CE  G$bank5_opt4_line1$0$0             bank5
     0000B1CE  _bank5_opt4_line1                  bank5
     0000B552  G$bank5_opt4_line2$0$0             bank5
     0000B552  _bank5_opt4_line2                  bank5
     0000B8D6  G$bank5_opt4_line3$0$0             bank5
     0000B8D6  _bank5_opt4_line3                  bank5
     0000BC5A  G$bank5_soln$0$0                   bank5
     0000BC5A  _bank5_soln                        bank5

ASxxxx Linker V03.00 + NoICE + sdld,  page 137.
Hexadecimal  [32-Bits]

Area                                    Addr        Size        Decimal Bytes (Attributes)
--------------------------------        ----        ----        ------- ----- ------------
_BANK6                              00008000    00002713 =       10003. bytes (REL,CON)

      Value  Global                              Global Defined In Module
      -----  --------------------------------   ------------------------
     00008000  G$actor00__palette__bin$0$0        bank6
     00008000  _actor00__palette__bin             bank6
     00008010  G$actor00__tilemap__stmcompr$0$0   bank6
     00008010  _actor00__tilemap__stmcompr        bank6
     00008065  G$actor00__tiles__psgcompr$0$0     bank6
     00008065  _actor00__tiles__psgcompr          bank6
     00008932  G$actor01__palette__bin$0$0        bank6
     00008932  _actor01__palette__bin             bank6
     00008942  G$actor01__tilemap__stmcompr$0$0   bank6
     00008942  _actor01__tilemap__stmcompr        bank6
     0000898D  G$actor01__tiles__psgcompr$0$0     bank6
     0000898D  _actor01__tiles__psgcompr          bank6
     000090A9  G$actor02__palette__bin$0$0        bank6
     000090A9  _actor02__palette__bin             bank6
     000090B9  G$actor02__tilemap__stmcompr$0$0   bank6
     000090B9  _actor02__tilemap__stmcompr        bank6
     00009114  G$actor02__tiles__psgcompr$0$0     bank6
     00009114  _actor02__tiles__psgcompr          bank6
     00009B29  G$actor03__palette__bin$0$0        bank6
     00009B29  _actor03__palette__bin             bank6
     00009B39  G$actor03__tilemap__stmcompr$0$0   bank6
     00009B39  _actor03__tilemap__stmcompr        bank6
     00009BA2  G$actor03__tiles__psgcompr$0$0     bank6
     00009BA2  _actor03__tiles__psgcompr          bank6
ASxxxx Linker V03.00 + NoICE + sdld,  page 138.
Hexadecimal  [32-Bits]

Area                                    Addr        Size        Decimal Bytes (Attributes)
--------------------------------        ----        ----        ------- ----- ------------
_BANK7                              00008000    00002962 =       10594. bytes (REL,CON)

      Value  Global                              Global Defined In Module
      -----  --------------------------------   ------------------------
     00008000  G$actor04__palette__bin$0$0        bank7
     00008000  _actor04__palette__bin             bank7
     00008010  G$actor04__tilemap__stmcompr$0$0   bank7
     00008010  _actor04__tilemap__stmcompr        bank7
     0000807B  G$actor04__tiles__psgcompr$0$0     bank7
     0000807B  _actor04__tiles__psgcompr          bank7
     00008AC6  G$actor05__palette__bin$0$0        bank7
     00008AC6  _actor05__palette__bin             bank7
     00008AD6  G$actor05__tilemap__stmcompr$0$0   bank7
     00008AD6  _actor05__tilemap__stmcompr        bank7
     00008B34  G$actor05__tiles__psgcompr$0$0     bank7
     00008B34  _actor05__tiles__psgcompr          bank7
     00009463  G$actor06__palette__bin$0$0        bank7
     00009463  _actor06__palette__bin             bank7
     00009473  G$actor06__tilemap__stmcompr$0$0   bank7
     00009473  _actor06__tilemap__stmcompr        bank7
     000094D4  G$actor06__tiles__psgcompr$0$0     bank7
     000094D4  _actor06__tiles__psgcompr          bank7
     00009F96  G$actor07__palette__bin$0$0        bank7
     00009F96  _actor07__palette__bin             bank7
     00009FA6  G$actor07__tilemap__stmcompr$0$0   bank7
     00009FA6  _actor07__tilemap__stmcompr        bank7
     0000A016  G$actor07__tiles__psgcompr$0$0     bank7
     0000A016  _actor07__tiles__psgcompr          bank7
ASxxxx Linker V03.00 + NoICE + sdld,  page 139.
Hexadecimal  [32-Bits]

Area                                    Addr        Size        Decimal Bytes (Attributes)
--------------------------------        ----        ----        ------- ----- ------------
_BANK8                              00008000    000022E4 =        8932. bytes (REL,CON)

      Value  Global                              Global Defined In Module
      -----  --------------------------------   ------------------------
     00008000  G$actor08__palette__bin$0$0        bank8
     00008000  _actor08__palette__bin             bank8
     00008010  G$actor08__tilemap__stmcompr$0$0   bank8
     00008010  _actor08__tilemap__stmcompr        bank8
     0000806C  G$actor08__tiles__psgcompr$0$0     bank8
     0000806C  _actor08__tiles__psgcompr          bank8
     0000885D  G$actor09__palette__bin$0$0        bank8
     0000885D  _actor09__palette__bin             bank8
     0000886D  G$actor09__tilemap__stmcompr$0$0   bank8
     0000886D  _actor09__tilemap__stmcompr        bank8
     000088CC  G$actor09__tiles__psgcompr$0$0     bank8
     000088CC  _actor09__tiles__psgcompr          bank8
     00009005  G$actor10__palette__bin$0$0        bank8
     00009005  _actor10__palette__bin             bank8
     00009015  G$actor10__tilemap__stmcompr$0$0   bank8
     00009015  _actor10__tilemap__stmcompr        bank8
     00009060  G$actor10__tiles__psgcompr$0$0     bank8
     00009060  _actor10__tiles__psgcompr          bank8
     0000989A  G$actor11__palette__bin$0$0        bank8
     0000989A  _actor11__palette__bin             bank8
     000098AA  G$actor11__tilemap__stmcompr$0$0   bank8
     000098AA  _actor11__tilemap__stmcompr        bank8
     000098FD  G$actor11__tiles__psgcompr$0$0     bank8
     000098FD  _actor11__tiles__psgcompr          bank8
ASxxxx Linker V03.00 + NoICE + sdld,  page 140.
Hexadecimal  [32-Bits]

Area                                    Addr        Size        Decimal Bytes (Attributes)
--------------------------------        ----        ----        ------- ----- ------------
_BANK9                              00008000    00002245 =        8773. bytes (REL,CON)

      Value  Global                              Global Defined In Module
      -----  --------------------------------   ------------------------
     00008000  G$actor12__palette__bin$0$0        bank9
     00008000  _actor12__palette__bin             bank9
     00008010  G$actor12__tilemap__stmcompr$0$0   bank9
     00008010  _actor12__tilemap__stmcompr        bank9
     00008059  G$actor12__tiles__psgcompr$0$0     bank9
     00008059  _actor12__tiles__psgcompr          bank9
     000088A1  G$actor13__palette__bin$0$0        bank9
     000088A1  _actor13__palette__bin             bank9
     000088B1  G$actor13__tilemap__stmcompr$0$0   bank9
     000088B1  _actor13__tilemap__stmcompr        bank9
     0000890F  G$actor13__tiles__psgcompr$0$0     bank9
     0000890F  _actor13__tiles__psgcompr          bank9
     000090DB  G$actor14__palette__bin$0$0        bank9
     000090DB  _actor14__palette__bin             bank9
     000090EB  G$actor14__tilemap__stmcompr$0$0   bank9
     000090EB  _actor14__tilemap__stmcompr        bank9
     00009142  G$actor14__tiles__psgcompr$0$0     bank9
     00009142  _actor14__tiles__psgcompr          bank9
     000098A9  G$actor15__palette__bin$0$0        bank9
     000098A9  _actor15__palette__bin             bank9
     000098B9  G$actor15__tilemap__stmcompr$0$0   bank9
     000098B9  _actor15__tilemap__stmcompr        bank9
     0000991D  G$actor15__tiles__psgcompr$0$0     bank9
     0000991D  _actor15__tiles__psgcompr          bank9
ASxxxx Linker V03.00 + NoICE + sdld,  page 141.
Hexadecimal  [32-Bits]

Area                                    Addr        Size        Decimal Bytes (Attributes)
--------------------------------        ----        ----        ------- ----- ------------
_BANK10                             00008000    00003DB9 =       15801. bytes (REL,CON)

      Value  Global                              Global Defined In Module
      -----  --------------------------------   ------------------------
     00008000  G$right02_wav_pcmenc$0$0           bank10
     00008000  _right02_wav_pcmenc                bank10
     0000A38D  G$wrong03_wav_pcmenc$0$0           bank10
     0000A38D  _wrong03_wav_pcmenc                bank10

ASxxxx Linker V03.00 + NoICE + sdld,  page 142.
Hexadecimal  [32-Bits]

Area                                    Addr        Size        Decimal Bytes (Attributes)
--------------------------------        ----        ----        ------- ----- ------------
_BANK11                             00008000    0000300A =       12298. bytes (REL,CON)

      Value  Global                              Global Defined In Module
      -----  --------------------------------   ------------------------
     00008000  G$wrong02_wav_pcmenc$0$0           bank11
     00008000  _wrong02_wav_pcmenc                bank11

ASxxxx Linker V03.00 + NoICE + sdld,  page 143.
Hexadecimal  [32-Bits]

Area                                    Addr        Size        Decimal Bytes (Attributes)
--------------------------------        ----        ----        ------- ----- ------------
_BANK12                             00008000    00003CF3 =       15603. bytes (REL,CON)

      Value  Global                              Global Defined In Module
      -----  --------------------------------   ------------------------
     00008000  G$right01_wav_pcmenc$0$0           bank12
     00008000  _right01_wav_pcmenc                bank12
     0000A2DE  G$wrong01_wav_pcmenc$0$0           bank12
     0000A2DE  _wrong01_wav_pcmenc                bank12

ASxxxx Linker V03.00 + NoICE + sdld,  page 144.
Hexadecimal  [32-Bits]

Area                                    Addr        Size        Decimal Bytes (Attributes)
--------------------------------        ----        ----        ------- ----- ------------
_BANK13                             00008000    000019C6 =        6598. bytes (REL,CON)

      Value  Global                              Global Defined In Module
      -----  --------------------------------   ------------------------
     00008000  G$right03_wav_pcmenc$0$0           bank13
     00008000  _right03_wav_pcmenc                bank13

ASxxxx Linker V03.00 + NoICE + sdld,  page 145.
Hexadecimal  [32-Bits]

Area                                    Addr        Size        Decimal Bytes (Attributes)
--------------------------------        ----        ----        ------- ----- ------------
_BANK14                             00008000    000027B8 =       10168. bytes (REL,CON)

      Value  Global                              Global Defined In Module
      -----  --------------------------------   ------------------------
     00008000  G$simpsons__palette__bin$0$0       bank14
     00008000  _simpsons__palette__bin            bank14
     00008010  G$simpsons__tilemap__stmcompr$0$   bank14
     00008010  _simpsons__tilemap__stmcompr       bank14
     000080D1  G$simpsons__tiles__psgcompr$0$0    bank14
     000080D1  _simpsons__tiles__psgcompr         bank14
     00009F38  G$splash__palette__bin$0$0         bank14
     00009F38  _splash__palette__bin              bank14
     00009F48  G$splash__tilemap__stmcompr$0$0    bank14
     00009F48  _splash__tilemap__stmcompr         bank14
     00009F8F  G$splash__tiles__psgcompr$0$0      bank14
     00009F8F  _splash__tiles__psgcompr           bank14
ASxxxx Linker V03.00 + NoICE + sdld,  page 146.
Hexadecimal  [32-Bits]

Area                                    Addr        Size        Decimal Bytes (Attributes)
--------------------------------        ----        ----        ------- ----- ------------
_BANK15                             00008000    00001F88 =        8072. bytes (REL,CON)

      Value  Global                              Global Defined In Module
      -----  --------------------------------   ------------------------
     00008000  G$finish_psg$0$0                   bank15
     00008000  _finish_psg                        bank15
     00008220  G$music_psg$0$0                    bank15
     00008220  _music_psg                         bank15

ASxxxx Linker V03.00 + NoICE + sdld,  page 147.
Hexadecimal  [32-Bits]

Area                                    Addr        Size        Decimal Bytes (Attributes)
--------------------------------        ----        ----        ------- ----- ------------
_CABS0                              00000000    00000010 =          16. bytes (ABS,CON)

      Value  Global                              Global Defined In Module
      -----  --------------------------------   ------------------------
     00007FF0  G$__SMS__SEGA_signature$0$0        _sms_manager
     00007FF0  ___SMS__SEGA_signature             _sms_manager

ASxxxx Linker V03.00 + NoICE + sdld,  page 148.
Hexadecimal  [32-Bits]

Area                                    Addr        Size        Decimal Bytes (Attributes)
--------------------------------        ----        ----        ------- ----- ------------
_CABS1                              00000000    0000000E =          14. bytes (ABS,CON)

      Value  Global                              Global Defined In Module
      -----  --------------------------------   ------------------------
     00007FD2  G$__SMS__SDSC_author$0$0           _sms_manager
     00007FD2  ___SMS__SDSC_author                _sms_manager

ASxxxx Linker V03.00 + NoICE + sdld,  page 149.
Hexadecimal  [32-Bits]

Area                                    Addr        Size        Decimal Bytes (Attributes)
--------------------------------        ----        ----        ------- ----- ------------
_CABS2                              00000000    0000000E =          14. bytes (ABS,CON)

      Value  Global                              Global Defined In Module
      -----  --------------------------------   ------------------------
     00007FC4  G$__SMS__SDSC_name$0$0             _sms_manager
     00007FC4  ___SMS__SDSC_name                  _sms_manager

ASxxxx Linker V03.00 + NoICE + sdld,  page 150.
Hexadecimal  [32-Bits]

Area                                    Addr        Size        Decimal Bytes (Attributes)
--------------------------------        ----        ----        ------- ----- ------------
_CABS3                              00000000    00000038 =          56. bytes (ABS,CON)

      Value  Global                              Global Defined In Module
      -----  --------------------------------   ------------------------
     00007F8C  G$__SMS__SDSC_descr$0$0            _sms_manager
     00007F8C  ___SMS__SDSC_descr                 _sms_manager

ASxxxx Linker V03.00 + NoICE + sdld,  page 151.
Hexadecimal  [32-Bits]

Area                                    Addr        Size        Decimal Bytes (Attributes)
--------------------------------        ----        ----        ------- ----- ------------
_CABS4                              00000000    00000010 =          16. bytes (ABS,CON)

      Value  Global                              Global Defined In Module
      -----  --------------------------------   ------------------------
     00007FE0  G$__SMS__SDSC_signature$0$0        _sms_manager
     00007FE0  ___SMS__SDSC_signature             _sms_manager

ASxxxx Linker V03.00 + NoICE + sdld,  page 152.

Files Linked                              [ module(s) ]

../crt0/crt0_sms.rel                      [ crt0 ]
main.rel                                  [ main ]
../lib/PSGlib.rel                         [ PSGlib ]
banks/bank2.rel                           [ bank2 ]
banks/bank3.rel                           [ bank3 ]
banks/bank4.rel                           [ bank4 ]
banks/bank5.rel                           [ bank5 ]
banks/bank6.rel                           [ bank6 ]
banks/bank7.rel                           [ bank7 ]
banks/bank8.rel                           [ bank8 ]
banks/bank9.rel                           [ bank9 ]
banks/bank10.rel                          [ bank10 ]
banks/bank11.rel                          [ bank11 ]
banks/bank12.rel                          [ bank12 ]
banks/bank13.rel                          [ bank13 ]
banks/bank14.rel                          [ bank14 ]
banks/bank15.rel                          [ bank15 ]
devkit/_sms_manager.rel                   [ _sms_manager ]
devkit/_snd_manager.rel                   [ _snd_manager ]
engine/actor_manager.rel                  [ actor_manager ]
engine/asm_manager.rel                    [ asm_manager ]
engine/audio_manager.rel                  [ audio_manager ]
engine/content_manager.rel                [ content_manager ]
engine/debug_manager.rel                  [ debug_manager ]
engine/enum_manager.rel                   [ enum_manager ]
engine/font_manager.rel                   [ font_manager ]
engine/global_manager.rel                 [ global_manager ]
engine/hack_manager.rel                   [ hack_manager ]
engine/input_manager.rel                  [ input_manager ]
engine/locale_manager.rel                 [ locale_manager ]
engine/quiz_manager.rel                   [ quiz_manager ]
engine/random_manager.rel                 [ random_manager ]
engine/sample_manager.rel                 [ sample_manager ]
engine/score_manager.rel                  [ score_manager ]
engine/select_manager.rel                 [ select_manager ]
engine/screen_manager.rel                 [ screen_manager ]
engine/sound_manager.rel                  [ sound_manager ]
engine/sprite_manager.rel                 [ sprite_manager ]
engine/timer_manager.rel                  [ timer_manager ]
object/sound_object.rel                   [ sound_object ]
screen/diff_screen.rel                    [ diff_screen ]
screen/func_screen.rel                    [ func_screen ]
screen/intro_screen.rel                   [ intro_screen ]
screen/level_screen.rel                   [ level_screen ]
screen/long_screen.rel                    [ long_screen ]
screen/none_screen.rel                    [ none_screen ]
screen/number_screen.rel                  [ number_screen ]
screen/over_screen.rel                    [ over_screen ]
screen/play_screen.rel                    [ play_screen ]
screen/quiz_screen.rel                    [ quiz_screen ]
screen/ready_screen.rel                   [ ready_screen ]
screen/score_screen.rel                   [ score_screen ]
screen/splash_screen.rel                  [ splash_screen ]
screen/test_screen.rel                    [ test_screen ]
screen/title_screen.rel                   [ title_screen ]
gfx.rel                                   [ gfx ]
psg.rel                                   [ psg ]


Libraries Linked                          [ object file ]

C:\Program Files\SDCC\bin\..\lib\z80/z80.lib
                                          [ divunsigned.rel ]
../lib/SMSlib.lib                         [ SMSlib_UNSAFE.rel ]
../lib/SMSlib.lib                         [ SMSlib.rel ]
C:\Program Files\SDCC\bin\..\lib\z80/z80.lib
                                          [ rand.rel ]
../lib/SMSlib.lib                         [ SMSlib_STMcomp.rel ]
C:\Program Files\SDCC\bin\..\lib\z80/z80.lib
                                          [ __sdcc_call_hl.rel ]
../lib/SMSlib.lib                         [ SMSlib_PSGaiden.rel ]
C:\Program Files\SDCC\bin\..\lib\z80/z80.lib
                                          [ modsigned.rel ]
../lib/SMSlib.lib                         [ SMSlib_loadTileMap.rel ]
C:\Program Files\SDCC\bin\..\lib\z80/z80.lib
                                          [ modunsigned.rel ]
C:\Program Files\SDCC\bin\..\lib\z80/z80.lib
                                          [ divsigned.rel ]

ASxxxx Linker V03.00 + NoICE + sdld,  page 153.

User Base Address Definitions

_CODE = 0x0200
_DATA = 0xc000
_BANK2=0x8000
_BANK3=0x8000
_BANK4=0x8000
_BANK5=0x8000
_BANK6=0x8000
_BANK7=0x8000
_BANK8=0x8000
_BANK9=0x8000
_BANK10=0x8000
_BANK11=0x8000
_BANK12=0x8000
_BANK13=0x8000
_BANK14=0x8000
_BANK15=0x8000

