ASxxxx Linker V03.00 + NoICE + sdld,  page 1.
Hexadecimal  [32-Bits]

Area                                    Addr        Size        Decimal Bytes (Attributes)
--------------------------------        ----        ----        ------- ----- ------------
.  .ABS.                            00000000    00000000 =           0. bytes (ABS,CON)

      Value  Global                              Global Defined In Module
      -----  --------------------------------   ------------------------
     00000000  .__.ABS.                           
     00000000  l__BSEG                         
     00000000  l__BSS                          
     00000000  l__CABS                         
     00000000  l__DABS                         
     00000000  l__HEADER                       
     00000000  l__HEAP                         
     00000000  l__HOME                         
     00000000  s__CABS                         
     00000000  s__CABS0                        
     00000000  s__CABS1                        
     00000000  s__CABS2                        
     00000000  s__CABS3                        
     00000000  s__CABS4                        
     00000000  s__DABS                         
     00000000  s__HEADER                       
     00000000  s__HEADER0                      
     00000000  s__HEADER1                      
     00000000  s__HEADER2                      
     00000000  s__HEADER3                      
     00000000  s__HEADER4                      
     00000000  s__HEADER5                      
     00000001  l__GSFINAL                      
     00000003  l__HEADER3                      
     00000003  l__HEADER4                      
     00000006  l__HEADER0                      
     00000009  l__HEADER1                      
     0000000A  l__HEADER2                      
     0000000E  l__CABS1                        
     0000000E  l__CABS2                        
     0000000F  l__GSINIT                       
     00000010  l__CABS0                        
     00000010  l__CABS4                        
     00000016  l__INITIALIZED                  
     00000016  l__INITIALIZER                  
     00000038  l__CABS3                        
     000000BE  G$VDPDataPort$0$0                  asm_manager
     000000BF  G$VDPControlPort$0$0               asm_manager
     0000012A  l__HEADER5                      
     00000171  l__DATA                         
     00000200  s__CODE                         
     000019C6  l__BANK13                       
     00001F88  l__BANK15                       
     00002076  l__CODE                         
     00002245  l__BANK9                        
     00002276  s__HOME                         
     00002276  s__INITIALIZER                  
     0000228C  s__GSINIT                       
     0000229B  s__GSFINAL                      
     000022E4  l__BANK8                        
ASxxxx Linker V03.00 + NoICE + sdld,  page 2.
Hexadecimal  [32-Bits]

Area                                    Addr        Size        Decimal Bytes (Attributes)
--------------------------------        ----        ----        ------- ----- ------------
.  .ABS.                            00000000    00000000 =           0. bytes (ABS,CON)

      Value  Global                              Global Defined In Module
      -----  --------------------------------   ------------------------
     00002713  l__BANK6                        
     000027B8  l__BANK14                       
     00002962  l__BANK7                        
     0000300A  l__BANK11                       
     00003C8C  l__BANK2                        
     00003C8C  l__BANK3                        
     00003C8C  l__BANK4                        
     00003C8C  l__BANK5                        
     00003CF3  l__BANK12                       
     00003DB9  l__BANK10                       
     00008000  G$SMS_SRAM$0$0                     _sms_manager
     00008000  _SMS_SRAM                          SMSlib_loadTileMap
     00008000  s__BANK10                       
     00008000  s__BANK11                       
     00008000  s__BANK12                       
     00008000  s__BANK13                       
     00008000  s__BANK14                       
     00008000  s__BANK15                       
     00008000  s__BANK2                        
     00008000  s__BANK3                        
     00008000  s__BANK4                        
     00008000  s__BANK5                        
     00008000  s__BANK6                        
     00008000  s__BANK7                        
     00008000  s__BANK8                        
     00008000  s__BANK9                        
     0000C000  s__DATA                         
     0000C171  s__INITIALIZED                  
     0000C187  s__BSEG                         
     0000C187  s__BSS                          
     0000C187  s__HEAP                         
     0000FFFC  G$SRAM_bank_to_be_mapped_on_slot   _sms_manager
     0000FFFC  _SRAM_bank_to_be_mapped_on_slot2   SMSlib_loadTileMap
     0000FFFF  G$ROM_bank_to_be_mapped_on_slot2   _sms_manager
     0000FFFF  _ROM_bank_to_be_mapped_on_slot2    SMSlib_loadTileMap

ASxxxx Linker V03.00 + NoICE + sdld,  page 3.
Hexadecimal  [32-Bits]

Area                                    Addr        Size        Decimal Bytes (Attributes)
--------------------------------        ----        ----        ------- ----- ------------
_CODE                               00000200    00002076 =        8310. bytes (REL,CON)

      Value  Global                              Global Defined In Module
      -----  --------------------------------   ------------------------
     00000200  __clock                            crt0
     00000204  _exit                              crt0
     0000020A  A$main$76                          main
     0000020A  C$main.c$3$0$0                     main
     0000020A  C$main.c$9$1$56                    main
     0000020A  G$main$0$0                         main
     0000020A  _main                              main
     0000020D  A$main$80                          main
     0000020D  C$main.c$10$1$56                   main
     00000210  A$main$84                          main
     00000210  C$main.c$11$1$56                   main
     00000213  A$main$88                          main
     00000213  C$main.c$13$1$56                   main
     00000216  A$main$89                          main
     00000217  A$main$90                          main
     00000218  A$main$91                          main
     00000219  A$main$92                          main
     0000021C  A$main$93                          main
     0000021D  A$main$97                          main
     0000021D  C$main.c$14$1$56                   main
     00000220  A$main$101                         main
     00000220  C$main.c$15$1$56                   main
     00000223  A$main$102                         main
     00000224  A$main$103                         main
     00000227  A$main$104                         main
     00000228  A$main$108                         main
     00000228  C$main.c$17$1$56                   main
     0000022B  A$main$112                         main
     0000022B  C$main.c$19$1$56                   main
     0000022E  A$main$116                         main
     0000022E  C$main.c$20$1$56                   main
     00000231  A$main$120                         main
     00000231  C$main.c$29$1$56                   main
     00000233  A$main$121                         main
     00000234  A$main$122                         main
     00000235  A$main$123                         main
     00000238  A$main$124                         main
     00000239  A$main$128                         main
     00000239  C$main.c$30$1$56                   main
     0000023C  A$main$133                         main
     0000023C  C$main.c$33$3$58                   main
     0000023F  A$main$137                         main
     0000023F  C$main.c$34$3$58                   main
     00000242  A$main$141                         main
     00000242  C$main.c$36$3$58                   main
     00000245  A$main$145                         main
     00000245  C$main.c$38$3$58                   main
     00000248  A$main$149                         main
     00000248  C$main.c$39$3$58                   main
     0000024B  A$main$153                         main
ASxxxx Linker V03.00 + NoICE + sdld,  page 4.
Hexadecimal  [32-Bits]

Area                                    Addr        Size        Decimal Bytes (Attributes)
--------------------------------        ----        ----        ------- ----- ------------
_CODE                               00000200    00002076 =        8310. bytes (REL,CON)

      Value  Global                              Global Defined In Module
      -----  --------------------------------   ------------------------
     0000024B  C$main.c$40$3$58                   main
     0000024E  A$main$157                         main
     0000024E  C$main.c$42$3$58                   main
     00000251  A$main$161                         main
     00000251  C$main.c$43$3$58                   main
     00000254  A$main$166                         main
     00000254  C$main.c$45$2$57                   main
     00000254  XG$main$0$0                        main
     00000256  _PSGStop                           PSGlib
     0000027D  _PSGResume                         PSGlib
     000002C9  _PSGPlay                           PSGlib
     000002F6  _PSGCancelLoop                     PSGlib
     000002FC  _PSGPlayNoRepeat                   PSGlib
     0000030B  _PSGGetStatus                      PSGlib
     00000313  _PSGSilenceChannels                PSGlib
     00000324  _PSGRestoreVolumes                 PSGlib
     00000423  _PSGSetMusicVolumeAttenuation      PSGlib
     00000512  _PSGSFXStop                        PSGlib
     000005DC  _PSGSFXPlay                        PSGlib
     00000629  _PSGSFXCancelLoop                  PSGlib
     0000062F  _PSGSFXGetStatus                   PSGlib
     00000637  _PSGSFXPlayLoop                    PSGlib
     00000658  _PSGFrame                          PSGlib
     00000771  _PSGSFXFrame                       PSGlib
     000007F7  A$_sms_manager$138                 _sms_manager
     000007F7  C$_sms_manager.c$12$0$0            _sms_manager
     000007F7  C$_sms_manager.c$14$1$76           _sms_manager
     000007F7  C$_sms_manager.c$15$1$76           _sms_manager
     000007F7  G$devkit_SMS_init$0$0              _sms_manager
     000007F7  XG$devkit_SMS_init$0$0             _sms_manager
     000007F7  _devkit_SMS_init                   _sms_manager
     000007FA  A$_sms_manager$151                 _sms_manager
     000007FA  C$_sms_manager.c$16$1$76           _sms_manager
     000007FA  C$_sms_manager.c$18$1$77           _sms_manager
     000007FA  G$devkit_SMS_displayOn$0$0         _sms_manager
     000007FA  _devkit_SMS_displayOn              _sms_manager
     000007FD  A$_sms_manager$156                 _sms_manager
     000007FD  C$_sms_manager.c$19$1$77           _sms_manager
     000007FD  XG$devkit_SMS_displayOn$0$0        _sms_manager
     00000800  A$_sms_manager$169                 _sms_manager
     00000800  C$_sms_manager.c$20$1$77           _sms_manager
     00000800  C$_sms_manager.c$22$1$78           _sms_manager
     00000800  G$devkit_SMS_displayOff$0$0        _sms_manager
     00000800  _devkit_SMS_displayOff             _sms_manager
     00000803  A$_sms_manager$174                 _sms_manager
     00000803  C$_sms_manager.c$23$1$78           _sms_manager
     00000803  XG$devkit_SMS_displayOff$0$0       _sms_manager
     00000806  A$_sms_manager$187                 _sms_manager
     00000806  C$_sms_manager.c$24$1$78           _sms_manager
     00000806  C$_sms_manager.c$26$1$80           _sms_manager
     00000806  G$devkit_SMS_mapROMBank$0$0        _sms_manager
ASxxxx Linker V03.00 + NoICE + sdld,  page 5.
Hexadecimal  [32-Bits]

Area                                    Addr        Size        Decimal Bytes (Attributes)
--------------------------------        ----        ----        ------- ----- ------------
_CODE                               00000200    00002076 =        8310. bytes (REL,CON)

      Value  Global                              Global Defined In Module
      -----  --------------------------------   ------------------------
     00000806  _devkit_SMS_mapROMBank             _sms_manager
     00000809  A$_sms_manager$188                 _sms_manager
     0000080A  A$_sms_manager$189                 _sms_manager
     0000080B  A$_sms_manager$190                 _sms_manager
     0000080E  A$_sms_manager$195                 _sms_manager
     0000080E  C$_sms_manager.c$27$1$80           _sms_manager
     0000080E  XG$devkit_SMS_mapROMBank$0$0       _sms_manager
     0000080F  A$_sms_manager$208                 _sms_manager
     0000080F  C$_sms_manager.c$29$1$80           _sms_manager
     0000080F  C$_sms_manager.c$31$1$82           _sms_manager
     0000080F  G$devkit_SMS_setBGScrollX$0$0      _sms_manager
     0000080F  _devkit_SMS_setBGScrollX           _sms_manager
     00000813  A$_sms_manager$209                 _sms_manager
     00000815  A$_sms_manager$210                 _sms_manager
     00000818  A$_sms_manager$215                 _sms_manager
     00000818  C$_sms_manager.c$32$1$82           _sms_manager
     00000818  XG$devkit_SMS_setBGScrollX$0$0     _sms_manager
     0000081B  A$_sms_manager$228                 _sms_manager
     0000081B  C$_sms_manager.c$33$1$82           _sms_manager
     0000081B  C$_sms_manager.c$35$1$84           _sms_manager
     0000081B  G$devkit_SMS_setBGScrollY$0$0      _sms_manager
     0000081B  _devkit_SMS_setBGScrollY           _sms_manager
     0000081F  A$_sms_manager$229                 _sms_manager
     00000821  A$_sms_manager$230                 _sms_manager
     00000824  A$_sms_manager$235                 _sms_manager
     00000824  C$_sms_manager.c$36$1$84           _sms_manager
     00000824  XG$devkit_SMS_setBGScrollY$0$0     _sms_manager
     00000827  A$_sms_manager$248                 _sms_manager
     00000827  C$_sms_manager.c$38$1$84           _sms_manager
     00000827  C$_sms_manager.c$40$1$85           _sms_manager
     00000827  G$devkit_SMS_enableSRAM$0$0        _sms_manager
     00000827  _devkit_SMS_enableSRAM             _sms_manager
     0000082A  A$_sms_manager$249                 _sms_manager
     0000082C  A$_sms_manager$254                 _sms_manager
     0000082C  C$_sms_manager.c$41$1$85           _sms_manager
     0000082C  XG$devkit_SMS_enableSRAM$0$0       _sms_manager
     0000082D  A$_sms_manager$267                 _sms_manager
     0000082D  C$_sms_manager.c$42$1$85           _sms_manager
     0000082D  C$_sms_manager.c$44$1$87           _sms_manager
     0000082D  G$devkit_SMS_enableSRAMBank$0$0    _sms_manager
     0000082D  _devkit_SMS_enableSRAMBank         _sms_manager
     00000830  A$_sms_manager$268                 _sms_manager
     00000831  A$_sms_manager$269                 _sms_manager
     00000832  A$_sms_manager$270                 _sms_manager
     00000833  A$_sms_manager$271                 _sms_manager
     00000834  A$_sms_manager$272                 _sms_manager
     00000836  A$_sms_manager$273                 _sms_manager
     00000838  A$_sms_manager$274                 _sms_manager
     0000083B  A$_sms_manager$279                 _sms_manager
     0000083B  C$_sms_manager.c$45$1$87           _sms_manager
     0000083B  XG$devkit_SMS_enableSRAMBank$0$0   _sms_manager
ASxxxx Linker V03.00 + NoICE + sdld,  page 6.
Hexadecimal  [32-Bits]

Area                                    Addr        Size        Decimal Bytes (Attributes)
--------------------------------        ----        ----        ------- ----- ------------
_CODE                               00000200    00002076 =        8310. bytes (REL,CON)

      Value  Global                              Global Defined In Module
      -----  --------------------------------   ------------------------
     0000083C  A$_sms_manager$292                 _sms_manager
     0000083C  C$_sms_manager.c$46$1$87           _sms_manager
     0000083C  C$_sms_manager.c$48$1$88           _sms_manager
     0000083C  G$devkit_SMS_disableSRAM$0$0       _sms_manager
     0000083C  _devkit_SMS_disableSRAM            _sms_manager
     0000083F  A$_sms_manager$293                 _sms_manager
     00000841  A$_sms_manager$298                 _sms_manager
     00000841  C$_sms_manager.c$49$1$88           _sms_manager
     00000841  XG$devkit_SMS_disableSRAM$0$0      _sms_manager
     00000842  A$_sms_manager$311                 _sms_manager
     00000842  C$_sms_manager.c$52$1$88           _sms_manager
     00000842  C$_sms_manager.c$54$1$90           _sms_manager
     00000842  G$devkit_SMS_setSpriteMode$0$0     _sms_manager
     00000842  _devkit_SMS_setSpriteMode          _sms_manager
     00000846  A$_sms_manager$312                 _sms_manager
     00000848  A$_sms_manager$313                 _sms_manager
     0000084B  A$_sms_manager$318                 _sms_manager
     0000084B  C$_sms_manager.c$55$1$90           _sms_manager
     0000084B  XG$devkit_SMS_setSpriteMode$0$0    _sms_manager
     0000084E  A$_sms_manager$331                 _sms_manager
     0000084E  C$_sms_manager.c$56$1$90           _sms_manager
     0000084E  C$_sms_manager.c$58$1$91           _sms_manager
     0000084E  G$devkit_SMS_useFirstHalfTilesfo   _sms_manager
     0000084E  _devkit_SMS_useFirstHalfTilesfor   _sms_manager
     00000850  A$_sms_manager$336                 _sms_manager
     00000850  C$_sms_manager.c$59$1$91           _sms_manager
     00000850  XG$devkit_SMS_useFirstHalfTilesf   _sms_manager
     00000853  A$_sms_manager$349                 _sms_manager
     00000853  C$_sms_manager.c$60$1$91           _sms_manager
     00000853  C$_sms_manager.c$62$1$92           _sms_manager
     00000853  G$devkit_SMS_useFirstHalfTilesfo   _sms_manager
     00000853  _devkit_SMS_useFirstHalfTilesfor   _sms_manager
     00000855  A$_sms_manager$354                 _sms_manager
     00000855  C$_sms_manager.c$63$1$92           _sms_manager
     00000855  XG$devkit_SMS_useFirstHalfTilesf   _sms_manager
     00000858  A$_sms_manager$367                 _sms_manager
     00000858  C$_sms_manager.c$64$1$92           _sms_manager
     00000858  C$_sms_manager.c$66$1$94           _sms_manager
     00000858  G$devkit_SMS_VDPturnOnFeature$0$   _sms_manager
     00000858  _devkit_SMS_VDPturnOnFeature       _sms_manager
     00000859  A$_sms_manager$368                 _sms_manager
     0000085A  A$_sms_manager$369                 _sms_manager
     0000085B  A$_sms_manager$370                 _sms_manager
     0000085C  A$_sms_manager$375                 _sms_manager
     0000085C  C$_sms_manager.c$67$1$94           _sms_manager
     0000085C  XG$devkit_SMS_VDPturnOnFeature$0   _sms_manager
     0000085F  A$_sms_manager$388                 _sms_manager
     0000085F  C$_sms_manager.c$69$1$94           _sms_manager
     0000085F  C$_sms_manager.c$71$1$96           _sms_manager
     0000085F  G$devkit_SMS_loadPSGaidencompres   _sms_manager
     0000085F  _devkit_SMS_loadPSGaidencompress   _sms_manager
ASxxxx Linker V03.00 + NoICE + sdld,  page 7.
Hexadecimal  [32-Bits]

Area                                    Addr        Size        Decimal Bytes (Attributes)
--------------------------------        ----        ----        ------- ----- ------------
_CODE                               00000200    00002076 =        8310. bytes (REL,CON)

      Value  Global                              Global Defined In Module
      -----  --------------------------------   ------------------------
     00000862  A$_sms_manager$389                 _sms_manager
     00000863  A$_sms_manager$390                 _sms_manager
     00000864  A$_sms_manager$391                 _sms_manager
     00000865  A$_sms_manager$392                 _sms_manager
     00000866  A$_sms_manager$393                 _sms_manager
     00000867  A$_sms_manager$394                 _sms_manager
     0000086A  A$_sms_manager$395                 _sms_manager
     0000086B  A$_sms_manager$396                 _sms_manager
     0000086C  A$_sms_manager$397                 _sms_manager
     0000086D  A$_sms_manager$398                 _sms_manager
     0000086E  A$_sms_manager$399                 _sms_manager
     0000086F  A$_sms_manager$400                 _sms_manager
     00000872  A$_sms_manager$401                 _sms_manager
     00000873  A$_sms_manager$402                 _sms_manager
     00000874  A$_sms_manager$407                 _sms_manager
     00000874  C$_sms_manager.c$72$1$96           _sms_manager
     00000874  XG$devkit_SMS_loadPSGaidencompre   _sms_manager
     00000875  A$_sms_manager$420                 _sms_manager
     00000875  C$_sms_manager.c$73$1$96           _sms_manager
     00000875  C$_sms_manager.c$75$1$98           _sms_manager
     00000875  G$devkit_SMS_loadSTMcompressedTi   _sms_manager
     00000875  _devkit_SMS_loadSTMcompressedTil   _sms_manager
     00000877  A$_sms_manager$421                 _sms_manager
     00000878  A$_sms_manager$422                 _sms_manager
     00000879  A$_sms_manager$423                 _sms_manager
     0000087C  A$_sms_manager$424                 _sms_manager
     0000087D  A$_sms_manager$425                 _sms_manager
     0000087E  A$_sms_manager$426                 _sms_manager
     0000087F  A$_sms_manager$427                 _sms_manager
     00000880  A$_sms_manager$428                 _sms_manager
     00000881  A$_sms_manager$429                 _sms_manager
     00000884  A$_sms_manager$430                 _sms_manager
     00000885  A$_sms_manager$431                 _sms_manager
     00000886  A$_sms_manager$432                 _sms_manager
     00000887  A$_sms_manager$433                 _sms_manager
     00000888  A$_sms_manager$434                 _sms_manager
     0000088B  A$_sms_manager$435                 _sms_manager
     0000088C  A$_sms_manager$436                 _sms_manager
     0000088D  A$_sms_manager$437                 _sms_manager
     0000088E  A$_sms_manager$438                 _sms_manager
     0000088F  A$_sms_manager$439                 _sms_manager
     00000892  A$_sms_manager$440                 _sms_manager
     00000893  A$_sms_manager$441                 _sms_manager
     00000894  A$_sms_manager$442                 _sms_manager
     00000895  A$_sms_manager$447                 _sms_manager
     00000895  C$_sms_manager.c$76$1$98           _sms_manager
     00000895  XG$devkit_SMS_loadSTMcompressedT   _sms_manager
     00000896  A$_sms_manager$460                 _sms_manager
     00000896  C$_sms_manager.c$78$1$98           _sms_manager
     00000896  C$_sms_manager.c$80$1$100          _sms_manager
     00000896  G$devkit_SMS_loadBGPalette$0$0     _sms_manager
ASxxxx Linker V03.00 + NoICE + sdld,  page 8.
Hexadecimal  [32-Bits]

Area                                    Addr        Size        Decimal Bytes (Attributes)
--------------------------------        ----        ----        ------- ----- ------------
_CODE                               00000200    00002076 =        8310. bytes (REL,CON)

      Value  Global                              Global Defined In Module
      -----  --------------------------------   ------------------------
     00000896  _devkit_SMS_loadBGPalette          _sms_manager
     00000897  A$_sms_manager$461                 _sms_manager
     00000898  A$_sms_manager$462                 _sms_manager
     00000899  A$_sms_manager$463                 _sms_manager
     0000089A  A$_sms_manager$468                 _sms_manager
     0000089A  C$_sms_manager.c$81$1$100          _sms_manager
     0000089A  XG$devkit_SMS_loadBGPalette$0$0    _sms_manager
     0000089D  A$_sms_manager$481                 _sms_manager
     0000089D  C$_sms_manager.c$82$1$100          _sms_manager
     0000089D  C$_sms_manager.c$84$1$102          _sms_manager
     0000089D  G$devkit_SMS_loadSpritePalette$0   _sms_manager
     0000089D  _devkit_SMS_loadSpritePalette      _sms_manager
     0000089E  A$_sms_manager$482                 _sms_manager
     0000089F  A$_sms_manager$483                 _sms_manager
     000008A0  A$_sms_manager$484                 _sms_manager
     000008A1  A$_sms_manager$489                 _sms_manager
     000008A1  C$_sms_manager.c$85$1$102          _sms_manager
     000008A1  XG$devkit_SMS_loadSpritePalette$   _sms_manager
     000008A4  A$_sms_manager$502                 _sms_manager
     000008A4  C$_sms_manager.c$86$1$102          _sms_manager
     000008A4  C$_sms_manager.c$88$1$104          _sms_manager
     000008A4  G$devkit_SMS_setBGPaletteColor$0   _sms_manager
     000008A4  _devkit_SMS_setBGPaletteColor      _sms_manager
     000008A7  A$_sms_manager$503                 _sms_manager
     000008A8  A$_sms_manager$504                 _sms_manager
     000008A9  A$_sms_manager$505                 _sms_manager
     000008AA  A$_sms_manager$506                 _sms_manager
     000008AB  A$_sms_manager$507                 _sms_manager
     000008AE  A$_sms_manager$508                 _sms_manager
     000008AF  A$_sms_manager$509                 _sms_manager
     000008B0  A$_sms_manager$510                 _sms_manager
     000008B1  A$_sms_manager$511                 _sms_manager
     000008B4  A$_sms_manager$512                 _sms_manager
     000008B5  A$_sms_manager$513                 _sms_manager
     000008B6  A$_sms_manager$514                 _sms_manager
     000008B7  A$_sms_manager$515                 _sms_manager
     000008B8  A$_sms_manager$516                 _sms_manager
     000008B9  A$_sms_manager$517                 _sms_manager
     000008BA  A$_sms_manager$518                 _sms_manager
     000008BC  A$_sms_manager$519                 _sms_manager
     000008BD  A$_sms_manager$520                 _sms_manager
     000008BE  A$_sms_manager$524                 _sms_manager
     000008BE  C$_sms_manager.c$89$1$104          _sms_manager
     000008BF  A$_sms_manager$525                 _sms_manager
     000008C0  A$_sms_manager$526                 _sms_manager
     000008C3  A$_sms_manager$527                 _sms_manager
     000008C4  A$_sms_manager$528                 _sms_manager
     000008C5  A$_sms_manager$529                 _sms_manager
     000008C6  A$_sms_manager$530                 _sms_manager
     000008C7  A$_sms_manager$531                 _sms_manager
     000008CA  A$_sms_manager$532                 _sms_manager
ASxxxx Linker V03.00 + NoICE + sdld,  page 9.
Hexadecimal  [32-Bits]

Area                                    Addr        Size        Decimal Bytes (Attributes)
--------------------------------        ----        ----        ------- ----- ------------
_CODE                               00000200    00002076 =        8310. bytes (REL,CON)

      Value  Global                              Global Defined In Module
      -----  --------------------------------   ------------------------
     000008CB  A$_sms_manager$537                 _sms_manager
     000008CB  C$_sms_manager.c$90$1$104          _sms_manager
     000008CB  XG$devkit_SMS_setBGPaletteColor$   _sms_manager
     000008CC  A$_sms_manager$550                 _sms_manager
     000008CC  C$_sms_manager.c$91$1$104          _sms_manager
     000008CC  C$_sms_manager.c$93$1$106          _sms_manager
     000008CC  G$devkit_SMS_setSpritePaletteCol   _sms_manager
     000008CC  _devkit_SMS_setSpritePaletteColo   _sms_manager
     000008CF  A$_sms_manager$551                 _sms_manager
     000008D0  A$_sms_manager$552                 _sms_manager
     000008D1  A$_sms_manager$553                 _sms_manager
     000008D2  A$_sms_manager$554                 _sms_manager
     000008D3  A$_sms_manager$555                 _sms_manager
     000008D6  A$_sms_manager$556                 _sms_manager
     000008D7  A$_sms_manager$557                 _sms_manager
     000008D8  A$_sms_manager$558                 _sms_manager
     000008D9  A$_sms_manager$559                 _sms_manager
     000008DC  A$_sms_manager$560                 _sms_manager
     000008DD  A$_sms_manager$561                 _sms_manager
     000008DE  A$_sms_manager$562                 _sms_manager
     000008DF  A$_sms_manager$563                 _sms_manager
     000008E0  A$_sms_manager$564                 _sms_manager
     000008E1  A$_sms_manager$565                 _sms_manager
     000008E2  A$_sms_manager$566                 _sms_manager
     000008E4  A$_sms_manager$567                 _sms_manager
     000008E5  A$_sms_manager$568                 _sms_manager
     000008E6  A$_sms_manager$572                 _sms_manager
     000008E6  C$_sms_manager.c$94$1$106          _sms_manager
     000008E7  A$_sms_manager$573                 _sms_manager
     000008E8  A$_sms_manager$574                 _sms_manager
     000008EB  A$_sms_manager$575                 _sms_manager
     000008EC  A$_sms_manager$576                 _sms_manager
     000008ED  A$_sms_manager$577                 _sms_manager
     000008EE  A$_sms_manager$578                 _sms_manager
     000008EF  A$_sms_manager$579                 _sms_manager
     000008F2  A$_sms_manager$580                 _sms_manager
     000008F3  A$_sms_manager$585                 _sms_manager
     000008F3  C$_sms_manager.c$95$1$106          _sms_manager
     000008F3  XG$devkit_SMS_setSpritePaletteCo   _sms_manager
     000008F4  A$_sms_manager$595                 _sms_manager
     000008F4  C$_sms_manager.c$97$1$106          _sms_manager
     000008F4  G$devkit_SMS_setNextTileatXY$0$0   _sms_manager
     000008F4  _devkit_SMS_setNextTileatXY        _sms_manager
     000008F6  A$_sms_manager$596                 _sms_manager
     000008FA  A$_sms_manager$597                 _sms_manager
     000008FC  A$_sms_manager$601                 _sms_manager
     000008FC  C$_sms_manager.c$99$1$108          _sms_manager
     000008FF  A$_sms_manager$602                 _sms_manager
     00000901  A$_sms_manager$603                 _sms_manager
     00000902  A$_sms_manager$604                 _sms_manager
     00000903  A$_sms_manager$605                 _sms_manager
ASxxxx Linker V03.00 + NoICE + sdld,  page 10.
Hexadecimal  [32-Bits]

Area                                    Addr        Size        Decimal Bytes (Attributes)
--------------------------------        ----        ----        ------- ----- ------------
_CODE                               00000200    00002076 =        8310. bytes (REL,CON)

      Value  Global                              Global Defined In Module
      -----  --------------------------------   ------------------------
     00000904  A$_sms_manager$606                 _sms_manager
     00000905  A$_sms_manager$607                 _sms_manager
     00000906  A$_sms_manager$608                 _sms_manager
     00000907  A$_sms_manager$609                 _sms_manager
     00000908  A$_sms_manager$610                 _sms_manager
     00000909  A$_sms_manager$611                 _sms_manager
     0000090B  A$_sms_manager$612                 _sms_manager
     0000090C  A$_sms_manager$613                 _sms_manager
     0000090F  A$_sms_manager$614                 _sms_manager
     00000911  A$_sms_manager$615                 _sms_manager
     00000912  A$_sms_manager$616                 _sms_manager
     00000913  A$_sms_manager$617                 _sms_manager
     00000914  A$_sms_manager$618                 _sms_manager
     00000915  A$_sms_manager$619                 _sms_manager
     00000916  A$_sms_manager$620                 _sms_manager
     00000917  A$_sms_manager$621                 _sms_manager
     00000918  A$_sms_manager$626                 _sms_manager
     00000918  C$_sms_manager.c$100$1$108         _sms_manager
     00000918  XG$devkit_SMS_setNextTileatXY$0$   _sms_manager
     0000091A  A$_sms_manager$627                 _sms_manager
     0000091D  A$_sms_manager$640                 _sms_manager
     0000091D  C$_sms_manager.c$101$1$108         _sms_manager
     0000091D  C$_sms_manager.c$103$1$110         _sms_manager
     0000091D  G$devkit_SMS_setTile$0$0           _sms_manager
     0000091D  _devkit_SMS_setTile                _sms_manager
     00000921  A$_sms_manager$641                 _sms_manager
     00000923  A$_sms_manager$642                 _sms_manager
     00000926  A$_sms_manager$643                 _sms_manager
     00000928  A$_sms_manager$648                 _sms_manager
     00000928  C$_sms_manager.c$104$1$110         _sms_manager
     00000928  XG$devkit_SMS_setTile$0$0          _sms_manager
     0000092B  A$_sms_manager$661                 _sms_manager
     0000092B  C$_sms_manager.c$105$1$110         _sms_manager
     0000092B  C$_sms_manager.c$107$1$112         _sms_manager
     0000092B  G$devkit_SMS_loadTileMap$0$0       _sms_manager
     0000092B  _devkit_SMS_loadTileMap            _sms_manager
     0000092E  A$_sms_manager$662                 _sms_manager
     0000092F  A$_sms_manager$663                 _sms_manager
     00000930  A$_sms_manager$664                 _sms_manager
     00000931  A$_sms_manager$665                 _sms_manager
     00000932  A$_sms_manager$666                 _sms_manager
     00000935  A$_sms_manager$667                 _sms_manager
     00000936  A$_sms_manager$668                 _sms_manager
     00000937  A$_sms_manager$669                 _sms_manager
     00000938  A$_sms_manager$670                 _sms_manager
     00000939  A$_sms_manager$671                 _sms_manager
     0000093A  A$_sms_manager$672                 _sms_manager
     0000093B  A$_sms_manager$673                 _sms_manager
     0000093C  A$_sms_manager$674                 _sms_manager
     0000093F  A$_sms_manager$675                 _sms_manager
     00000940  A$_sms_manager$676                 _sms_manager
ASxxxx Linker V03.00 + NoICE + sdld,  page 11.
Hexadecimal  [32-Bits]

Area                                    Addr        Size        Decimal Bytes (Attributes)
--------------------------------        ----        ----        ------- ----- ------------
_CODE                               00000200    00002076 =        8310. bytes (REL,CON)

      Value  Global                              Global Defined In Module
      -----  --------------------------------   ------------------------
     00000941  A$_sms_manager$677                 _sms_manager
     00000942  A$_sms_manager$678                 _sms_manager
     00000943  A$_sms_manager$679                 _sms_manager
     00000946  A$_sms_manager$680                 _sms_manager
     00000947  A$_sms_manager$681                 _sms_manager
     00000948  A$_sms_manager$682                 _sms_manager
     00000949  A$_sms_manager$683                 _sms_manager
     0000094A  A$_sms_manager$684                 _sms_manager
     0000094D  A$_sms_manager$685                 _sms_manager
     00000950  A$_sms_manager$686                 _sms_manager
     00000951  A$_sms_manager$687                 _sms_manager
     00000952  A$_sms_manager$692                 _sms_manager
     00000952  C$_sms_manager.c$108$1$112         _sms_manager
     00000952  XG$devkit_SMS_loadTileMap$0$0      _sms_manager
     00000953  A$_sms_manager$705                 _sms_manager
     00000953  C$_sms_manager.c$110$1$112         _sms_manager
     00000953  C$_sms_manager.c$112$1$114         _sms_manager
     00000953  G$devkit_SMS_addSprite$0$0         _sms_manager
     00000953  _devkit_SMS_addSprite              _sms_manager
     00000956  A$_sms_manager$706                 _sms_manager
     00000957  A$_sms_manager$707                 _sms_manager
     00000958  A$_sms_manager$708                 _sms_manager
     00000959  A$_sms_manager$709                 _sms_manager
     0000095A  A$_sms_manager$710                 _sms_manager
     0000095D  A$_sms_manager$711                 _sms_manager
     0000095E  A$_sms_manager$712                 _sms_manager
     0000095F  A$_sms_manager$713                 _sms_manager
     00000960  A$_sms_manager$714                 _sms_manager
     00000961  A$_sms_manager$715                 _sms_manager
     00000964  A$_sms_manager$716                 _sms_manager
     00000965  A$_sms_manager$717                 _sms_manager
     00000966  A$_sms_manager$718                 _sms_manager
     00000967  A$_sms_manager$719                 _sms_manager
     00000968  A$_sms_manager$720                 _sms_manager
     0000096B  A$_sms_manager$721                 _sms_manager
     0000096C  A$_sms_manager$722                 _sms_manager
     0000096D  A$_sms_manager$727                 _sms_manager
     0000096D  C$_sms_manager.c$113$1$114         _sms_manager
     0000096D  XG$devkit_SMS_addSprite$0$0        _sms_manager
     0000096E  A$_sms_manager$737                 _sms_manager
     0000096E  C$_sms_manager.c$114$1$114         _sms_manager
     0000096E  G$devkit_SMS_addSprite_bulk8$0$0   _sms_manager
     0000096E  _devkit_SMS_addSprite_bulk8        _sms_manager
     00000970  A$_sms_manager$738                 _sms_manager
     00000974  A$_sms_manager$739                 _sms_manager
     00000976  A$_sms_manager$743                 _sms_manager
     00000976  C$_sms_manager.c$116$1$116         _sms_manager
     00000979  A$_sms_manager$744                 _sms_manager
     0000097C  A$_sms_manager$745                 _sms_manager
     0000097D  A$_sms_manager$746                 _sms_manager
     00000980  A$_sms_manager$747                 _sms_manager
ASxxxx Linker V03.00 + NoICE + sdld,  page 12.
Hexadecimal  [32-Bits]

Area                                    Addr        Size        Decimal Bytes (Attributes)
--------------------------------        ----        ----        ------- ----- ------------
_CODE                               00000200    00002076 =        8310. bytes (REL,CON)

      Value  Global                              Global Defined In Module
      -----  --------------------------------   ------------------------
     00000983  A$_sms_manager$748                 _sms_manager
     00000984  A$_sms_manager$749                 _sms_manager
     00000987  A$_sms_manager$750                 _sms_manager
     00000988  A$_sms_manager$751                 _sms_manager
     00000989  A$_sms_manager$755                 _sms_manager
     00000989  C$_sms_manager.c$117$1$116         _sms_manager
     0000098C  A$_sms_manager$756                 _sms_manager
     0000098F  A$_sms_manager$757                 _sms_manager
     00000990  A$_sms_manager$758                 _sms_manager
     00000993  A$_sms_manager$759                 _sms_manager
     00000995  A$_sms_manager$760                 _sms_manager
     00000996  A$_sms_manager$761                 _sms_manager
     00000997  A$_sms_manager$762                 _sms_manager
     00000998  A$_sms_manager$763                 _sms_manager
     0000099B  A$_sms_manager$764                 _sms_manager
     0000099C  A$_sms_manager$765                 _sms_manager
     0000099D  A$_sms_manager$766                 _sms_manager
     0000099E  A$_sms_manager$767                 _sms_manager
     0000099F  A$_sms_manager$768                 _sms_manager
     000009A2  A$_sms_manager$769                 _sms_manager
     000009A3  A$_sms_manager$770                 _sms_manager
     000009A4  A$_sms_manager$771                 _sms_manager
     000009A5  A$_sms_manager$775                 _sms_manager
     000009A5  C$_sms_manager.c$119$1$116         _sms_manager
     000009A8  A$_sms_manager$776                 _sms_manager
     000009AB  A$_sms_manager$777                 _sms_manager
     000009AC  A$_sms_manager$778                 _sms_manager
     000009AD  A$_sms_manager$779                 _sms_manager
     000009B0  A$_sms_manager$780                 _sms_manager
     000009B2  A$_sms_manager$781                 _sms_manager
     000009B3  A$_sms_manager$782                 _sms_manager
     000009B4  A$_sms_manager$783                 _sms_manager
     000009B5  A$_sms_manager$784                 _sms_manager
     000009B6  A$_sms_manager$785                 _sms_manager
     000009B7  A$_sms_manager$786                 _sms_manager
     000009B8  A$_sms_manager$787                 _sms_manager
     000009BB  A$_sms_manager$788                 _sms_manager
     000009BC  A$_sms_manager$789                 _sms_manager
     000009BD  A$_sms_manager$790                 _sms_manager
     000009C0  A$_sms_manager$791                 _sms_manager
     000009C1  A$_sms_manager$792                 _sms_manager
     000009C2  A$_sms_manager$793                 _sms_manager
     000009C3  A$_sms_manager$794                 _sms_manager
     000009C4  A$_sms_manager$798                 _sms_manager
     000009C4  C$_sms_manager.c$120$1$116         _sms_manager
     000009C7  A$_sms_manager$799                 _sms_manager
     000009CA  A$_sms_manager$800                 _sms_manager
     000009CB  A$_sms_manager$801                 _sms_manager
     000009CC  A$_sms_manager$802                 _sms_manager
     000009CD  A$_sms_manager$803                 _sms_manager
     000009CE  A$_sms_manager$804                 _sms_manager
ASxxxx Linker V03.00 + NoICE + sdld,  page 13.
Hexadecimal  [32-Bits]

Area                                    Addr        Size        Decimal Bytes (Attributes)
--------------------------------        ----        ----        ------- ----- ------------
_CODE                               00000200    00002076 =        8310. bytes (REL,CON)

      Value  Global                              Global Defined In Module
      -----  --------------------------------   ------------------------
     000009CF  A$_sms_manager$805                 _sms_manager
     000009D0  A$_sms_manager$806                 _sms_manager
     000009D1  A$_sms_manager$807                 _sms_manager
     000009D4  A$_sms_manager$808                 _sms_manager
     000009D5  A$_sms_manager$809                 _sms_manager
     000009D6  A$_sms_manager$810                 _sms_manager
     000009D7  A$_sms_manager$814                 _sms_manager
     000009D7  C$_sms_manager.c$122$1$116         _sms_manager
     000009DA  A$_sms_manager$815                 _sms_manager
     000009DC  A$_sms_manager$816                 _sms_manager
     000009DD  A$_sms_manager$817                 _sms_manager
     000009E0  A$_sms_manager$818                 _sms_manager
     000009E2  A$_sms_manager$819                 _sms_manager
     000009E3  A$_sms_manager$820                 _sms_manager
     000009E6  A$_sms_manager$821                 _sms_manager
     000009E8  A$_sms_manager$822                 _sms_manager
     000009E9  A$_sms_manager$823                 _sms_manager
     000009EA  A$_sms_manager$824                 _sms_manager
     000009EB  A$_sms_manager$825                 _sms_manager
     000009EC  A$_sms_manager$826                 _sms_manager
     000009ED  A$_sms_manager$827                 _sms_manager
     000009EE  A$_sms_manager$828                 _sms_manager
     000009F1  A$_sms_manager$829                 _sms_manager
     000009F2  A$_sms_manager$830                 _sms_manager
     000009F3  A$_sms_manager$831                 _sms_manager
     000009F6  A$_sms_manager$832                 _sms_manager
     000009F7  A$_sms_manager$833                 _sms_manager
     000009F8  A$_sms_manager$834                 _sms_manager
     000009F9  A$_sms_manager$835                 _sms_manager
     000009FA  A$_sms_manager$839                 _sms_manager
     000009FA  C$_sms_manager.c$123$1$116         _sms_manager
     000009FD  A$_sms_manager$840                 _sms_manager
     000009FF  A$_sms_manager$841                 _sms_manager
     00000A00  A$_sms_manager$842                 _sms_manager
     00000A03  A$_sms_manager$843                 _sms_manager
     00000A05  A$_sms_manager$844                 _sms_manager
     00000A06  A$_sms_manager$845                 _sms_manager
     00000A07  A$_sms_manager$846                 _sms_manager
     00000A08  A$_sms_manager$847                 _sms_manager
     00000A09  A$_sms_manager$848                 _sms_manager
     00000A0A  A$_sms_manager$849                 _sms_manager
     00000A0D  A$_sms_manager$850                 _sms_manager
     00000A0E  A$_sms_manager$851                 _sms_manager
     00000A0F  A$_sms_manager$852                 _sms_manager
     00000A10  A$_sms_manager$856                 _sms_manager
     00000A10  C$_sms_manager.c$125$1$116         _sms_manager
     00000A13  A$_sms_manager$857                 _sms_manager
     00000A15  A$_sms_manager$858                 _sms_manager
     00000A16  A$_sms_manager$859                 _sms_manager
     00000A19  A$_sms_manager$860                 _sms_manager
     00000A1B  A$_sms_manager$861                 _sms_manager
ASxxxx Linker V03.00 + NoICE + sdld,  page 14.
Hexadecimal  [32-Bits]

Area                                    Addr        Size        Decimal Bytes (Attributes)
--------------------------------        ----        ----        ------- ----- ------------
_CODE                               00000200    00002076 =        8310. bytes (REL,CON)

      Value  Global                              Global Defined In Module
      -----  --------------------------------   ------------------------
     00000A1C  A$_sms_manager$862                 _sms_manager
     00000A1F  A$_sms_manager$863                 _sms_manager
     00000A21  A$_sms_manager$864                 _sms_manager
     00000A22  A$_sms_manager$865                 _sms_manager
     00000A23  A$_sms_manager$866                 _sms_manager
     00000A24  A$_sms_manager$867                 _sms_manager
     00000A25  A$_sms_manager$868                 _sms_manager
     00000A26  A$_sms_manager$869                 _sms_manager
     00000A27  A$_sms_manager$870                 _sms_manager
     00000A2A  A$_sms_manager$871                 _sms_manager
     00000A2B  A$_sms_manager$872                 _sms_manager
     00000A2C  A$_sms_manager$873                 _sms_manager
     00000A2F  A$_sms_manager$874                 _sms_manager
     00000A30  A$_sms_manager$875                 _sms_manager
     00000A31  A$_sms_manager$876                 _sms_manager
     00000A32  A$_sms_manager$877                 _sms_manager
     00000A33  A$_sms_manager$881                 _sms_manager
     00000A33  C$_sms_manager.c$126$1$116         _sms_manager
     00000A36  A$_sms_manager$882                 _sms_manager
     00000A38  A$_sms_manager$883                 _sms_manager
     00000A39  A$_sms_manager$884                 _sms_manager
     00000A3C  A$_sms_manager$885                 _sms_manager
     00000A3E  A$_sms_manager$886                 _sms_manager
     00000A3F  A$_sms_manager$887                 _sms_manager
     00000A40  A$_sms_manager$888                 _sms_manager
     00000A41  A$_sms_manager$889                 _sms_manager
     00000A42  A$_sms_manager$890                 _sms_manager
     00000A45  A$_sms_manager$891                 _sms_manager
     00000A46  A$_sms_manager$892                 _sms_manager
     00000A47  A$_sms_manager$893                 _sms_manager
     00000A49  A$_sms_manager$898                 _sms_manager
     00000A49  C$_sms_manager.c$127$1$116         _sms_manager
     00000A49  XG$devkit_SMS_addSprite_bulk8$0$   _sms_manager
     00000A4A  A$_sms_manager$908                 _sms_manager
     00000A4A  C$_sms_manager.c$128$1$116         _sms_manager
     00000A4A  G$devkit_SMS_addSprite_bulk12$0$   _sms_manager
     00000A4A  _devkit_SMS_addSprite_bulk12       _sms_manager
     00000A4C  A$_sms_manager$909                 _sms_manager
     00000A50  A$_sms_manager$910                 _sms_manager
     00000A52  A$_sms_manager$914                 _sms_manager
     00000A52  C$_sms_manager.c$130$1$118         _sms_manager
     00000A55  A$_sms_manager$915                 _sms_manager
     00000A56  A$_sms_manager$916                 _sms_manager
     00000A57  A$_sms_manager$917                 _sms_manager
     00000A5A  A$_sms_manager$918                 _sms_manager
     00000A5B  A$_sms_manager$919                 _sms_manager
     00000A5E  A$_sms_manager$920                 _sms_manager
     00000A5F  A$_sms_manager$921                 _sms_manager
     00000A60  A$_sms_manager$922                 _sms_manager
     00000A63  A$_sms_manager$923                 _sms_manager
     00000A64  A$_sms_manager$924                 _sms_manager
ASxxxx Linker V03.00 + NoICE + sdld,  page 15.
Hexadecimal  [32-Bits]

Area                                    Addr        Size        Decimal Bytes (Attributes)
--------------------------------        ----        ----        ------- ----- ------------
_CODE                               00000200    00002076 =        8310. bytes (REL,CON)

      Value  Global                              Global Defined In Module
      -----  --------------------------------   ------------------------
     00000A65  A$_sms_manager$925                 _sms_manager
     00000A66  A$_sms_manager$929                 _sms_manager
     00000A66  C$_sms_manager.c$131$1$118         _sms_manager
     00000A67  A$_sms_manager$930                 _sms_manager
     00000A68  A$_sms_manager$931                 _sms_manager
     00000A6B  A$_sms_manager$932                 _sms_manager
     00000A6D  A$_sms_manager$933                 _sms_manager
     00000A6E  A$_sms_manager$934                 _sms_manager
     00000A6F  A$_sms_manager$935                 _sms_manager
     00000A70  A$_sms_manager$936                 _sms_manager
     00000A71  A$_sms_manager$937                 _sms_manager
     00000A74  A$_sms_manager$938                 _sms_manager
     00000A75  A$_sms_manager$939                 _sms_manager
     00000A76  A$_sms_manager$940                 _sms_manager
     00000A77  A$_sms_manager$941                 _sms_manager
     00000A78  A$_sms_manager$942                 _sms_manager
     00000A7B  A$_sms_manager$943                 _sms_manager
     00000A7C  A$_sms_manager$944                 _sms_manager
     00000A7D  A$_sms_manager$945                 _sms_manager
     00000A7E  A$_sms_manager$949                 _sms_manager
     00000A7E  C$_sms_manager.c$132$1$118         _sms_manager
     00000A7F  A$_sms_manager$950                 _sms_manager
     00000A80  A$_sms_manager$951                 _sms_manager
     00000A81  A$_sms_manager$952                 _sms_manager
     00000A84  A$_sms_manager$953                 _sms_manager
     00000A86  A$_sms_manager$954                 _sms_manager
     00000A87  A$_sms_manager$955                 _sms_manager
     00000A88  A$_sms_manager$956                 _sms_manager
     00000A89  A$_sms_manager$957                 _sms_manager
     00000A8A  A$_sms_manager$958                 _sms_manager
     00000A8B  A$_sms_manager$959                 _sms_manager
     00000A8E  A$_sms_manager$960                 _sms_manager
     00000A8F  A$_sms_manager$961                 _sms_manager
     00000A92  A$_sms_manager$962                 _sms_manager
     00000A93  A$_sms_manager$963                 _sms_manager
     00000A94  A$_sms_manager$964                 _sms_manager
     00000A95  A$_sms_manager$965                 _sms_manager
     00000A96  A$_sms_manager$969                 _sms_manager
     00000A96  C$_sms_manager.c$134$1$118         _sms_manager
     00000A97  A$_sms_manager$970                 _sms_manager
     00000A98  A$_sms_manager$971                 _sms_manager
     00000A99  A$_sms_manager$972                 _sms_manager
     00000A9A  A$_sms_manager$973                 _sms_manager
     00000A9D  A$_sms_manager$974                 _sms_manager
     00000A9F  A$_sms_manager$975                 _sms_manager
     00000AA0  A$_sms_manager$976                 _sms_manager
     00000AA1  A$_sms_manager$977                 _sms_manager
     00000AA2  A$_sms_manager$978                 _sms_manager
     00000AA3  A$_sms_manager$979                 _sms_manager
     00000AA4  A$_sms_manager$980                 _sms_manager
     00000AA5  A$_sms_manager$981                 _sms_manager
ASxxxx Linker V03.00 + NoICE + sdld,  page 16.
Hexadecimal  [32-Bits]

Area                                    Addr        Size        Decimal Bytes (Attributes)
--------------------------------        ----        ----        ------- ----- ------------
_CODE                               00000200    00002076 =        8310. bytes (REL,CON)

      Value  Global                              Global Defined In Module
      -----  --------------------------------   ------------------------
     00000AA6  A$_sms_manager$982                 _sms_manager
     00000AA9  A$_sms_manager$983                 _sms_manager
     00000AAA  A$_sms_manager$984                 _sms_manager
     00000AAB  A$_sms_manager$985                 _sms_manager
     00000AAE  A$_sms_manager$986                 _sms_manager
     00000AAF  A$_sms_manager$987                 _sms_manager
     00000AB0  A$_sms_manager$988                 _sms_manager
     00000AB1  A$_sms_manager$989                 _sms_manager
     00000AB2  A$_sms_manager$993                 _sms_manager
     00000AB2  C$_sms_manager.c$135$1$118         _sms_manager
     00000AB3  A$_sms_manager$994                 _sms_manager
     00000AB5  A$_sms_manager$995                 _sms_manager
     00000AB6  A$_sms_manager$996                 _sms_manager
     00000AB7  A$_sms_manager$997                 _sms_manager
     00000AB8  A$_sms_manager$998                 _sms_manager
     00000AB9  A$_sms_manager$999                 _sms_manager
     00000ABA  A$_sms_manager$1000                _sms_manager
     00000ABB  A$_sms_manager$1001                _sms_manager
     00000ABE  A$_sms_manager$1002                _sms_manager
     00000ABF  A$_sms_manager$1003                _sms_manager
     00000AC0  A$_sms_manager$1004                _sms_manager
     00000AC1  A$_sms_manager$1005                _sms_manager
     00000AC2  A$_sms_manager$1009                _sms_manager
     00000AC2  C$_sms_manager.c$136$1$118         _sms_manager
     00000AC3  A$_sms_manager$1010                _sms_manager
     00000AC5  A$_sms_manager$1011                _sms_manager
     00000AC6  A$_sms_manager$1012                _sms_manager
     00000AC7  A$_sms_manager$1013                _sms_manager
     00000AC8  A$_sms_manager$1014                _sms_manager
     00000AC9  A$_sms_manager$1015                _sms_manager
     00000ACA  A$_sms_manager$1016                _sms_manager
     00000ACB  A$_sms_manager$1017                _sms_manager
     00000ACE  A$_sms_manager$1018                _sms_manager
     00000ACF  A$_sms_manager$1019                _sms_manager
     00000AD0  A$_sms_manager$1020                _sms_manager
     00000AD1  A$_sms_manager$1021                _sms_manager
     00000AD2  A$_sms_manager$1025                _sms_manager
     00000AD2  C$_sms_manager.c$138$1$118         _sms_manager
     00000AD3  A$_sms_manager$1026                _sms_manager
     00000AD5  A$_sms_manager$1027                _sms_manager
     00000AD6  A$_sms_manager$1028                _sms_manager
     00000AD9  A$_sms_manager$1029                _sms_manager
     00000ADB  A$_sms_manager$1030                _sms_manager
     00000ADC  A$_sms_manager$1031                _sms_manager
     00000ADD  A$_sms_manager$1032                _sms_manager
     00000ADE  A$_sms_manager$1033                _sms_manager
     00000ADF  A$_sms_manager$1034                _sms_manager
     00000AE0  A$_sms_manager$1035                _sms_manager
     00000AE1  A$_sms_manager$1036                _sms_manager
     00000AE2  A$_sms_manager$1037                _sms_manager
     00000AE5  A$_sms_manager$1038                _sms_manager
ASxxxx Linker V03.00 + NoICE + sdld,  page 17.
Hexadecimal  [32-Bits]

Area                                    Addr        Size        Decimal Bytes (Attributes)
--------------------------------        ----        ----        ------- ----- ------------
_CODE                               00000200    00002076 =        8310. bytes (REL,CON)

      Value  Global                              Global Defined In Module
      -----  --------------------------------   ------------------------
     00000AE6  A$_sms_manager$1039                _sms_manager
     00000AE7  A$_sms_manager$1040                _sms_manager
     00000AEA  A$_sms_manager$1041                _sms_manager
     00000AEB  A$_sms_manager$1042                _sms_manager
     00000AEC  A$_sms_manager$1043                _sms_manager
     00000AED  A$_sms_manager$1044                _sms_manager
     00000AEE  A$_sms_manager$1048                _sms_manager
     00000AEE  C$_sms_manager.c$139$1$118         _sms_manager
     00000AEF  A$_sms_manager$1049                _sms_manager
     00000AF1  A$_sms_manager$1050                _sms_manager
     00000AF2  A$_sms_manager$1051                _sms_manager
     00000AF3  A$_sms_manager$1052                _sms_manager
     00000AF4  A$_sms_manager$1053                _sms_manager
     00000AF5  A$_sms_manager$1054                _sms_manager
     00000AF6  A$_sms_manager$1055                _sms_manager
     00000AF7  A$_sms_manager$1056                _sms_manager
     00000AF8  A$_sms_manager$1057                _sms_manager
     00000AFB  A$_sms_manager$1058                _sms_manager
     00000AFC  A$_sms_manager$1059                _sms_manager
     00000AFD  A$_sms_manager$1060                _sms_manager
     00000AFE  A$_sms_manager$1061                _sms_manager
     00000AFF  A$_sms_manager$1065                _sms_manager
     00000AFF  C$_sms_manager.c$140$1$118         _sms_manager
     00000B00  A$_sms_manager$1066                _sms_manager
     00000B02  A$_sms_manager$1067                _sms_manager
     00000B03  A$_sms_manager$1068                _sms_manager
     00000B04  A$_sms_manager$1069                _sms_manager
     00000B05  A$_sms_manager$1070                _sms_manager
     00000B06  A$_sms_manager$1071                _sms_manager
     00000B07  A$_sms_manager$1072                _sms_manager
     00000B08  A$_sms_manager$1073                _sms_manager
     00000B0B  A$_sms_manager$1074                _sms_manager
     00000B0C  A$_sms_manager$1075                _sms_manager
     00000B0D  A$_sms_manager$1076                _sms_manager
     00000B0E  A$_sms_manager$1077                _sms_manager
     00000B0F  A$_sms_manager$1081                _sms_manager
     00000B0F  C$_sms_manager.c$142$1$118         _sms_manager
     00000B10  A$_sms_manager$1082                _sms_manager
     00000B12  A$_sms_manager$1083                _sms_manager
     00000B13  A$_sms_manager$1084                _sms_manager
     00000B16  A$_sms_manager$1085                _sms_manager
     00000B18  A$_sms_manager$1086                _sms_manager
     00000B19  A$_sms_manager$1087                _sms_manager
     00000B1A  A$_sms_manager$1088                _sms_manager
     00000B1B  A$_sms_manager$1089                _sms_manager
     00000B1C  A$_sms_manager$1090                _sms_manager
     00000B1D  A$_sms_manager$1091                _sms_manager
     00000B1E  A$_sms_manager$1092                _sms_manager
     00000B1F  A$_sms_manager$1093                _sms_manager
     00000B22  A$_sms_manager$1094                _sms_manager
     00000B23  A$_sms_manager$1095                _sms_manager
ASxxxx Linker V03.00 + NoICE + sdld,  page 18.
Hexadecimal  [32-Bits]

Area                                    Addr        Size        Decimal Bytes (Attributes)
--------------------------------        ----        ----        ------- ----- ------------
_CODE                               00000200    00002076 =        8310. bytes (REL,CON)

      Value  Global                              Global Defined In Module
      -----  --------------------------------   ------------------------
     00000B24  A$_sms_manager$1096                _sms_manager
     00000B27  A$_sms_manager$1097                _sms_manager
     00000B28  A$_sms_manager$1098                _sms_manager
     00000B29  A$_sms_manager$1099                _sms_manager
     00000B2A  A$_sms_manager$1100                _sms_manager
     00000B2B  A$_sms_manager$1104                _sms_manager
     00000B2B  C$_sms_manager.c$143$1$118         _sms_manager
     00000B2C  A$_sms_manager$1105                _sms_manager
     00000B2E  A$_sms_manager$1106                _sms_manager
     00000B2F  A$_sms_manager$1107                _sms_manager
     00000B30  A$_sms_manager$1108                _sms_manager
     00000B31  A$_sms_manager$1109                _sms_manager
     00000B32  A$_sms_manager$1110                _sms_manager
     00000B33  A$_sms_manager$1111                _sms_manager
     00000B34  A$_sms_manager$1112                _sms_manager
     00000B35  A$_sms_manager$1113                _sms_manager
     00000B38  A$_sms_manager$1114                _sms_manager
     00000B39  A$_sms_manager$1115                _sms_manager
     00000B3A  A$_sms_manager$1116                _sms_manager
     00000B3B  A$_sms_manager$1117                _sms_manager
     00000B3C  A$_sms_manager$1121                _sms_manager
     00000B3C  C$_sms_manager.c$144$1$118         _sms_manager
     00000B3D  A$_sms_manager$1122                _sms_manager
     00000B3F  A$_sms_manager$1123                _sms_manager
     00000B40  A$_sms_manager$1124                _sms_manager
     00000B41  A$_sms_manager$1125                _sms_manager
     00000B42  A$_sms_manager$1126                _sms_manager
     00000B43  A$_sms_manager$1127                _sms_manager
     00000B44  A$_sms_manager$1128                _sms_manager
     00000B45  A$_sms_manager$1129                _sms_manager
     00000B48  A$_sms_manager$1130                _sms_manager
     00000B49  A$_sms_manager$1131                _sms_manager
     00000B4A  A$_sms_manager$1132                _sms_manager
     00000B4C  A$_sms_manager$1137                _sms_manager
     00000B4C  C$_sms_manager.c$145$1$118         _sms_manager
     00000B4C  XG$devkit_SMS_addSprite_bulk12$0   _sms_manager
     00000B4D  A$_sms_manager$1154                _sms_manager
     00000B4D  C$_sms_manager.c$147$1$118         _sms_manager
     00000B4D  C$_sms_manager.c$149$1$119         _sms_manager
     00000B4D  C$_sms_manager.c$150$1$119         _sms_manager
     00000B4D  G$devkit_SMS_initSprites$0$0       _sms_manager
     00000B4D  XG$devkit_SMS_initSprites$0$0      _sms_manager
     00000B4D  _devkit_SMS_initSprites            _sms_manager
     00000B50  A$_sms_manager$1171                _sms_manager
     00000B50  C$_sms_manager.c$151$1$119         _sms_manager
     00000B50  C$_sms_manager.c$153$1$120         _sms_manager
     00000B50  C$_sms_manager.c$154$1$120         _sms_manager
     00000B50  G$devkit_SMS_finalizeSprites$0$0   _sms_manager
     00000B50  XG$devkit_SMS_finalizeSprites$0$   _sms_manager
     00000B50  _devkit_SMS_finalizeSprites        _sms_manager
     00000B53  A$_sms_manager$1188                _sms_manager
ASxxxx Linker V03.00 + NoICE + sdld,  page 19.
Hexadecimal  [32-Bits]

Area                                    Addr        Size        Decimal Bytes (Attributes)
--------------------------------        ----        ----        ------- ----- ------------
_CODE                               00000200    00002076 =        8310. bytes (REL,CON)

      Value  Global                              Global Defined In Module
      -----  --------------------------------   ------------------------
     00000B53  C$_sms_manager.c$155$1$120         _sms_manager
     00000B53  C$_sms_manager.c$157$1$121         _sms_manager
     00000B53  C$_sms_manager.c$158$1$121         _sms_manager
     00000B53  G$devkit_SMS_waitForVBlank$0$0     _sms_manager
     00000B53  XG$devkit_SMS_waitForVBlank$0$0    _sms_manager
     00000B53  _devkit_SMS_waitForVBlank          _sms_manager
     00000B56  A$_sms_manager$1205                _sms_manager
     00000B56  C$_sms_manager.c$159$1$121         _sms_manager
     00000B56  C$_sms_manager.c$161$1$122         _sms_manager
     00000B56  C$_sms_manager.c$162$1$122         _sms_manager
     00000B56  G$devkit_SMS_copySpritestoSAT$0$   _sms_manager
     00000B56  XG$devkit_SMS_copySpritestoSAT$0   _sms_manager
     00000B56  _devkit_SMS_copySpritestoSAT       _sms_manager
     00000B59  A$_sms_manager$1222                _sms_manager
     00000B59  C$_sms_manager.c$163$1$122         _sms_manager
     00000B59  C$_sms_manager.c$165$1$123         _sms_manager
     00000B59  C$_sms_manager.c$166$1$123         _sms_manager
     00000B59  G$devkit_UNSAFE_SMS_copySpritest   _sms_manager
     00000B59  XG$devkit_UNSAFE_SMS_copySprites   _sms_manager
     00000B59  _devkit_UNSAFE_SMS_copySpritesto   _sms_manager
     00000B5C  A$_sms_manager$1239                _sms_manager
     00000B5C  C$_sms_manager.c$168$1$123         _sms_manager
     00000B5C  C$_sms_manager.c$170$1$124         _sms_manager
     00000B5C  C$_sms_manager.c$171$1$124         _sms_manager
     00000B5C  G$devkit_SMS_queryPauseRequested   _sms_manager
     00000B5C  XG$devkit_SMS_queryPauseRequeste   _sms_manager
     00000B5C  _devkit_SMS_queryPauseRequested    _sms_manager
     00000B5F  A$_sms_manager$1256                _sms_manager
     00000B5F  C$_sms_manager.c$172$1$124         _sms_manager
     00000B5F  C$_sms_manager.c$174$1$125         _sms_manager
     00000B5F  C$_sms_manager.c$175$1$125         _sms_manager
     00000B5F  G$devkit_SMS_resetPauseRequest$0   _sms_manager
     00000B5F  XG$devkit_SMS_resetPauseRequest$   _sms_manager
     00000B5F  _devkit_SMS_resetPauseRequest      _sms_manager
     00000B62  A$_sms_manager$1269                _sms_manager
     00000B62  C$_sms_manager.c$177$1$125         _sms_manager
     00000B62  C$_sms_manager.c$179$1$126         _sms_manager
     00000B62  G$devkit_isCollisionDetected$0$0   _sms_manager
     00000B62  _devkit_isCollisionDetected        _sms_manager
     00000B65  A$_sms_manager$1270                _sms_manager
     00000B67  A$_sms_manager$1271                _sms_manager
     00000B68  A$_sms_manager$1276                _sms_manager
     00000B68  C$_sms_manager.c$180$1$126         _sms_manager
     00000B68  XG$devkit_isCollisionDetected$0$   _sms_manager
     00000B69  A$_sms_manager$1293                _sms_manager
     00000B69  C$_sms_manager.c$183$1$126         _sms_manager
     00000B69  C$_sms_manager.c$185$1$127         _sms_manager
     00000B69  C$_sms_manager.c$186$1$127         _sms_manager
     00000B69  G$devkit_SMS_getKeysStatus$0$0     _sms_manager
     00000B69  XG$devkit_SMS_getKeysStatus$0$0    _sms_manager
     00000B69  _devkit_SMS_getKeysStatus          _sms_manager
ASxxxx Linker V03.00 + NoICE + sdld,  page 20.
Hexadecimal  [32-Bits]

Area                                    Addr        Size        Decimal Bytes (Attributes)
--------------------------------        ----        ----        ------- ----- ------------
_CODE                               00000200    00002076 =        8310. bytes (REL,CON)

      Value  Global                              Global Defined In Module
      -----  --------------------------------   ------------------------
     00000B6C  A$_sms_manager$1306                _sms_manager
     00000B6C  C$_sms_manager.c$187$1$127         _sms_manager
     00000B6C  C$_sms_manager.c$189$1$128         _sms_manager
     00000B6C  G$devkit_PORT_A_KEY_UP$0$0         _sms_manager
     00000B6C  _devkit_PORT_A_KEY_UP              _sms_manager
     00000B6F  A$_sms_manager$1311                _sms_manager
     00000B6F  C$_sms_manager.c$190$1$128         _sms_manager
     00000B6F  XG$devkit_PORT_A_KEY_UP$0$0        _sms_manager
     00000B70  A$_sms_manager$1324                _sms_manager
     00000B70  C$_sms_manager.c$191$1$128         _sms_manager
     00000B70  C$_sms_manager.c$193$1$129         _sms_manager
     00000B70  G$devkit_PORT_A_KEY_DOWN$0$0       _sms_manager
     00000B70  _devkit_PORT_A_KEY_DOWN            _sms_manager
     00000B73  A$_sms_manager$1329                _sms_manager
     00000B73  C$_sms_manager.c$194$1$129         _sms_manager
     00000B73  XG$devkit_PORT_A_KEY_DOWN$0$0      _sms_manager
     00000B74  A$_sms_manager$1342                _sms_manager
     00000B74  C$_sms_manager.c$195$1$129         _sms_manager
     00000B74  C$_sms_manager.c$197$1$130         _sms_manager
     00000B74  G$devkit_PORT_A_KEY_LEFT$0$0       _sms_manager
     00000B74  _devkit_PORT_A_KEY_LEFT            _sms_manager
     00000B77  A$_sms_manager$1347                _sms_manager
     00000B77  C$_sms_manager.c$198$1$130         _sms_manager
     00000B77  XG$devkit_PORT_A_KEY_LEFT$0$0      _sms_manager
     00000B78  A$_sms_manager$1360                _sms_manager
     00000B78  C$_sms_manager.c$199$1$130         _sms_manager
     00000B78  C$_sms_manager.c$201$1$131         _sms_manager
     00000B78  G$devkit_PORT_A_KEY_RIGHT$0$0      _sms_manager
     00000B78  _devkit_PORT_A_KEY_RIGHT           _sms_manager
     00000B7B  A$_sms_manager$1365                _sms_manager
     00000B7B  C$_sms_manager.c$202$1$131         _sms_manager
     00000B7B  XG$devkit_PORT_A_KEY_RIGHT$0$0     _sms_manager
     00000B7C  A$_sms_manager$1378                _sms_manager
     00000B7C  C$_sms_manager.c$203$1$131         _sms_manager
     00000B7C  C$_sms_manager.c$205$1$132         _sms_manager
     00000B7C  G$devkit_PORT_A_KEY_1$0$0          _sms_manager
     00000B7C  _devkit_PORT_A_KEY_1               _sms_manager
     00000B7F  A$_sms_manager$1383                _sms_manager
     00000B7F  C$_sms_manager.c$206$1$132         _sms_manager
     00000B7F  XG$devkit_PORT_A_KEY_1$0$0         _sms_manager
     00000B80  A$_sms_manager$1396                _sms_manager
     00000B80  C$_sms_manager.c$207$1$132         _sms_manager
     00000B80  C$_sms_manager.c$209$1$133         _sms_manager
     00000B80  G$devkit_PORT_A_KEY_2$0$0          _sms_manager
     00000B80  _devkit_PORT_A_KEY_2               _sms_manager
     00000B83  A$_sms_manager$1401                _sms_manager
     00000B83  C$_sms_manager.c$210$1$133         _sms_manager
     00000B83  XG$devkit_PORT_A_KEY_2$0$0         _sms_manager
     00000B84  A$_sms_manager$1414                _sms_manager
     00000B84  C$_sms_manager.c$213$1$133         _sms_manager
     00000B84  C$_sms_manager.c$215$1$134         _sms_manager
ASxxxx Linker V03.00 + NoICE + sdld,  page 21.
Hexadecimal  [32-Bits]

Area                                    Addr        Size        Decimal Bytes (Attributes)
--------------------------------        ----        ----        ------- ----- ------------
_CODE                               00000200    00002076 =        8310. bytes (REL,CON)

      Value  Global                              Global Defined In Module
      -----  --------------------------------   ------------------------
     00000B84  G$devkit_SPRITEMODE_NORMAL$0$0     _sms_manager
     00000B84  _devkit_SPRITEMODE_NORMAL          _sms_manager
     00000B86  A$_sms_manager$1419                _sms_manager
     00000B86  C$_sms_manager.c$216$1$134         _sms_manager
     00000B86  XG$devkit_SPRITEMODE_NORMAL$0$0    _sms_manager
     00000B87  A$_sms_manager$1432                _sms_manager
     00000B87  C$_sms_manager.c$217$1$134         _sms_manager
     00000B87  C$_sms_manager.c$219$1$135         _sms_manager
     00000B87  G$devkit_VDPFEATURE_HIDEFIRSTCOL   _sms_manager
     00000B87  _devkit_VDPFEATURE_HIDEFIRSTCOL    _sms_manager
     00000B8A  A$_sms_manager$1437                _sms_manager
     00000B8A  C$_sms_manager.c$220$1$135         _sms_manager
     00000B8A  XG$devkit_VDPFEATURE_HIDEFIRSTCO   _sms_manager
     00000B8B  F_sms_manager$__str_0$0$0          _sms_manager
     00000B99  F_sms_manager$__str_1$0$0          _sms_manager
     00000BA7  F_sms_manager$__str_2$0$0          _sms_manager
     00000BDF  A$_snd_manager$83                  _snd_manager
     00000BDF  C$_snd_manager.c$11$1$31           _snd_manager
     00000BDF  C$_snd_manager.c$9$0$0             _snd_manager
     00000BDF  G$devkit_PSGPlay$0$0               _snd_manager
     00000BDF  _devkit_PSGPlay                    _snd_manager
     00000BE0  A$_snd_manager$84                  _snd_manager
     00000BE1  A$_snd_manager$85                  _snd_manager
     00000BE2  A$_snd_manager$86                  _snd_manager
     00000BE3  A$_snd_manager$87                  _snd_manager
     00000BE4  A$_snd_manager$88                  _snd_manager
     00000BE7  A$_snd_manager$89                  _snd_manager
     00000BE8  A$_snd_manager$94                  _snd_manager
     00000BE8  C$_snd_manager.c$12$1$31           _snd_manager
     00000BE8  XG$devkit_PSGPlay$0$0              _snd_manager
     00000BE9  A$_snd_manager$107                 _snd_manager
     00000BE9  C$_snd_manager.c$13$1$31           _snd_manager
     00000BE9  C$_snd_manager.c$15$1$33           _snd_manager
     00000BE9  G$devkit_PSGPlayNoRepeat$0$0       _snd_manager
     00000BE9  _devkit_PSGPlayNoRepeat            _snd_manager
     00000BEA  A$_snd_manager$108                 _snd_manager
     00000BEB  A$_snd_manager$109                 _snd_manager
     00000BEC  A$_snd_manager$110                 _snd_manager
     00000BED  A$_snd_manager$111                 _snd_manager
     00000BEE  A$_snd_manager$112                 _snd_manager
     00000BF1  A$_snd_manager$113                 _snd_manager
     00000BF2  A$_snd_manager$118                 _snd_manager
     00000BF2  C$_snd_manager.c$16$1$33           _snd_manager
     00000BF2  XG$devkit_PSGPlayNoRepeat$0$0      _snd_manager
     00000BF3  A$_snd_manager$135                 _snd_manager
     00000BF3  C$_snd_manager.c$17$1$33           _snd_manager
     00000BF3  C$_snd_manager.c$19$1$35           _snd_manager
     00000BF3  C$_snd_manager.c$20$1$35           _snd_manager
     00000BF3  G$devkit_PSGStop$0$0               _snd_manager
     00000BF3  XG$devkit_PSGStop$0$0              _snd_manager
     00000BF3  _devkit_PSGStop                    _snd_manager
ASxxxx Linker V03.00 + NoICE + sdld,  page 22.
Hexadecimal  [32-Bits]

Area                                    Addr        Size        Decimal Bytes (Attributes)
--------------------------------        ----        ----        ------- ----- ------------
_CODE                               00000200    00002076 =        8310. bytes (REL,CON)

      Value  Global                              Global Defined In Module
      -----  --------------------------------   ------------------------
     00000BF6  A$_snd_manager$152                 _snd_manager
     00000BF6  C$_snd_manager.c$21$1$35           _snd_manager
     00000BF6  C$_snd_manager.c$23$1$37           _snd_manager
     00000BF6  C$_snd_manager.c$24$1$37           _snd_manager
     00000BF6  G$devkit_PSGResume$0$0             _snd_manager
     00000BF6  XG$devkit_PSGResume$0$0            _snd_manager
     00000BF6  _devkit_PSGResume                  _snd_manager
     00000BF9  A$_snd_manager$169                 _snd_manager
     00000BF9  C$_snd_manager.c$25$1$37           _snd_manager
     00000BF9  C$_snd_manager.c$27$1$39           _snd_manager
     00000BF9  C$_snd_manager.c$28$1$39           _snd_manager
     00000BF9  G$devkit_PSGGetStatus$0$0          _snd_manager
     00000BF9  XG$devkit_PSGGetStatus$0$0         _snd_manager
     00000BF9  _devkit_PSGGetStatus               _snd_manager
     00000BFC  A$_snd_manager$182                 _snd_manager
     00000BFC  C$_snd_manager.c$29$1$39           _snd_manager
     00000BFC  C$_snd_manager.c$31$1$41           _snd_manager
     00000BFC  G$devkit_PSGSetMusicVolumeAttenu   _snd_manager
     00000BFC  _devkit_PSGSetMusicVolumeAttenua   _snd_manager
     00000BFF  A$_snd_manager$183                 _snd_manager
     00000C00  A$_snd_manager$184                 _snd_manager
     00000C01  A$_snd_manager$185                 _snd_manager
     00000C02  A$_snd_manager$186                 _snd_manager
     00000C03  A$_snd_manager$187                 _snd_manager
     00000C06  A$_snd_manager$188                 _snd_manager
     00000C07  A$_snd_manager$193                 _snd_manager
     00000C07  C$_snd_manager.c$32$1$41           _snd_manager
     00000C07  XG$devkit_PSGSetMusicVolumeAtten   _snd_manager
     00000C08  A$_snd_manager$206                 _snd_manager
     00000C08  C$_snd_manager.c$34$1$41           _snd_manager
     00000C08  C$_snd_manager.c$36$1$43           _snd_manager
     00000C08  G$devkit_PSGSFXPlay$0$0            _snd_manager
     00000C08  _devkit_PSGSFXPlay                 _snd_manager
     00000C0B  A$_snd_manager$207                 _snd_manager
     00000C0C  A$_snd_manager$208                 _snd_manager
     00000C0D  A$_snd_manager$209                 _snd_manager
     00000C0E  A$_snd_manager$210                 _snd_manager
     00000C0F  A$_snd_manager$211                 _snd_manager
     00000C12  A$_snd_manager$212                 _snd_manager
     00000C13  A$_snd_manager$213                 _snd_manager
     00000C14  A$_snd_manager$214                 _snd_manager
     00000C15  A$_snd_manager$215                 _snd_manager
     00000C16  A$_snd_manager$216                 _snd_manager
     00000C17  A$_snd_manager$217                 _snd_manager
     00000C1A  A$_snd_manager$218                 _snd_manager
     00000C1B  A$_snd_manager$219                 _snd_manager
     00000C1C  A$_snd_manager$224                 _snd_manager
     00000C1C  C$_snd_manager.c$37$1$43           _snd_manager
     00000C1C  XG$devkit_PSGSFXPlay$0$0           _snd_manager
     00000C1D  A$_snd_manager$241                 _snd_manager
     00000C1D  C$_snd_manager.c$38$1$43           _snd_manager
ASxxxx Linker V03.00 + NoICE + sdld,  page 23.
Hexadecimal  [32-Bits]

Area                                    Addr        Size        Decimal Bytes (Attributes)
--------------------------------        ----        ----        ------- ----- ------------
_CODE                               00000200    00002076 =        8310. bytes (REL,CON)

      Value  Global                              Global Defined In Module
      -----  --------------------------------   ------------------------
     00000C1D  C$_snd_manager.c$40$1$45           _snd_manager
     00000C1D  C$_snd_manager.c$41$1$45           _snd_manager
     00000C1D  G$devkit_PSGSFXStop$0$0            _snd_manager
     00000C1D  XG$devkit_PSGSFXStop$0$0           _snd_manager
     00000C1D  _devkit_PSGSFXStop                 _snd_manager
     00000C20  A$_snd_manager$258                 _snd_manager
     00000C20  C$_snd_manager.c$42$1$45           _snd_manager
     00000C20  C$_snd_manager.c$44$1$47           _snd_manager
     00000C20  C$_snd_manager.c$45$1$47           _snd_manager
     00000C20  G$devkit_PSGSFXGetStatus$0$0       _snd_manager
     00000C20  XG$devkit_PSGSFXGetStatus$0$0      _snd_manager
     00000C20  _devkit_PSGSFXGetStatus            _snd_manager
     00000C23  A$_snd_manager$275                 _snd_manager
     00000C23  C$_snd_manager.c$47$1$47           _snd_manager
     00000C23  C$_snd_manager.c$49$1$49           _snd_manager
     00000C23  C$_snd_manager.c$50$1$49           _snd_manager
     00000C23  G$devkit_PSGSilenceChannels$0$0    _snd_manager
     00000C23  XG$devkit_PSGSilenceChannels$0$0   _snd_manager
     00000C23  _devkit_PSGSilenceChannels         _snd_manager
     00000C26  A$_snd_manager$292                 _snd_manager
     00000C26  C$_snd_manager.c$51$1$49           _snd_manager
     00000C26  C$_snd_manager.c$53$1$51           _snd_manager
     00000C26  C$_snd_manager.c$54$1$51           _snd_manager
     00000C26  G$devkit_PSGRestoreVolumes$0$0     _snd_manager
     00000C26  XG$devkit_PSGRestoreVolumes$0$0    _snd_manager
     00000C26  _devkit_PSGRestoreVolumes          _snd_manager
     00000C29  A$_snd_manager$309                 _snd_manager
     00000C29  C$_snd_manager.c$56$1$51           _snd_manager
     00000C29  C$_snd_manager.c$58$1$53           _snd_manager
     00000C29  C$_snd_manager.c$59$1$53           _snd_manager
     00000C29  G$devkit_PSGFrame$0$0              _snd_manager
     00000C29  XG$devkit_PSGFrame$0$0             _snd_manager
     00000C29  _devkit_PSGFrame                   _snd_manager
     00000C2C  A$_snd_manager$326                 _snd_manager
     00000C2C  C$_snd_manager.c$60$1$53           _snd_manager
     00000C2C  C$_snd_manager.c$62$1$55           _snd_manager
     00000C2C  C$_snd_manager.c$63$1$55           _snd_manager
     00000C2C  G$devkit_PSGSFXFrame$0$0           _snd_manager
     00000C2C  XG$devkit_PSGSFXFrame$0$0          _snd_manager
     00000C2C  _devkit_PSGSFXFrame                _snd_manager
     00000C2F  A$_snd_manager$339                 _snd_manager
     00000C2F  C$_snd_manager.c$66$1$55           _snd_manager
     00000C2F  C$_snd_manager.c$68$1$56           _snd_manager
     00000C2F  G$devkit_SFX_CHANNEL2$0$0          _snd_manager
     00000C2F  _devkit_SFX_CHANNEL2               _snd_manager
     00000C31  A$_snd_manager$344                 _snd_manager
     00000C31  C$_snd_manager.c$69$1$56           _snd_manager
     00000C31  XG$devkit_SFX_CHANNEL2$0$0         _snd_manager
     00000C32  A$_snd_manager$357                 _snd_manager
     00000C32  C$_snd_manager.c$70$1$56           _snd_manager
     00000C32  C$_snd_manager.c$72$1$57           _snd_manager
ASxxxx Linker V03.00 + NoICE + sdld,  page 24.
Hexadecimal  [32-Bits]

Area                                    Addr        Size        Decimal Bytes (Attributes)
--------------------------------        ----        ----        ------- ----- ------------
_CODE                               00000200    00002076 =        8310. bytes (REL,CON)

      Value  Global                              Global Defined In Module
      -----  --------------------------------   ------------------------
     00000C32  G$devkit_SFX_CHANNEL3$0$0          _snd_manager
     00000C32  _devkit_SFX_CHANNEL3               _snd_manager
     00000C34  A$_snd_manager$362                 _snd_manager
     00000C34  C$_snd_manager.c$73$1$57           _snd_manager
     00000C34  XG$devkit_SFX_CHANNEL3$0$0         _snd_manager
     00000C35  A$_snd_manager$375                 _snd_manager
     00000C35  C$_snd_manager.c$74$1$57           _snd_manager
     00000C35  C$_snd_manager.c$76$1$58           _snd_manager
     00000C35  G$devkit_SFX_CHANNELS2AND3$0$0     _snd_manager
     00000C35  _devkit_SFX_CHANNELS2AND3          _snd_manager
     00000C37  A$_snd_manager$380                 _snd_manager
     00000C37  C$_snd_manager.c$77$1$58           _snd_manager
     00000C37  XG$devkit_SFX_CHANNELS2AND3$0$0    _snd_manager
     00000C38  A$actor_manager$63                 actor_manager
     00000C38  C$actor_manager.c$23$0$0           actor_manager
     00000C38  C$actor_manager.c$25$1$21          actor_manager
     00000C38  G$engine_actor_manager_init$0$0    actor_manager
     00000C38  _engine_actor_manager_init         actor_manager
     00000C3B  A$actor_manager$64                 actor_manager
     00000C3E  A$actor_manager$68                 actor_manager
     00000C3E  C$actor_manager.c$26$1$21          actor_manager
     00000C41  A$actor_manager$69                 actor_manager
     00000C44  A$actor_manager$73                 actor_manager
     00000C44  C$actor_manager.c$27$1$21          actor_manager
     00000C47  A$actor_manager$74                 actor_manager
     00000C4A  A$actor_manager$78                 actor_manager
     00000C4A  C$actor_manager.c$28$1$21          actor_manager
     00000C4D  A$actor_manager$79                 actor_manager
     00000C50  A$actor_manager$83                 actor_manager
     00000C50  C$actor_manager.c$29$1$21          actor_manager
     00000C53  A$actor_manager$84                 actor_manager
     00000C56  A$actor_manager$88                 actor_manager
     00000C56  C$actor_manager.c$30$1$21          actor_manager
     00000C59  A$actor_manager$89                 actor_manager
     00000C5C  A$actor_manager$93                 actor_manager
     00000C5C  C$actor_manager.c$31$1$21          actor_manager
     00000C5F  A$actor_manager$94                 actor_manager
     00000C62  A$actor_manager$98                 actor_manager
     00000C62  C$actor_manager.c$32$1$21          actor_manager
     00000C65  A$actor_manager$99                 actor_manager
     00000C68  A$actor_manager$103                actor_manager
     00000C68  C$actor_manager.c$33$1$21          actor_manager
     00000C6B  A$actor_manager$104                actor_manager
     00000C6E  A$actor_manager$108                actor_manager
     00000C6E  C$actor_manager.c$34$1$21          actor_manager
     00000C71  A$actor_manager$109                actor_manager
     00000C74  A$actor_manager$113                actor_manager
     00000C74  C$actor_manager.c$35$1$21          actor_manager
     00000C77  A$actor_manager$114                actor_manager
     00000C7A  A$actor_manager$118                actor_manager
     00000C7A  C$actor_manager.c$36$1$21          actor_manager
ASxxxx Linker V03.00 + NoICE + sdld,  page 25.
Hexadecimal  [32-Bits]

Area                                    Addr        Size        Decimal Bytes (Attributes)
--------------------------------        ----        ----        ------- ----- ------------
_CODE                               00000200    00002076 =        8310. bytes (REL,CON)

      Value  Global                              Global Defined In Module
      -----  --------------------------------   ------------------------
     00000C7D  A$actor_manager$119                actor_manager
     00000C80  A$actor_manager$123                actor_manager
     00000C80  C$actor_manager.c$37$1$21          actor_manager
     00000C83  A$actor_manager$124                actor_manager
     00000C86  A$actor_manager$128                actor_manager
     00000C86  C$actor_manager.c$38$1$21          actor_manager
     00000C89  A$actor_manager$129                actor_manager
     00000C8C  A$actor_manager$133                actor_manager
     00000C8C  C$actor_manager.c$39$1$21          actor_manager
     00000C8F  A$actor_manager$134                actor_manager
     00000C92  A$actor_manager$138                actor_manager
     00000C92  C$actor_manager.c$40$1$21          actor_manager
     00000C95  A$actor_manager$139                actor_manager
     00000C98  A$actor_manager$144                actor_manager
     00000C98  C$actor_manager.c$41$1$21          actor_manager
     00000C98  XG$engine_actor_manager_init$0$0   actor_manager
     00000C99  A$actor_manager$154                actor_manager
     00000C99  C$actor_manager.c$43$1$21          actor_manager
     00000C99  G$engine_actor_manager_draw$0$0    actor_manager
     00000C99  _engine_actor_manager_draw         actor_manager
     00000C9B  A$actor_manager$155                actor_manager
     00000C9F  A$actor_manager$156                actor_manager
     00000CA1  A$actor_manager$160                actor_manager
     00000CA1  C$actor_manager.c$45$1$23          actor_manager
     00000CA4  A$actor_manager$161                actor_manager
     00000CA7  A$actor_manager$162                actor_manager
     00000CA9  A$actor_manager$163                actor_manager
     00000CAA  A$actor_manager$164                actor_manager
     00000CAB  A$actor_manager$165                actor_manager
     00000CAC  A$actor_manager$166                actor_manager
     00000CAD  A$actor_manager$167                actor_manager
     00000CAE  A$actor_manager$168                actor_manager
     00000CAF  A$actor_manager$173                actor_manager
     00000CAF  C$actor_manager.c$46$1$23          actor_manager
     00000CAF  XG$engine_actor_manager_draw$0$0   actor_manager
     00000CB1  A$actor_manager$174                actor_manager
     00000CB4  A$actor_manager$187                actor_manager
     00000CB4  C$actor_manager.c$48$1$23          actor_manager
     00000CB4  C$actor_manager.c$50$1$25          actor_manager
     00000CB4  Factor_manager$draw_impl$0$0       actor_manager
     00000CB7  A$actor_manager$188                actor_manager
     00000CB8  A$actor_manager$189                actor_manager
     00000CB9  A$actor_manager$190                actor_manager
     00000CBA  A$actor_manager$191                actor_manager
     00000CBB  A$actor_manager$192                actor_manager
     00000CBE  A$actor_manager$193                actor_manager
     00000CBF  A$actor_manager$197                actor_manager
     00000CBF  C$actor_manager.c$51$1$25          actor_manager
     00000CC2  A$actor_manager$198                actor_manager
     00000CC3  A$actor_manager$199                actor_manager
     00000CC4  A$actor_manager$200                actor_manager
ASxxxx Linker V03.00 + NoICE + sdld,  page 26.
Hexadecimal  [32-Bits]

Area                                    Addr        Size        Decimal Bytes (Attributes)
--------------------------------        ----        ----        ------- ----- ------------
_CODE                               00000200    00002076 =        8310. bytes (REL,CON)

      Value  Global                              Global Defined In Module
      -----  --------------------------------   ------------------------
     00000CC5  A$actor_manager$201                actor_manager
     00000CC6  A$actor_manager$202                actor_manager
     00000CC9  A$actor_manager$203                actor_manager
     00000CCA  A$actor_manager$204                actor_manager
     00000CCB  A$actor_manager$205                actor_manager
     00000CCE  A$actor_manager$206                actor_manager
     00000CCF  A$actor_manager$207                actor_manager
     00000CD0  A$actor_manager$211                actor_manager
     00000CD0  C$actor_manager.c$52$1$25          actor_manager
     00000CD3  A$actor_manager$212                actor_manager
     00000CD4  A$actor_manager$213                actor_manager
     00000CD5  A$actor_manager$214                actor_manager
     00000CD6  A$actor_manager$215                actor_manager
     00000CD7  A$actor_manager$216                actor_manager
     00000CD8  A$actor_manager$217                actor_manager
     00000CDB  A$actor_manager$218                actor_manager
     00000CDC  A$actor_manager$219                actor_manager
     00000CDF  A$actor_manager$220                actor_manager
     00000CE0  A$actor_manager$221                actor_manager
     00000CE1  A$actor_manager$225                actor_manager
     00000CE1  C$actor_manager.c$53$1$25          actor_manager
     00000CE4  A$actor_manager$226                actor_manager
     00000CE5  A$actor_manager$227                actor_manager
     00000CE6  A$actor_manager$228                actor_manager
     00000CE7  A$actor_manager$229                actor_manager
     00000CE8  A$actor_manager$230                actor_manager
     00000CE9  A$actor_manager$231                actor_manager
     00000CEC  A$actor_manager$232                actor_manager
     00000CED  A$actor_manager$237                actor_manager
     00000CED  C$actor_manager.c$54$1$25          actor_manager
     00000CED  XFactor_manager$draw_impl$0$0      actor_manager
     00000CEE  A$actor_manager$250                actor_manager
     00000CEE  C$actor_manager.c$56$1$25          actor_manager
     00000CEE  C$actor_manager.c$58$1$26          actor_manager
     00000CEE  Factor_manager$draw_actor00$0$0    actor_manager
     00000CF1  A$actor_manager$251                actor_manager
     00000CF2  A$actor_manager$252                actor_manager
     00000CF5  A$actor_manager$253                actor_manager
     00000CF6  A$actor_manager$254                actor_manager
     00000CF9  A$actor_manager$255                actor_manager
     00000CFA  A$actor_manager$256                actor_manager
     00000CFC  A$actor_manager$257                actor_manager
     00000CFD  A$actor_manager$258                actor_manager
     00000CFE  A$actor_manager$259                actor_manager
     00000D01  A$actor_manager$260                actor_manager
     00000D04  A$actor_manager$261                actor_manager
     00000D05  A$actor_manager$262                actor_manager
     00000D06  A$actor_manager$267                actor_manager
     00000D06  C$actor_manager.c$59$1$26          actor_manager
     00000D06  XFactor_manager$draw_actor00$0$0   actor_manager
     00000D07  A$actor_manager$280                actor_manager
ASxxxx Linker V03.00 + NoICE + sdld,  page 27.
Hexadecimal  [32-Bits]

Area                                    Addr        Size        Decimal Bytes (Attributes)
--------------------------------        ----        ----        ------- ----- ------------
_CODE                               00000200    00002076 =        8310. bytes (REL,CON)

      Value  Global                              Global Defined In Module
      -----  --------------------------------   ------------------------
     00000D07  C$actor_manager.c$60$1$26          actor_manager
     00000D07  C$actor_manager.c$62$1$27          actor_manager
     00000D07  Factor_manager$draw_actor01$0$0    actor_manager
     00000D0A  A$actor_manager$281                actor_manager
     00000D0B  A$actor_manager$282                actor_manager
     00000D0E  A$actor_manager$283                actor_manager
     00000D0F  A$actor_manager$284                actor_manager
     00000D12  A$actor_manager$285                actor_manager
     00000D13  A$actor_manager$286                actor_manager
     00000D15  A$actor_manager$287                actor_manager
     00000D16  A$actor_manager$288                actor_manager
     00000D17  A$actor_manager$289                actor_manager
     00000D1A  A$actor_manager$290                actor_manager
     00000D1D  A$actor_manager$291                actor_manager
     00000D1E  A$actor_manager$292                actor_manager
     00000D1F  A$actor_manager$297                actor_manager
     00000D1F  C$actor_manager.c$63$1$27          actor_manager
     00000D1F  XFactor_manager$draw_actor01$0$0   actor_manager
     00000D20  A$actor_manager$310                actor_manager
     00000D20  C$actor_manager.c$64$1$27          actor_manager
     00000D20  C$actor_manager.c$66$1$28          actor_manager
     00000D20  Factor_manager$draw_actor02$0$0    actor_manager
     00000D23  A$actor_manager$311                actor_manager
     00000D24  A$actor_manager$312                actor_manager
     00000D27  A$actor_manager$313                actor_manager
     00000D28  A$actor_manager$314                actor_manager
     00000D2B  A$actor_manager$315                actor_manager
     00000D2C  A$actor_manager$316                actor_manager
     00000D2E  A$actor_manager$317                actor_manager
     00000D2F  A$actor_manager$318                actor_manager
     00000D30  A$actor_manager$319                actor_manager
     00000D33  A$actor_manager$320                actor_manager
     00000D36  A$actor_manager$321                actor_manager
     00000D37  A$actor_manager$322                actor_manager
     00000D38  A$actor_manager$327                actor_manager
     00000D38  C$actor_manager.c$67$1$28          actor_manager
     00000D38  XFactor_manager$draw_actor02$0$0   actor_manager
     00000D39  A$actor_manager$340                actor_manager
     00000D39  C$actor_manager.c$68$1$28          actor_manager
     00000D39  C$actor_manager.c$70$1$29          actor_manager
     00000D39  Factor_manager$draw_actor03$0$0    actor_manager
     00000D3C  A$actor_manager$341                actor_manager
     00000D3D  A$actor_manager$342                actor_manager
     00000D40  A$actor_manager$343                actor_manager
     00000D41  A$actor_manager$344                actor_manager
     00000D44  A$actor_manager$345                actor_manager
     00000D45  A$actor_manager$346                actor_manager
     00000D47  A$actor_manager$347                actor_manager
     00000D48  A$actor_manager$348                actor_manager
     00000D49  A$actor_manager$349                actor_manager
     00000D4C  A$actor_manager$350                actor_manager
ASxxxx Linker V03.00 + NoICE + sdld,  page 28.
Hexadecimal  [32-Bits]

Area                                    Addr        Size        Decimal Bytes (Attributes)
--------------------------------        ----        ----        ------- ----- ------------
_CODE                               00000200    00002076 =        8310. bytes (REL,CON)

      Value  Global                              Global Defined In Module
      -----  --------------------------------   ------------------------
     00000D4F  A$actor_manager$351                actor_manager
     00000D50  A$actor_manager$352                actor_manager
     00000D51  A$actor_manager$357                actor_manager
     00000D51  C$actor_manager.c$71$1$29          actor_manager
     00000D51  XFactor_manager$draw_actor03$0$0   actor_manager
     00000D52  A$actor_manager$370                actor_manager
     00000D52  C$actor_manager.c$72$1$29          actor_manager
     00000D52  C$actor_manager.c$74$1$30          actor_manager
     00000D52  Factor_manager$draw_actor04$0$0    actor_manager
     00000D55  A$actor_manager$371                actor_manager
     00000D56  A$actor_manager$372                actor_manager
     00000D59  A$actor_manager$373                actor_manager
     00000D5A  A$actor_manager$374                actor_manager
     00000D5D  A$actor_manager$375                actor_manager
     00000D5E  A$actor_manager$376                actor_manager
     00000D60  A$actor_manager$377                actor_manager
     00000D61  A$actor_manager$378                actor_manager
     00000D62  A$actor_manager$379                actor_manager
     00000D65  A$actor_manager$380                actor_manager
     00000D68  A$actor_manager$381                actor_manager
     00000D69  A$actor_manager$382                actor_manager
     00000D6A  A$actor_manager$387                actor_manager
     00000D6A  C$actor_manager.c$75$1$30          actor_manager
     00000D6A  XFactor_manager$draw_actor04$0$0   actor_manager
     00000D6B  A$actor_manager$400                actor_manager
     00000D6B  C$actor_manager.c$76$1$30          actor_manager
     00000D6B  C$actor_manager.c$78$1$31          actor_manager
     00000D6B  Factor_manager$draw_actor05$0$0    actor_manager
     00000D6E  A$actor_manager$401                actor_manager
     00000D6F  A$actor_manager$402                actor_manager
     00000D72  A$actor_manager$403                actor_manager
     00000D73  A$actor_manager$404                actor_manager
     00000D76  A$actor_manager$405                actor_manager
     00000D77  A$actor_manager$406                actor_manager
     00000D79  A$actor_manager$407                actor_manager
     00000D7A  A$actor_manager$408                actor_manager
     00000D7B  A$actor_manager$409                actor_manager
     00000D7E  A$actor_manager$410                actor_manager
     00000D81  A$actor_manager$411                actor_manager
     00000D82  A$actor_manager$412                actor_manager
     00000D83  A$actor_manager$417                actor_manager
     00000D83  C$actor_manager.c$79$1$31          actor_manager
     00000D83  XFactor_manager$draw_actor05$0$0   actor_manager
     00000D84  A$actor_manager$430                actor_manager
     00000D84  C$actor_manager.c$80$1$31          actor_manager
     00000D84  C$actor_manager.c$82$1$32          actor_manager
     00000D84  Factor_manager$draw_actor06$0$0    actor_manager
     00000D87  A$actor_manager$431                actor_manager
     00000D88  A$actor_manager$432                actor_manager
     00000D8B  A$actor_manager$433                actor_manager
     00000D8C  A$actor_manager$434                actor_manager
ASxxxx Linker V03.00 + NoICE + sdld,  page 29.
Hexadecimal  [32-Bits]

Area                                    Addr        Size        Decimal Bytes (Attributes)
--------------------------------        ----        ----        ------- ----- ------------
_CODE                               00000200    00002076 =        8310. bytes (REL,CON)

      Value  Global                              Global Defined In Module
      -----  --------------------------------   ------------------------
     00000D8F  A$actor_manager$435                actor_manager
     00000D90  A$actor_manager$436                actor_manager
     00000D92  A$actor_manager$437                actor_manager
     00000D93  A$actor_manager$438                actor_manager
     00000D94  A$actor_manager$439                actor_manager
     00000D97  A$actor_manager$440                actor_manager
     00000D9A  A$actor_manager$441                actor_manager
     00000D9B  A$actor_manager$442                actor_manager
     00000D9C  A$actor_manager$447                actor_manager
     00000D9C  C$actor_manager.c$83$1$32          actor_manager
     00000D9C  XFactor_manager$draw_actor06$0$0   actor_manager
     00000D9D  A$actor_manager$460                actor_manager
     00000D9D  C$actor_manager.c$84$1$32          actor_manager
     00000D9D  C$actor_manager.c$86$1$33          actor_manager
     00000D9D  Factor_manager$draw_actor07$0$0    actor_manager
     00000DA0  A$actor_manager$461                actor_manager
     00000DA1  A$actor_manager$462                actor_manager
     00000DA4  A$actor_manager$463                actor_manager
     00000DA5  A$actor_manager$464                actor_manager
     00000DA8  A$actor_manager$465                actor_manager
     00000DA9  A$actor_manager$466                actor_manager
     00000DAB  A$actor_manager$467                actor_manager
     00000DAC  A$actor_manager$468                actor_manager
     00000DAD  A$actor_manager$469                actor_manager
     00000DB0  A$actor_manager$470                actor_manager
     00000DB3  A$actor_manager$471                actor_manager
     00000DB4  A$actor_manager$472                actor_manager
     00000DB5  A$actor_manager$477                actor_manager
     00000DB5  C$actor_manager.c$87$1$33          actor_manager
     00000DB5  XFactor_manager$draw_actor07$0$0   actor_manager
     00000DB6  A$actor_manager$490                actor_manager
     00000DB6  C$actor_manager.c$89$1$33          actor_manager
     00000DB6  C$actor_manager.c$91$1$34          actor_manager
     00000DB6  Factor_manager$draw_actor08$0$0    actor_manager
     00000DB9  A$actor_manager$491                actor_manager
     00000DBA  A$actor_manager$492                actor_manager
     00000DBD  A$actor_manager$493                actor_manager
     00000DBE  A$actor_manager$494                actor_manager
     00000DC1  A$actor_manager$495                actor_manager
     00000DC2  A$actor_manager$496                actor_manager
     00000DC4  A$actor_manager$497                actor_manager
     00000DC5  A$actor_manager$498                actor_manager
     00000DC6  A$actor_manager$499                actor_manager
     00000DC9  A$actor_manager$500                actor_manager
     00000DCC  A$actor_manager$501                actor_manager
     00000DCD  A$actor_manager$502                actor_manager
     00000DCE  A$actor_manager$507                actor_manager
     00000DCE  C$actor_manager.c$92$1$34          actor_manager
     00000DCE  XFactor_manager$draw_actor08$0$0   actor_manager
     00000DCF  A$actor_manager$520                actor_manager
     00000DCF  C$actor_manager.c$93$1$34          actor_manager
ASxxxx Linker V03.00 + NoICE + sdld,  page 30.
Hexadecimal  [32-Bits]

Area                                    Addr        Size        Decimal Bytes (Attributes)
--------------------------------        ----        ----        ------- ----- ------------
_CODE                               00000200    00002076 =        8310. bytes (REL,CON)

      Value  Global                              Global Defined In Module
      -----  --------------------------------   ------------------------
     00000DCF  C$actor_manager.c$95$1$35          actor_manager
     00000DCF  Factor_manager$draw_actor09$0$0    actor_manager
     00000DD2  A$actor_manager$521                actor_manager
     00000DD3  A$actor_manager$522                actor_manager
     00000DD6  A$actor_manager$523                actor_manager
     00000DD7  A$actor_manager$524                actor_manager
     00000DDA  A$actor_manager$525                actor_manager
     00000DDB  A$actor_manager$526                actor_manager
     00000DDD  A$actor_manager$527                actor_manager
     00000DDE  A$actor_manager$528                actor_manager
     00000DDF  A$actor_manager$529                actor_manager
     00000DE2  A$actor_manager$530                actor_manager
     00000DE5  A$actor_manager$531                actor_manager
     00000DE6  A$actor_manager$532                actor_manager
     00000DE7  A$actor_manager$537                actor_manager
     00000DE7  C$actor_manager.c$96$1$35          actor_manager
     00000DE7  XFactor_manager$draw_actor09$0$0   actor_manager
     00000DE8  A$actor_manager$550                actor_manager
     00000DE8  C$actor_manager.c$97$1$35          actor_manager
     00000DE8  C$actor_manager.c$99$1$36          actor_manager
     00000DE8  Factor_manager$draw_actor10$0$0    actor_manager
     00000DEB  A$actor_manager$551                actor_manager
     00000DEC  A$actor_manager$552                actor_manager
     00000DEF  A$actor_manager$553                actor_manager
     00000DF0  A$actor_manager$554                actor_manager
     00000DF3  A$actor_manager$555                actor_manager
     00000DF4  A$actor_manager$556                actor_manager
     00000DF6  A$actor_manager$557                actor_manager
     00000DF7  A$actor_manager$558                actor_manager
     00000DF8  A$actor_manager$559                actor_manager
     00000DFB  A$actor_manager$560                actor_manager
     00000DFE  A$actor_manager$561                actor_manager
     00000DFF  A$actor_manager$562                actor_manager
     00000E00  A$actor_manager$567                actor_manager
     00000E00  C$actor_manager.c$100$1$36         actor_manager
     00000E00  XFactor_manager$draw_actor10$0$0   actor_manager
     00000E01  A$actor_manager$580                actor_manager
     00000E01  C$actor_manager.c$101$1$36         actor_manager
     00000E01  C$actor_manager.c$103$1$37         actor_manager
     00000E01  Factor_manager$draw_actor11$0$0    actor_manager
     00000E04  A$actor_manager$581                actor_manager
     00000E05  A$actor_manager$582                actor_manager
     00000E08  A$actor_manager$583                actor_manager
     00000E09  A$actor_manager$584                actor_manager
     00000E0C  A$actor_manager$585                actor_manager
     00000E0D  A$actor_manager$586                actor_manager
     00000E0F  A$actor_manager$587                actor_manager
     00000E10  A$actor_manager$588                actor_manager
     00000E11  A$actor_manager$589                actor_manager
     00000E14  A$actor_manager$590                actor_manager
     00000E17  A$actor_manager$591                actor_manager
ASxxxx Linker V03.00 + NoICE + sdld,  page 31.
Hexadecimal  [32-Bits]

Area                                    Addr        Size        Decimal Bytes (Attributes)
--------------------------------        ----        ----        ------- ----- ------------
_CODE                               00000200    00002076 =        8310. bytes (REL,CON)

      Value  Global                              Global Defined In Module
      -----  --------------------------------   ------------------------
     00000E18  A$actor_manager$592                actor_manager
     00000E19  A$actor_manager$597                actor_manager
     00000E19  C$actor_manager.c$104$1$37         actor_manager
     00000E19  XFactor_manager$draw_actor11$0$0   actor_manager
     00000E1A  A$actor_manager$610                actor_manager
     00000E1A  C$actor_manager.c$105$1$37         actor_manager
     00000E1A  C$actor_manager.c$107$1$38         actor_manager
     00000E1A  Factor_manager$draw_actor12$0$0    actor_manager
     00000E1D  A$actor_manager$611                actor_manager
     00000E1E  A$actor_manager$612                actor_manager
     00000E21  A$actor_manager$613                actor_manager
     00000E22  A$actor_manager$614                actor_manager
     00000E25  A$actor_manager$615                actor_manager
     00000E26  A$actor_manager$616                actor_manager
     00000E28  A$actor_manager$617                actor_manager
     00000E29  A$actor_manager$618                actor_manager
     00000E2A  A$actor_manager$619                actor_manager
     00000E2D  A$actor_manager$620                actor_manager
     00000E30  A$actor_manager$621                actor_manager
     00000E31  A$actor_manager$622                actor_manager
     00000E32  A$actor_manager$627                actor_manager
     00000E32  C$actor_manager.c$108$1$38         actor_manager
     00000E32  XFactor_manager$draw_actor12$0$0   actor_manager
     00000E33  A$actor_manager$640                actor_manager
     00000E33  C$actor_manager.c$109$1$38         actor_manager
     00000E33  C$actor_manager.c$111$1$39         actor_manager
     00000E33  Factor_manager$draw_actor13$0$0    actor_manager
     00000E36  A$actor_manager$641                actor_manager
     00000E37  A$actor_manager$642                actor_manager
     00000E3A  A$actor_manager$643                actor_manager
     00000E3B  A$actor_manager$644                actor_manager
     00000E3E  A$actor_manager$645                actor_manager
     00000E3F  A$actor_manager$646                actor_manager
     00000E41  A$actor_manager$647                actor_manager
     00000E42  A$actor_manager$648                actor_manager
     00000E43  A$actor_manager$649                actor_manager
     00000E46  A$actor_manager$650                actor_manager
     00000E49  A$actor_manager$651                actor_manager
     00000E4A  A$actor_manager$652                actor_manager
     00000E4B  A$actor_manager$657                actor_manager
     00000E4B  C$actor_manager.c$112$1$39         actor_manager
     00000E4B  XFactor_manager$draw_actor13$0$0   actor_manager
     00000E4C  A$actor_manager$670                actor_manager
     00000E4C  C$actor_manager.c$113$1$39         actor_manager
     00000E4C  C$actor_manager.c$115$1$40         actor_manager
     00000E4C  Factor_manager$draw_actor14$0$0    actor_manager
     00000E4F  A$actor_manager$671                actor_manager
     00000E50  A$actor_manager$672                actor_manager
     00000E53  A$actor_manager$673                actor_manager
     00000E54  A$actor_manager$674                actor_manager
     00000E57  A$actor_manager$675                actor_manager
ASxxxx Linker V03.00 + NoICE + sdld,  page 32.
Hexadecimal  [32-Bits]

Area                                    Addr        Size        Decimal Bytes (Attributes)
--------------------------------        ----        ----        ------- ----- ------------
_CODE                               00000200    00002076 =        8310. bytes (REL,CON)

      Value  Global                              Global Defined In Module
      -----  --------------------------------   ------------------------
     00000E58  A$actor_manager$676                actor_manager
     00000E5A  A$actor_manager$677                actor_manager
     00000E5B  A$actor_manager$678                actor_manager
     00000E5C  A$actor_manager$679                actor_manager
     00000E5F  A$actor_manager$680                actor_manager
     00000E62  A$actor_manager$681                actor_manager
     00000E63  A$actor_manager$682                actor_manager
     00000E64  A$actor_manager$687                actor_manager
     00000E64  C$actor_manager.c$116$1$40         actor_manager
     00000E64  XFactor_manager$draw_actor14$0$0   actor_manager
     00000E65  A$actor_manager$700                actor_manager
     00000E65  C$actor_manager.c$117$1$40         actor_manager
     00000E65  C$actor_manager.c$119$1$41         actor_manager
     00000E65  Factor_manager$draw_actor15$0$0    actor_manager
     00000E68  A$actor_manager$701                actor_manager
     00000E69  A$actor_manager$702                actor_manager
     00000E6C  A$actor_manager$703                actor_manager
     00000E6D  A$actor_manager$704                actor_manager
     00000E70  A$actor_manager$705                actor_manager
     00000E71  A$actor_manager$706                actor_manager
     00000E73  A$actor_manager$707                actor_manager
     00000E74  A$actor_manager$708                actor_manager
     00000E75  A$actor_manager$709                actor_manager
     00000E78  A$actor_manager$710                actor_manager
     00000E7B  A$actor_manager$711                actor_manager
     00000E7C  A$actor_manager$712                actor_manager
     00000E7D  A$actor_manager$717                actor_manager
     00000E7D  C$actor_manager.c$120$1$41         actor_manager
     00000E7D  XFactor_manager$draw_actor15$0$0   actor_manager
     00000E7E  A$asm_manager$59                   asm_manager
     00000E7E  C$asm_manager.c$11$0$0             asm_manager
     00000E7E  C$asm_manager.c$30$1$1             asm_manager
     00000E7E  G$engine_asm_manager_clear_VRAM$   asm_manager
     00000E7E  _engine_asm_manager_clear_VRAM     asm_manager
     00000E80  A$asm_manager$60                   asm_manager
     00000E82  A$asm_manager$61                   asm_manager
     00000E84  A$asm_manager$62                   asm_manager
     00000E86  A$asm_manager$63                   asm_manager
     00000E89  A$asm_manager$65                   asm_manager
     00000E8B  A$asm_manager$66                   asm_manager
     00000E8D  A$asm_manager$67                   asm_manager
     00000E8E  A$asm_manager$68                   asm_manager
     00000E8F  A$asm_manager$69                   asm_manager
     00000E90  A$asm_manager$70                   asm_manager
     00000E93  A$asm_manager$75                   asm_manager
     00000E93  C$asm_manager.c$33$1$1             asm_manager
     00000E93  XG$engine_asm_manager_clear_VRAM   asm_manager
     00000E94  A$audio_manager$59                 audio_manager
     00000E94  C$audio_manager.c$21$0$0           audio_manager
     00000E94  C$audio_manager.c$23$1$15          audio_manager
     00000E94  G$engine_audio_manager_cheat$0$0   audio_manager
ASxxxx Linker V03.00 + NoICE + sdld,  page 33.
Hexadecimal  [32-Bits]

Area                                    Addr        Size        Decimal Bytes (Attributes)
--------------------------------        ----        ----        ------- ----- ------------
_CODE                               00000200    00002076 =        8310. bytes (REL,CON)

      Value  Global                              Global Defined In Module
      -----  --------------------------------   ------------------------
     00000E94  _engine_audio_manager_cheat        audio_manager
     00000E97  A$audio_manager$60                 audio_manager
     00000E98  A$audio_manager$61                 audio_manager
     00000E9B  A$audio_manager$62                 audio_manager
     00000E9C  A$audio_manager$67                 audio_manager
     00000E9C  C$audio_manager.c$24$1$15          audio_manager
     00000E9C  XG$engine_audio_manager_cheat$0$   audio_manager
     00000E9D  A$audio_manager$80                 audio_manager
     00000E9D  C$audio_manager.c$25$1$15          audio_manager
     00000E9D  C$audio_manager.c$27$1$16          audio_manager
     00000E9D  G$engine_audio_manager_right$0$0   audio_manager
     00000E9D  _engine_audio_manager_right        audio_manager
     00000EA0  A$audio_manager$81                 audio_manager
     00000EA1  A$audio_manager$82                 audio_manager
     00000EA4  A$audio_manager$83                 audio_manager
     00000EA5  A$audio_manager$88                 audio_manager
     00000EA5  C$audio_manager.c$28$1$16          audio_manager
     00000EA5  XG$engine_audio_manager_right$0$   audio_manager
     00000EA6  A$audio_manager$101                audio_manager
     00000EA6  C$audio_manager.c$29$1$16          audio_manager
     00000EA6  C$audio_manager.c$31$1$17          audio_manager
     00000EA6  G$engine_audio_manager_wrong$0$0   audio_manager
     00000EA6  _engine_audio_manager_wrong        audio_manager
     00000EA9  A$audio_manager$102                audio_manager
     00000EAA  A$audio_manager$103                audio_manager
     00000EAD  A$audio_manager$104                audio_manager
     00000EAE  A$audio_manager$109                audio_manager
     00000EAE  C$audio_manager.c$32$1$17          audio_manager
     00000EAE  XG$engine_audio_manager_wrong$0$   audio_manager
     00000EAF  A$audio_manager$122                audio_manager
     00000EAF  C$audio_manager.c$35$1$17          audio_manager
     00000EAF  C$audio_manager.c$43$1$19          audio_manager
     00000EAF  Faudio_manager$play_sound$0$0      audio_manager
     00000EB2  A$audio_manager$123                audio_manager
     00000EB3  A$audio_manager$124                audio_manager
     00000EB4  A$audio_manager$125                audio_manager
     00000EB5  A$audio_manager$126                audio_manager
     00000EB6  A$audio_manager$127                audio_manager
     00000EB7  A$audio_manager$128                audio_manager
     00000EB8  A$audio_manager$129                audio_manager
     00000EB9  A$audio_manager$130                audio_manager
     00000EBA  A$audio_manager$131                audio_manager
     00000EBD  A$audio_manager$132                audio_manager
     00000EBE  A$audio_manager$133                audio_manager
     00000EBF  A$audio_manager$138                audio_manager
     00000EBF  C$audio_manager.c$44$1$19          audio_manager
     00000EBF  XFaudio_manager$play_sound$0$0     audio_manager
     00000EC0  A$content_manager$64               content_manager
     00000EC0  C$content_manager.c$12$0$0         content_manager
     00000EC0  C$content_manager.c$15$1$19        content_manager
     00000EC0  G$engine_content_manager_load_fo   content_manager
ASxxxx Linker V03.00 + NoICE + sdld,  page 34.
Hexadecimal  [32-Bits]

Area                                    Addr        Size        Decimal Bytes (Attributes)
--------------------------------        ----        ----        ------- ----- ------------
_CODE                               00000200    00002076 =        8310. bytes (REL,CON)

      Value  Global                              Global Defined In Module
      -----  --------------------------------   ------------------------
     00000EC0  _engine_content_manager_load_fon   content_manager
     00000EC3  A$content_manager$65               content_manager
     00000EC4  A$content_manager$66               content_manager
     00000EC7  A$content_manager$67               content_manager
     00000EC8  A$content_manager$68               content_manager
     00000ECB  A$content_manager$69               content_manager
     00000ECC  A$content_manager$70               content_manager
     00000ECD  A$content_manager$75               content_manager
     00000ECD  C$content_manager.c$17$1$19        content_manager
     00000ECD  XG$engine_content_manager_load_f   content_manager
     00000ECE  A$content_manager$88               content_manager
     00000ECE  C$content_manager.c$19$1$19        content_manager
     00000ECE  C$content_manager.c$22$1$20        content_manager
     00000ECE  G$engine_content_manager_load_sp   content_manager
     00000ECE  _engine_content_manager_load_spr   content_manager
     00000ED1  A$content_manager$89               content_manager
     00000ED2  A$content_manager$90               content_manager
     00000ED5  A$content_manager$91               content_manager
     00000ED6  A$content_manager$92               content_manager
     00000ED9  A$content_manager$93               content_manager
     00000EDA  A$content_manager$97               content_manager
     00000EDA  C$content_manager.c$23$1$20        content_manager
     00000EDD  A$content_manager$98               content_manager
     00000EDE  A$content_manager$99               content_manager
     00000EE1  A$content_manager$100              content_manager
     00000EE2  A$content_manager$101              content_manager
     00000EE5  A$content_manager$102              content_manager
     00000EE6  A$content_manager$106              content_manager
     00000EE6  C$content_manager.c$24$1$20        content_manager
     00000EE9  A$content_manager$107              content_manager
     00000EEA  A$content_manager$108              content_manager
     00000EED  A$content_manager$109              content_manager
     00000EEE  A$content_manager$110              content_manager
     00000EF1  A$content_manager$111              content_manager
     00000EF2  A$content_manager$112              content_manager
     00000EF3  A$content_manager$116              content_manager
     00000EF3  C$content_manager.c$25$1$20        content_manager
     00000EF6  A$content_manager$117              content_manager
     00000EF7  A$content_manager$118              content_manager
     00000EFA  A$content_manager$119              content_manager
     00000EFB  A$content_manager$124              content_manager
     00000EFB  C$content_manager.c$26$1$20        content_manager
     00000EFB  XG$engine_content_manager_load_s   content_manager
     00000EFC  A$content_manager$137              content_manager
     00000EFC  C$content_manager.c$28$1$20        content_manager
     00000EFC  C$content_manager.c$30$1$21        content_manager
     00000EFC  G$engine_content_manager_load_sp   content_manager
     00000EFC  _engine_content_manager_load_spr   content_manager
     00000EFF  A$content_manager$138              content_manager
     00000F00  A$content_manager$139              content_manager
     00000F02  A$content_manager$140              content_manager
ASxxxx Linker V03.00 + NoICE + sdld,  page 35.
Hexadecimal  [32-Bits]

Area                                    Addr        Size        Decimal Bytes (Attributes)
--------------------------------        ----        ----        ------- ----- ------------
_CODE                               00000200    00002076 =        8310. bytes (REL,CON)

      Value  Global                              Global Defined In Module
      -----  --------------------------------   ------------------------
     00000F03  A$content_manager$141              content_manager
     00000F06  A$content_manager$142              content_manager
     00000F07  A$content_manager$143              content_manager
     00000F08  A$content_manager$148              content_manager
     00000F08  C$content_manager.c$32$1$21        content_manager
     00000F08  XG$engine_content_manager_load_s   content_manager
     00000F09  A$content_manager$161              content_manager
     00000F09  C$content_manager.c$42$1$21        content_manager
     00000F09  C$content_manager.c$44$1$22        content_manager
     00000F09  G$engine_content_manager_load_ti   content_manager
     00000F09  _engine_content_manager_load_tit   content_manager
     00000F0B  A$content_manager$162              content_manager
     00000F0C  A$content_manager$163              content_manager
     00000F0D  A$content_manager$164              content_manager
     00000F10  A$content_manager$165              content_manager
     00000F11  A$content_manager$169              content_manager
     00000F11  C$content_manager.c$45$1$22        content_manager
     00000F14  A$content_manager$170              content_manager
     00000F15  A$content_manager$171              content_manager
     00000F18  A$content_manager$172              content_manager
     00000F19  A$content_manager$173              content_manager
     00000F1C  A$content_manager$174              content_manager
     00000F1D  A$content_manager$175              content_manager
     00000F1E  A$content_manager$179              content_manager
     00000F1E  C$content_manager.c$46$1$22        content_manager
     00000F21  A$content_manager$180              content_manager
     00000F22  A$content_manager$181              content_manager
     00000F25  A$content_manager$182              content_manager
     00000F26  A$content_manager$183              content_manager
     00000F29  A$content_manager$184              content_manager
     00000F2A  A$content_manager$185              content_manager
     00000F2B  A$content_manager$189              content_manager
     00000F2B  C$content_manager.c$47$1$22        content_manager
     00000F2E  A$content_manager$190              content_manager
     00000F2F  A$content_manager$191              content_manager
     00000F32  A$content_manager$192              content_manager
     00000F33  A$content_manager$197              content_manager
     00000F33  C$content_manager.c$48$1$22        content_manager
     00000F33  XG$engine_content_manager_load_t   content_manager
     00000F34  A$font_manager$62                  font_manager
     00000F34  C$font_manager.c$11$0$0            font_manager
     00000F34  C$font_manager.c$13$1$0            font_manager
     00000F34  C$font_manager.c$14$1$23           font_manager
     00000F34  G$engine_font_manager_char$0$0     font_manager
     00000F34  _engine_font_manager_char          font_manager
     00000F37  A$font_manager$63                  font_manager
     00000F38  A$font_manager$64                  font_manager
     00000F39  A$font_manager$65                  font_manager
     00000F3B  A$font_manager$66                  font_manager
     00000F3C  A$font_manager$70                  font_manager
     00000F3C  C$font_manager.c$15$1$23           font_manager
ASxxxx Linker V03.00 + NoICE + sdld,  page 36.
Hexadecimal  [32-Bits]

Area                                    Addr        Size        Decimal Bytes (Attributes)
--------------------------------        ----        ----        ------- ----- ------------
_CODE                               00000200    00002076 =        8310. bytes (REL,CON)

      Value  Global                              Global Defined In Module
      -----  --------------------------------   ------------------------
     00000F3D  A$font_manager$71                  font_manager
     00000F40  A$font_manager$72                  font_manager
     00000F41  A$font_manager$73                  font_manager
     00000F42  A$font_manager$74                  font_manager
     00000F43  A$font_manager$75                  font_manager
     00000F44  A$font_manager$76                  font_manager
     00000F47  A$font_manager$77                  font_manager
     00000F48  A$font_manager$78                  font_manager
     00000F49  A$font_manager$79                  font_manager
     00000F4A  A$font_manager$80                  font_manager
     00000F4B  A$font_manager$81                  font_manager
     00000F4E  A$font_manager$82                  font_manager
     00000F4F  A$font_manager$83                  font_manager
     00000F50  A$font_manager$87                  font_manager
     00000F50  C$font_manager.c$16$1$23           font_manager
     00000F53  A$font_manager$88                  font_manager
     00000F54  A$font_manager$89                  font_manager
     00000F55  A$font_manager$90                  font_manager
     00000F56  A$font_manager$91                  font_manager
     00000F59  A$font_manager$92                  font_manager
     00000F5A  A$font_manager$97                  font_manager
     00000F5A  C$font_manager.c$17$1$23           font_manager
     00000F5A  XG$engine_font_manager_char$0$0    font_manager
     00000F5B  A$font_manager$107                 font_manager
     00000F5B  C$font_manager.c$19$1$23           font_manager
     00000F5B  G$engine_font_manager_text$0$0     font_manager
     00000F5B  _engine_font_manager_text          font_manager
     00000F5D  A$font_manager$108                 font_manager
     00000F61  A$font_manager$109                 font_manager
     00000F63  A$font_manager$116                 font_manager
     00000F63  C$font_manager.c$21$1$23           font_manager
     00000F63  C$font_manager.c$24$1$25           font_manager
     00000F66  A$font_manager$117                 font_manager
     00000F68  A$font_manager$119                 font_manager
     00000F6B  A$font_manager$120                 font_manager
     00000F6C  A$font_manager$121                 font_manager
     00000F6D  A$font_manager$122                 font_manager
     00000F70  A$font_manager$123                 font_manager
     00000F72  A$font_manager$124                 font_manager
     00000F73  A$font_manager$125                 font_manager
     00000F74  A$font_manager$126                 font_manager
     00000F75  A$font_manager$127                 font_manager
     00000F77  A$font_manager$131                 font_manager
     00000F77  C$font_manager.c$26$2$26           font_manager
     00000F79  A$font_manager$132                 font_manager
     00000F7A  A$font_manager$136                 font_manager
     00000F7A  C$font_manager.c$27$2$26           font_manager
     00000F7B  A$font_manager$137                 font_manager
     00000F7C  A$font_manager$138                 font_manager
     00000F7F  A$font_manager$139                 font_manager
     00000F80  A$font_manager$140                 font_manager
ASxxxx Linker V03.00 + NoICE + sdld,  page 37.
Hexadecimal  [32-Bits]

Area                                    Addr        Size        Decimal Bytes (Attributes)
--------------------------------        ----        ----        ------- ----- ------------
_CODE                               00000200    00002076 =        8310. bytes (REL,CON)

      Value  Global                              Global Defined In Module
      -----  --------------------------------   ------------------------
     00000F81  A$font_manager$141                 font_manager
     00000F84  A$font_manager$142                 font_manager
     00000F85  A$font_manager$143                 font_manager
     00000F86  A$font_manager$144                 font_manager
     00000F87  A$font_manager$145                 font_manager
     00000F88  A$font_manager$146                 font_manager
     00000F8B  A$font_manager$147                 font_manager
     00000F8C  A$font_manager$148                 font_manager
     00000F8D  A$font_manager$149                 font_manager
     00000F8E  A$font_manager$153                 font_manager
     00000F8E  C$font_manager.c$28$2$26           font_manager
     00000F91  A$font_manager$154                 font_manager
     00000F92  A$font_manager$155                 font_manager
     00000F93  A$font_manager$156                 font_manager
     00000F94  A$font_manager$157                 font_manager
     00000F95  A$font_manager$158                 font_manager
     00000F98  A$font_manager$159                 font_manager
     00000F99  A$font_manager$160                 font_manager
     00000F9A  A$font_manager$164                 font_manager
     00000F9A  C$font_manager.c$29$2$26           font_manager
     00000F9B  A$font_manager$165                 font_manager
     00000F9D  A$font_manager$167                 font_manager
     00000F9F  A$font_manager$172                 font_manager
     00000F9F  C$font_manager.c$31$1$25           font_manager
     00000F9F  XG$engine_font_manager_text$0$0    font_manager
     00000FA0  A$font_manager$182                 font_manager
     00000FA0  C$font_manager.c$33$1$25           font_manager
     00000FA0  G$engine_font_manager_data$0$0     font_manager
     00000FA0  _engine_font_manager_data          font_manager
     00000FA2  A$font_manager$183                 font_manager
     00000FA6  A$font_manager$184                 font_manager
     00000FA8  A$font_manager$185                 font_manager
     00000FA9  A$font_manager$192                 font_manager
     00000FA9  C$font_manager.c$35$1$25           font_manager
     00000FAC  A$font_manager$193                 font_manager
     00000FAF  A$font_manager$194                 font_manager
     00000FB3  A$font_manager$199                 font_manager
     00000FB3  C$font_manager.c$45$2$29           font_manager
     00000FB6  A$font_manager$200                 font_manager
     00000FB7  A$font_manager$201                 font_manager
     00000FBA  A$font_manager$202                 font_manager
     00000FBD  A$font_manager$203                 font_manager
     00000FBE  A$font_manager$204                 font_manager
     00000FC1  A$font_manager$205                 font_manager
     00000FC2  A$font_manager$206                 font_manager
     00000FC3  A$font_manager$207                 font_manager
     00000FC4  A$font_manager$208                 font_manager
     00000FC5  A$font_manager$212                 font_manager
     00000FC5  C$font_manager.c$46$2$29           font_manager
     00000FC6  A$font_manager$213                 font_manager
     00000FC7  A$font_manager$214                 font_manager
ASxxxx Linker V03.00 + NoICE + sdld,  page 38.
Hexadecimal  [32-Bits]

Area                                    Addr        Size        Decimal Bytes (Attributes)
--------------------------------        ----        ----        ------- ----- ------------
_CODE                               00000200    00002076 =        8310. bytes (REL,CON)

      Value  Global                              Global Defined In Module
      -----  --------------------------------   ------------------------
     00000FCA  A$font_manager$215                 font_manager
     00000FCB  A$font_manager$216                 font_manager
     00000FCE  A$font_manager$217                 font_manager
     00000FD1  A$font_manager$218                 font_manager
     00000FD2  A$font_manager$219                 font_manager
     00000FD5  A$font_manager$220                 font_manager
     00000FD6  A$font_manager$221                 font_manager
     00000FD7  A$font_manager$222                 font_manager
     00000FD8  A$font_manager$223                 font_manager
     00000FD9  A$font_manager$224                 font_manager
     00000FDA  A$font_manager$228                 font_manager
     00000FDA  C$font_manager.c$47$3$30           font_manager
     00000FDD  A$font_manager$229                 font_manager
     00000FE0  A$font_manager$233                 font_manager
     00000FE0  C$font_manager.c$49$3$30           font_manager
     00000FE1  A$font_manager$234                 font_manager
     00000FE3  A$font_manager$235                 font_manager
     00000FE4  A$font_manager$239                 font_manager
     00000FE4  C$font_manager.c$50$3$30           font_manager
     00000FE5  A$font_manager$240                 font_manager
     00000FE6  A$font_manager$241                 font_manager
     00000FE8  A$font_manager$242                 font_manager
     00000FE9  A$font_manager$243                 font_manager
     00000FEB  A$font_manager$244                 font_manager
     00000FEE  A$font_manager$245                 font_manager
     00000FEF  A$font_manager$246                 font_manager
     00000FF1  A$font_manager$250                 font_manager
     00000FF1  C$font_manager.c$53$4$31           font_manager
     00000FF3  A$font_manager$255                 font_manager
     00000FF3  C$font_manager.c$56$3$30           font_manager
     00000FF6  A$font_manager$256                 font_manager
     00000FF9  A$font_manager$257                 font_manager
     00000FFC  A$font_manager$258                 font_manager
     00000FFF  A$font_manager$259                 font_manager
     00001000  A$font_manager$260                 font_manager
     00001003  A$font_manager$261                 font_manager
     00001004  A$font_manager$262                 font_manager
     00001005  A$font_manager$263                 font_manager
     00001006  A$font_manager$264                 font_manager
     00001007  A$font_manager$265                 font_manager
     0000100A  A$font_manager$266                 font_manager
     0000100B  A$font_manager$267                 font_manager
     0000100C  A$font_manager$271                 font_manager
     0000100C  C$font_manager.c$57$3$30           font_manager
     0000100F  A$font_manager$272                 font_manager
     00001010  A$font_manager$273                 font_manager
     00001011  A$font_manager$274                 font_manager
     00001012  A$font_manager$275                 font_manager
     00001015  A$font_manager$276                 font_manager
     00001016  A$font_manager$280                 font_manager
     00001016  C$font_manager.c$43$2$29           font_manager
ASxxxx Linker V03.00 + NoICE + sdld,  page 39.
Hexadecimal  [32-Bits]

Area                                    Addr        Size        Decimal Bytes (Attributes)
--------------------------------        ----        ----        ------- ----- ------------
_CODE                               00000200    00002076 =        8310. bytes (REL,CON)

      Value  Global                              Global Defined In Module
      -----  --------------------------------   ------------------------
     00001019  A$font_manager$281                 font_manager
     0000101C  A$font_manager$282                 font_manager
     0000101E  A$font_manager$283                 font_manager
     00001020  A$font_manager$284                 font_manager
     00001022  A$font_manager$285                 font_manager
     00001024  A$font_manager$290                 font_manager
     00001024  C$font_manager.c$59$2$29           font_manager
     00001024  XG$engine_font_manager_data$0$0    font_manager
     00001025  A$input_manager$80                 input_manager
     00001025  C$input_manager.c$13$0$0           input_manager
     00001025  C$input_manager.c$15$1$21          input_manager
     00001025  G$engine_input_manager_update$0$   input_manager
     00001025  _engine_input_manager_update       input_manager
     00001028  A$input_manager$81                 input_manager
     0000102B  A$input_manager$85                 input_manager
     0000102B  C$input_manager.c$16$1$21          input_manager
     0000102E  A$input_manager$86                 input_manager
     00001031  A$input_manager$91                 input_manager
     00001031  C$input_manager.c$17$1$21          input_manager
     00001031  XG$engine_input_manager_update$0   input_manager
     00001032  A$input_manager$104                input_manager
     00001032  C$input_manager.c$20$1$21          input_manager
     00001032  C$input_manager.c$22$1$22          input_manager
     00001032  G$engine_input_manager_hold_up$0   input_manager
     00001032  _engine_input_manager_hold_up      input_manager
     00001035  A$input_manager$105                input_manager
     00001036  A$input_manager$106                input_manager
     00001039  A$input_manager$107                input_manager
     0000103A  A$input_manager$112                input_manager
     0000103A  C$input_manager.c$23$1$22          input_manager
     0000103A  XG$engine_input_manager_hold_up$   input_manager
     0000103B  A$input_manager$125                input_manager
     0000103B  C$input_manager.c$24$1$22          input_manager
     0000103B  C$input_manager.c$26$1$23          input_manager
     0000103B  G$engine_input_manager_hold_down   input_manager
     0000103B  _engine_input_manager_hold_down    input_manager
     0000103E  A$input_manager$126                input_manager
     0000103F  A$input_manager$127                input_manager
     00001042  A$input_manager$128                input_manager
     00001043  A$input_manager$133                input_manager
     00001043  C$input_manager.c$27$1$23          input_manager
     00001043  XG$engine_input_manager_hold_dow   input_manager
     00001044  A$input_manager$146                input_manager
     00001044  C$input_manager.c$28$1$23          input_manager
     00001044  C$input_manager.c$30$1$24          input_manager
     00001044  G$engine_input_manager_hold_left   input_manager
     00001044  _engine_input_manager_hold_left    input_manager
     00001047  A$input_manager$147                input_manager
     00001048  A$input_manager$148                input_manager
     0000104B  A$input_manager$149                input_manager
     0000104C  A$input_manager$154                input_manager
ASxxxx Linker V03.00 + NoICE + sdld,  page 40.
Hexadecimal  [32-Bits]

Area                                    Addr        Size        Decimal Bytes (Attributes)
--------------------------------        ----        ----        ------- ----- ------------
_CODE                               00000200    00002076 =        8310. bytes (REL,CON)

      Value  Global                              Global Defined In Module
      -----  --------------------------------   ------------------------
     0000104C  C$input_manager.c$31$1$24          input_manager
     0000104C  XG$engine_input_manager_hold_lef   input_manager
     0000104D  A$input_manager$167                input_manager
     0000104D  C$input_manager.c$32$1$24          input_manager
     0000104D  C$input_manager.c$34$1$25          input_manager
     0000104D  G$engine_input_manager_hold_righ   input_manager
     0000104D  _engine_input_manager_hold_right   input_manager
     00001050  A$input_manager$168                input_manager
     00001051  A$input_manager$169                input_manager
     00001054  A$input_manager$170                input_manager
     00001055  A$input_manager$175                input_manager
     00001055  C$input_manager.c$35$1$25          input_manager
     00001055  XG$engine_input_manager_hold_rig   input_manager
     00001056  A$input_manager$188                input_manager
     00001056  C$input_manager.c$36$1$25          input_manager
     00001056  C$input_manager.c$38$1$26          input_manager
     00001056  G$engine_input_manager_hold_fire   input_manager
     00001056  _engine_input_manager_hold_fire1   input_manager
     00001059  A$input_manager$189                input_manager
     0000105A  A$input_manager$190                input_manager
     0000105D  A$input_manager$191                input_manager
     0000105E  A$input_manager$196                input_manager
     0000105E  C$input_manager.c$39$1$26          input_manager
     0000105E  XG$engine_input_manager_hold_fir   input_manager
     0000105F  A$input_manager$209                input_manager
     0000105F  C$input_manager.c$40$1$26          input_manager
     0000105F  C$input_manager.c$42$1$27          input_manager
     0000105F  G$engine_input_manager_hold_fire   input_manager
     0000105F  _engine_input_manager_hold_fire2   input_manager
     00001062  A$input_manager$210                input_manager
     00001063  A$input_manager$211                input_manager
     00001066  A$input_manager$212                input_manager
     00001067  A$input_manager$217                input_manager
     00001067  C$input_manager.c$43$1$27          input_manager
     00001067  XG$engine_input_manager_hold_fir   input_manager
     00001068  A$input_manager$230                input_manager
     00001068  C$input_manager.c$46$1$27          input_manager
     00001068  C$input_manager.c$48$1$28          input_manager
     00001068  G$engine_input_manager_move_up$0   input_manager
     00001068  _engine_input_manager_move_up      input_manager
     0000106B  A$input_manager$231                input_manager
     0000106C  A$input_manager$232                input_manager
     0000106F  A$input_manager$233                input_manager
     00001070  A$input_manager$238                input_manager
     00001070  C$input_manager.c$49$1$28          input_manager
     00001070  XG$engine_input_manager_move_up$   input_manager
     00001071  A$input_manager$251                input_manager
     00001071  C$input_manager.c$50$1$28          input_manager
     00001071  C$input_manager.c$52$1$29          input_manager
     00001071  G$engine_input_manager_move_down   input_manager
     00001071  _engine_input_manager_move_down    input_manager
ASxxxx Linker V03.00 + NoICE + sdld,  page 41.
Hexadecimal  [32-Bits]

Area                                    Addr        Size        Decimal Bytes (Attributes)
--------------------------------        ----        ----        ------- ----- ------------
_CODE                               00000200    00002076 =        8310. bytes (REL,CON)

      Value  Global                              Global Defined In Module
      -----  --------------------------------   ------------------------
     00001074  A$input_manager$252                input_manager
     00001075  A$input_manager$253                input_manager
     00001078  A$input_manager$254                input_manager
     00001079  A$input_manager$259                input_manager
     00001079  C$input_manager.c$53$1$29          input_manager
     00001079  XG$engine_input_manager_move_dow   input_manager
     0000107A  A$input_manager$272                input_manager
     0000107A  C$input_manager.c$54$1$29          input_manager
     0000107A  C$input_manager.c$56$1$30          input_manager
     0000107A  G$engine_input_manager_move_left   input_manager
     0000107A  _engine_input_manager_move_left    input_manager
     0000107D  A$input_manager$273                input_manager
     0000107E  A$input_manager$274                input_manager
     00001081  A$input_manager$275                input_manager
     00001082  A$input_manager$280                input_manager
     00001082  C$input_manager.c$57$1$30          input_manager
     00001082  XG$engine_input_manager_move_lef   input_manager
     00001083  A$input_manager$293                input_manager
     00001083  C$input_manager.c$58$1$30          input_manager
     00001083  C$input_manager.c$60$1$31          input_manager
     00001083  G$engine_input_manager_move_righ   input_manager
     00001083  _engine_input_manager_move_right   input_manager
     00001086  A$input_manager$294                input_manager
     00001087  A$input_manager$295                input_manager
     0000108A  A$input_manager$296                input_manager
     0000108B  A$input_manager$301                input_manager
     0000108B  C$input_manager.c$61$1$31          input_manager
     0000108B  XG$engine_input_manager_move_rig   input_manager
     0000108C  A$input_manager$314                input_manager
     0000108C  C$input_manager.c$62$1$31          input_manager
     0000108C  C$input_manager.c$64$1$32          input_manager
     0000108C  G$engine_input_manager_move_fire   input_manager
     0000108C  _engine_input_manager_move_fire1   input_manager
     0000108F  A$input_manager$315                input_manager
     00001090  A$input_manager$316                input_manager
     00001093  A$input_manager$317                input_manager
     00001094  A$input_manager$322                input_manager
     00001094  C$input_manager.c$65$1$32          input_manager
     00001094  XG$engine_input_manager_move_fir   input_manager
     00001095  A$input_manager$335                input_manager
     00001095  C$input_manager.c$66$1$32          input_manager
     00001095  C$input_manager.c$68$1$33          input_manager
     00001095  G$engine_input_manager_move_fire   input_manager
     00001095  _engine_input_manager_move_fire2   input_manager
     00001098  A$input_manager$336                input_manager
     00001099  A$input_manager$337                input_manager
     0000109C  A$input_manager$338                input_manager
     0000109D  A$input_manager$343                input_manager
     0000109D  C$input_manager.c$69$1$33          input_manager
     0000109D  XG$engine_input_manager_move_fir   input_manager
     0000109E  A$input_manager$356                input_manager
ASxxxx Linker V03.00 + NoICE + sdld,  page 42.
Hexadecimal  [32-Bits]

Area                                    Addr        Size        Decimal Bytes (Attributes)
--------------------------------        ----        ----        ------- ----- ------------
_CODE                               00000200    00002076 =        8310. bytes (REL,CON)

      Value  Global                              Global Defined In Module
      -----  --------------------------------   ------------------------
     0000109E  C$input_manager.c$72$1$33          input_manager
     0000109E  C$input_manager.c$74$1$35          input_manager
     0000109E  Finput_manager$engine_input_mana   input_manager
     000010A1  A$input_manager$357                input_manager
     000010A5  A$input_manager$358                input_manager
     000010A7  A$input_manager$359                input_manager
     000010AA  A$input_manager$360                input_manager
     000010AB  A$input_manager$361                input_manager
     000010AE  A$input_manager$362                input_manager
     000010B2  A$input_manager$363                input_manager
     000010B4  A$input_manager$364                input_manager
     000010B7  A$input_manager$365                input_manager
     000010B8  A$input_manager$366                input_manager
     000010BA  A$input_manager$367                input_manager
     000010BD  A$input_manager$368                input_manager
     000010C1  A$input_manager$369                input_manager
     000010C3  A$input_manager$370                input_manager
     000010C6  A$input_manager$371                input_manager
     000010C7  A$input_manager$372                input_manager
     000010CA  A$input_manager$373                input_manager
     000010CE  A$input_manager$374                input_manager
     000010D0  A$input_manager$375                input_manager
     000010D3  A$input_manager$376                input_manager
     000010D4  A$input_manager$377                input_manager
     000010D6  A$input_manager$379                input_manager
     000010D8  A$input_manager$380                input_manager
     000010D9  A$input_manager$382                input_manager
     000010DB  A$input_manager$387                input_manager
     000010DB  C$input_manager.c$75$1$35          input_manager
     000010DB  XFinput_manager$engine_input_man   input_manager
     000010DC  A$input_manager$400                input_manager
     000010DC  C$input_manager.c$76$1$35          input_manager
     000010DC  C$input_manager.c$78$1$37          input_manager
     000010DC  Finput_manager$engine_input_mana   input_manager
     000010DF  A$input_manager$401                input_manager
     000010E0  A$input_manager$402                input_manager
     000010E3  A$input_manager$403                input_manager
     000010E4  A$input_manager$404                input_manager
     000010E5  A$input_manager$405                input_manager
     000010E6  A$input_manager$406                input_manager
     000010E7  A$input_manager$411                input_manager
     000010E7  C$input_manager.c$79$1$37          input_manager
     000010E7  XFinput_manager$engine_input_man   input_manager
     000010E8  A$sample_manager$57                sample_manager
     000010E8  C$sample_manager.c$15$0$0          sample_manager
     000010E8  C$sample_manager.c$29$1$4          sample_manager
     000010E8  G$engine_sample_manager_init$0$0   sample_manager
     000010E8  _engine_sample_manager_init        sample_manager
     000010EB  A$sample_manager$58                sample_manager
     000010ED  A$sample_manager$59                sample_manager
     000010EE  A$sample_manager$87                sample_manager
ASxxxx Linker V03.00 + NoICE + sdld,  page 43.
Hexadecimal  [32-Bits]

Area                                    Addr        Size        Decimal Bytes (Attributes)
--------------------------------        ----        ----        ------- ----- ------------
_CODE                               00000200    00002076 =        8310. bytes (REL,CON)

      Value  Global                              Global Defined In Module
      -----  --------------------------------   ------------------------
     000010EE  C$sample_manager.c$163$1$6         sample_manager
     000010EE  C$sample_manager.c$32$1$4          sample_manager
     000010EE  G$engine_sample_manager_play$0$0   sample_manager
     000010EE  _engine_sample_manager_play        sample_manager
     000010EF  A$sample_manager$89                sample_manager
     000010F1  A$sample_manager$90                sample_manager
     000010F4  A$sample_manager$91                sample_manager
     000010F7  A$sample_manager$92                sample_manager
     000010F8  A$sample_manager$93                sample_manager
     000010FB  A$sample_manager$95                sample_manager
     000010FC  A$sample_manager$96                sample_manager
     000010FF  A$sample_manager$100               sample_manager
     00001100  A$sample_manager$101               sample_manager
     00001102  A$sample_manager$102               sample_manager
     00001104  A$sample_manager$103               sample_manager
     00001105  A$sample_manager$104               sample_manager
     00001106  A$sample_manager$105               sample_manager
     00001107  A$sample_manager$106               sample_manager
     00001109  A$sample_manager$107               sample_manager
     0000110D  A$sample_manager$111               sample_manager
     0000110E  A$sample_manager$112               sample_manager
     00001110  A$sample_manager$113               sample_manager
     00001112  A$sample_manager$114               sample_manager
     00001113  A$sample_manager$115               sample_manager
     00001114  A$sample_manager$116               sample_manager
     00001115  A$sample_manager$117               sample_manager
     00001117  A$sample_manager$118               sample_manager
     0000111B  A$sample_manager$122               sample_manager
     0000111C  A$sample_manager$123               sample_manager
     0000111E  A$sample_manager$124               sample_manager
     00001120  A$sample_manager$125               sample_manager
     00001121  A$sample_manager$126               sample_manager
     00001122  A$sample_manager$127               sample_manager
     00001123  A$sample_manager$128               sample_manager
     00001125  A$sample_manager$129               sample_manager
     00001127  A$sample_manager$130               sample_manager
     00001128  A$sample_manager$133               sample_manager
     0000112D  A$sample_manager$136               sample_manager
     0000112E  A$sample_manager$137               sample_manager
     0000112F  A$sample_manager$138               sample_manager
     00001131  A$sample_manager$139               sample_manager
     00001133  A$sample_manager$140               sample_manager
     00001135  A$sample_manager$141               sample_manager
     00001137  A$sample_manager$142               sample_manager
     00001138  A$sample_manager$143               sample_manager
     00001139  A$sample_manager$145               sample_manager
     0000113C  A$sample_manager$147               sample_manager
     00001142  A$sample_manager$150               sample_manager
     00001145  A$sample_manager$152               sample_manager
     00001147  A$sample_manager$154               sample_manager
     00001148  A$sample_manager$155               sample_manager
ASxxxx Linker V03.00 + NoICE + sdld,  page 44.
Hexadecimal  [32-Bits]

Area                                    Addr        Size        Decimal Bytes (Attributes)
--------------------------------        ----        ----        ------- ----- ------------
_CODE                               00000200    00002076 =        8310. bytes (REL,CON)

      Value  Global                              Global Defined In Module
      -----  --------------------------------   ------------------------
     00001149  A$sample_manager$157               sample_manager
     0000114A  A$sample_manager$158               sample_manager
     0000114C  A$sample_manager$159               sample_manager
     0000114E  A$sample_manager$160               sample_manager
     00001150  A$sample_manager$162               sample_manager
     00001151  A$sample_manager$163               sample_manager
     00001153  A$sample_manager$164               sample_manager
     00001155  A$sample_manager$165               sample_manager
     00001157  A$sample_manager$167               sample_manager
     00001158  A$sample_manager$168               sample_manager
     0000115A  A$sample_manager$169               sample_manager
     0000115C  A$sample_manager$170               sample_manager
     0000115E  A$sample_manager$173               sample_manager
     0000115F  A$sample_manager$174               sample_manager
     00001161  A$sample_manager$176               sample_manager
     00001163  A$sample_manager$177               sample_manager
     00001164  A$sample_manager$178               sample_manager
     00001166  A$sample_manager$179               sample_manager
     00001167  A$screen_manager$98                screen_manager
     00001167  C$screen_manager.c$28$0$0          screen_manager
     00001167  C$screen_manager.c$30$1$19         screen_manager
     00001167  G$engine_screen_manager_init$0$0   screen_manager
     00001167  _engine_screen_manager_init        screen_manager
     0000116A  A$screen_manager$99                screen_manager
     0000116B  A$screen_manager$100               screen_manager
     0000116C  A$screen_manager$101               screen_manager
     0000116F  A$screen_manager$105               screen_manager
     0000116F  C$screen_manager.c$31$1$19         screen_manager
     00001172  A$screen_manager$106               screen_manager
     00001174  A$screen_manager$110               screen_manager
     00001174  C$screen_manager.c$34$1$19         screen_manager
     00001177  A$screen_manager$111               screen_manager
     0000117A  A$screen_manager$115               screen_manager
     0000117A  C$screen_manager.c$35$1$19         screen_manager
     0000117D  A$screen_manager$116               screen_manager
     00001180  A$screen_manager$120               screen_manager
     00001180  C$screen_manager.c$36$1$19         screen_manager
     00001183  A$screen_manager$121               screen_manager
     00001186  A$screen_manager$125               screen_manager
     00001186  C$screen_manager.c$37$1$19         screen_manager
     00001189  A$screen_manager$126               screen_manager
     0000118C  A$screen_manager$130               screen_manager
     0000118C  C$screen_manager.c$38$1$19         screen_manager
     0000118F  A$screen_manager$131               screen_manager
     00001192  A$screen_manager$135               screen_manager
     00001192  C$screen_manager.c$39$1$19         screen_manager
     00001195  A$screen_manager$136               screen_manager
     00001198  A$screen_manager$140               screen_manager
     00001198  C$screen_manager.c$40$1$19         screen_manager
     0000119B  A$screen_manager$141               screen_manager
     0000119E  A$screen_manager$145               screen_manager
ASxxxx Linker V03.00 + NoICE + sdld,  page 45.
Hexadecimal  [32-Bits]

Area                                    Addr        Size        Decimal Bytes (Attributes)
--------------------------------        ----        ----        ------- ----- ------------
_CODE                               00000200    00002076 =        8310. bytes (REL,CON)

      Value  Global                              Global Defined In Module
      -----  --------------------------------   ------------------------
     0000119E  C$screen_manager.c$41$1$19         screen_manager
     000011A1  A$screen_manager$146               screen_manager
     000011A4  A$screen_manager$150               screen_manager
     000011A4  C$screen_manager.c$42$1$19         screen_manager
     000011A7  A$screen_manager$151               screen_manager
     000011AA  A$screen_manager$155               screen_manager
     000011AA  C$screen_manager.c$43$1$19         screen_manager
     000011AD  A$screen_manager$156               screen_manager
     000011B0  A$screen_manager$160               screen_manager
     000011B0  C$screen_manager.c$44$1$19         screen_manager
     000011B3  A$screen_manager$161               screen_manager
     000011B6  A$screen_manager$165               screen_manager
     000011B6  C$screen_manager.c$45$1$19         screen_manager
     000011B9  A$screen_manager$166               screen_manager
     000011BC  A$screen_manager$170               screen_manager
     000011BC  C$screen_manager.c$46$1$19         screen_manager
     000011BF  A$screen_manager$171               screen_manager
     000011C2  A$screen_manager$175               screen_manager
     000011C2  C$screen_manager.c$47$1$19         screen_manager
     000011C5  A$screen_manager$176               screen_manager
     000011C8  A$screen_manager$180               screen_manager
     000011C8  C$screen_manager.c$48$1$19         screen_manager
     000011CB  A$screen_manager$181               screen_manager
     000011CE  A$screen_manager$185               screen_manager
     000011CE  C$screen_manager.c$51$1$19         screen_manager
     000011D1  A$screen_manager$186               screen_manager
     000011D4  A$screen_manager$190               screen_manager
     000011D4  C$screen_manager.c$52$1$19         screen_manager
     000011D7  A$screen_manager$191               screen_manager
     000011DA  A$screen_manager$195               screen_manager
     000011DA  C$screen_manager.c$53$1$19         screen_manager
     000011DD  A$screen_manager$196               screen_manager
     000011E0  A$screen_manager$200               screen_manager
     000011E0  C$screen_manager.c$54$1$19         screen_manager
     000011E3  A$screen_manager$201               screen_manager
     000011E6  A$screen_manager$205               screen_manager
     000011E6  C$screen_manager.c$55$1$19         screen_manager
     000011E9  A$screen_manager$206               screen_manager
     000011EC  A$screen_manager$210               screen_manager
     000011EC  C$screen_manager.c$56$1$19         screen_manager
     000011EF  A$screen_manager$211               screen_manager
     000011F2  A$screen_manager$215               screen_manager
     000011F2  C$screen_manager.c$57$1$19         screen_manager
     000011F5  A$screen_manager$216               screen_manager
     000011F8  A$screen_manager$220               screen_manager
     000011F8  C$screen_manager.c$58$1$19         screen_manager
     000011FB  A$screen_manager$221               screen_manager
     000011FE  A$screen_manager$225               screen_manager
     000011FE  C$screen_manager.c$59$1$19         screen_manager
     00001201  A$screen_manager$226               screen_manager
     00001204  A$screen_manager$230               screen_manager
ASxxxx Linker V03.00 + NoICE + sdld,  page 46.
Hexadecimal  [32-Bits]

Area                                    Addr        Size        Decimal Bytes (Attributes)
--------------------------------        ----        ----        ------- ----- ------------
_CODE                               00000200    00002076 =        8310. bytes (REL,CON)

      Value  Global                              Global Defined In Module
      -----  --------------------------------   ------------------------
     00001204  C$screen_manager.c$60$1$19         screen_manager
     00001207  A$screen_manager$231               screen_manager
     0000120A  A$screen_manager$235               screen_manager
     0000120A  C$screen_manager.c$61$1$19         screen_manager
     0000120D  A$screen_manager$236               screen_manager
     00001210  A$screen_manager$240               screen_manager
     00001210  C$screen_manager.c$62$1$19         screen_manager
     00001213  A$screen_manager$241               screen_manager
     00001216  A$screen_manager$245               screen_manager
     00001216  C$screen_manager.c$63$1$19         screen_manager
     00001219  A$screen_manager$246               screen_manager
     0000121C  A$screen_manager$250               screen_manager
     0000121C  C$screen_manager.c$64$1$19         screen_manager
     0000121F  A$screen_manager$251               screen_manager
     00001222  A$screen_manager$255               screen_manager
     00001222  C$screen_manager.c$65$1$19         screen_manager
     00001225  A$screen_manager$256               screen_manager
     00001228  A$screen_manager$261               screen_manager
     00001228  C$screen_manager.c$66$1$19         screen_manager
     00001228  XG$engine_screen_manager_init$0$   screen_manager
     00001229  A$screen_manager$274               screen_manager
     00001229  C$screen_manager.c$68$1$19         screen_manager
     00001229  C$screen_manager.c$70$1$20         screen_manager
     00001229  G$engine_screen_manager_update$0   screen_manager
     00001229  _engine_screen_manager_update      screen_manager
     0000122C  A$screen_manager$275               screen_manager
     00001230  A$screen_manager$276               screen_manager
     00001233  A$screen_manager$277               screen_manager
     00001235  A$screen_manager$281               screen_manager
     00001235  C$screen_manager.c$72$2$21         screen_manager
     00001238  A$screen_manager$282               screen_manager
     0000123C  A$screen_manager$283               screen_manager
     0000123F  A$screen_manager$287               screen_manager
     0000123F  C$screen_manager.c$73$2$21         screen_manager
     00001242  A$screen_manager$288               screen_manager
     00001245  A$screen_manager$289               screen_manager
     00001247  A$screen_manager$290               screen_manager
     00001248  A$screen_manager$291               screen_manager
     00001249  A$screen_manager$292               screen_manager
     0000124A  A$screen_manager$293               screen_manager
     0000124B  A$screen_manager$294               screen_manager
     0000124C  A$screen_manager$295               screen_manager
     0000124D  A$screen_manager$296               screen_manager
     00001250  A$screen_manager$301               screen_manager
     00001250  C$screen_manager.c$76$1$20         screen_manager
     00001253  A$screen_manager$302               screen_manager
     00001257  A$screen_manager$303               screen_manager
     0000125A  A$screen_manager$304               screen_manager
     0000125C  A$screen_manager$305               screen_manager
     0000125D  A$screen_manager$306               screen_manager
     0000125E  A$screen_manager$307               screen_manager
ASxxxx Linker V03.00 + NoICE + sdld,  page 47.
Hexadecimal  [32-Bits]

Area                                    Addr        Size        Decimal Bytes (Attributes)
--------------------------------        ----        ----        ------- ----- ------------
_CODE                               00000200    00002076 =        8310. bytes (REL,CON)

      Value  Global                              Global Defined In Module
      -----  --------------------------------   ------------------------
     0000125F  A$screen_manager$308               screen_manager
     00001260  A$screen_manager$309               screen_manager
     00001261  A$screen_manager$310               screen_manager
     00001264  A$screen_manager$311               screen_manager
     00001265  A$screen_manager$312               screen_manager
     00001266  A$screen_manager$313               screen_manager
     00001267  A$screen_manager$314               screen_manager
     0000126A  A$screen_manager$315               screen_manager
     0000126B  A$screen_manager$320               screen_manager
     0000126B  C$screen_manager.c$77$1$20         screen_manager
     0000126B  XG$engine_screen_manager_update$   screen_manager
     0000126C  A$sound_manager$60                 sound_manager
     0000126C  C$sound_manager.c$11$0$0           sound_manager
     0000126C  C$sound_manager.c$13$1$22          sound_manager
     0000126C  G$engine_sound_manager_init$0$0    sound_manager
     0000126C  _engine_sound_manager_init         sound_manager
     0000126F  A$sound_manager$65                 sound_manager
     0000126F  C$sound_manager.c$14$1$22          sound_manager
     0000126F  XG$engine_sound_manager_init$0$0   sound_manager
     00001272  G$psgInit$0$0                      sound_manager
     00001272  _psgInit                           sound_manager
     0000127D  A$sound_manager$88                 sound_manager
     0000127D  C$sound_manager.c$16$1$22          sound_manager
     0000127D  G$engine_sound_manager_play$0$0    sound_manager
     0000127D  _engine_sound_manager_play         sound_manager
     0000127F  A$sound_manager$89                 sound_manager
     00001283  A$sound_manager$90                 sound_manager
     00001285  A$sound_manager$94                 sound_manager
     00001285  C$sound_manager.c$21$1$24          sound_manager
     00001288  A$sound_manager$95                 sound_manager
     0000128B  A$sound_manager$96                 sound_manager
     0000128D  A$sound_manager$97                 sound_manager
     0000128E  A$sound_manager$98                 sound_manager
     0000128F  A$sound_manager$99                 sound_manager
     00001290  A$sound_manager$100                sound_manager
     00001291  A$sound_manager$101                sound_manager
     00001292  A$sound_manager$105                sound_manager
     00001292  C$sound_manager.c$22$1$24          sound_manager
     00001295  A$sound_manager$106                sound_manager
     00001298  A$sound_manager$107                sound_manager
     0000129A  A$sound_manager$108                sound_manager
     0000129B  A$sound_manager$109                sound_manager
     0000129C  A$sound_manager$113                sound_manager
     0000129C  C$sound_manager.c$24$1$24          sound_manager
     0000129D  A$sound_manager$114                sound_manager
     0000129E  A$sound_manager$115                sound_manager
     0000129F  A$sound_manager$116                sound_manager
     000012A2  A$sound_manager$117                sound_manager
     000012A3  A$sound_manager$121                sound_manager
     000012A3  C$sound_manager.c$25$1$24          sound_manager
     000012A4  A$sound_manager$126                sound_manager
ASxxxx Linker V03.00 + NoICE + sdld,  page 48.
Hexadecimal  [32-Bits]

Area                                    Addr        Size        Decimal Bytes (Attributes)
--------------------------------        ----        ----        ------- ----- ------------
_CODE                               00000200    00002076 =        8310. bytes (REL,CON)

      Value  Global                              Global Defined In Module
      -----  --------------------------------   ------------------------
     000012A4  C$sound_manager.c$26$1$24          sound_manager
     000012A4  XG$engine_sound_manager_play$0$0   sound_manager
     000012A6  A$sound_manager$127                sound_manager
     000012A9  A$timer_manager$55                 timer_manager
     000012A9  C$timer_manager.c$4$0$0            timer_manager
     000012A9  C$timer_manager.c$6$1$1            timer_manager
     000012A9  G$screen_bases_screen_init$0$0     timer_manager
     000012A9  _screen_bases_screen_init          timer_manager
     000012AC  A$timer_manager$56                 timer_manager
     000012AE  A$timer_manager$60                 timer_manager
     000012AE  C$timer_manager.c$7$1$1            timer_manager
     000012B1  A$timer_manager$61                 timer_manager
     000012B4  A$timer_manager$66                 timer_manager
     000012B4  C$timer_manager.c$8$1$1            timer_manager
     000012B4  XG$screen_bases_screen_init$0$0    timer_manager
     000012B5  G$sound_sample_bank$0$0            sound_object
     000012B5  _sound_sample_bank                 sound_object
     000012BB  A$diff_screen$57                   diff_screen
     000012BB  C$diff_screen.c$5$0$0              diff_screen
     000012BB  C$diff_screen.c$7$1$5              diff_screen
     000012BB  G$screen_diff_screen_load$0$0      diff_screen
     000012BB  _screen_diff_screen_load           diff_screen
     000012BE  A$diff_screen$58                   diff_screen
     000012BF  A$diff_screen$59                   diff_screen
     000012C2  A$diff_screen$60                   diff_screen
     000012C3  A$diff_screen$61                   diff_screen
     000012C6  A$diff_screen$62                   diff_screen
     000012C7  A$diff_screen$63                   diff_screen
     000012C8  A$diff_screen$68                   diff_screen
     000012C8  C$diff_screen.c$8$1$5              diff_screen
     000012C8  XG$screen_diff_screen_load$0$0     diff_screen
     000012C9  Fdiff_screen$__str_0$0$0           diff_screen
     000012D7  A$diff_screen$85                   diff_screen
     000012D7  C$diff_screen.c$10$1$5             diff_screen
     000012D7  C$diff_screen.c$12$1$7             diff_screen
     000012D7  G$screen_diff_screen_update$0$0    diff_screen
     000012D7  _screen_diff_screen_update         diff_screen
     000012D8  A$diff_screen$86                   diff_screen
     000012D9  A$diff_screen$87                   diff_screen
     000012DA  A$diff_screen$88                   diff_screen
     000012DB  A$diff_screen$89                   diff_screen
     000012DC  A$diff_screen$90                   diff_screen
     000012DD  A$diff_screen$95                   diff_screen
     000012DD  C$diff_screen.c$13$1$7             diff_screen
     000012DD  XG$screen_diff_screen_update$0$0   diff_screen
     000012DE  A$func_screen$65                   func_screen
     000012DE  C$func_screen.c$12$0$0             func_screen
     000012DE  C$func_screen.c$14$1$25            func_screen
     000012DE  G$screen_func_screen_load$0$0      func_screen
     000012DE  _screen_func_screen_load           func_screen
     000012E1  A$func_screen$69                   func_screen
ASxxxx Linker V03.00 + NoICE + sdld,  page 49.
Hexadecimal  [32-Bits]

Area                                    Addr        Size        Decimal Bytes (Attributes)
--------------------------------        ----        ----        ------- ----- ------------
_CODE                               00000200    00002076 =        8310. bytes (REL,CON)

      Value  Global                              Global Defined In Module
      -----  --------------------------------   ------------------------
     000012E1  C$func_screen.c$15$1$25            func_screen
     000012E4  A$func_screen$70                   func_screen
     000012E5  A$func_screen$71                   func_screen
     000012E6  A$func_screen$72                   func_screen
     000012E9  A$func_screen$73                   func_screen
     000012EA  A$func_screen$78                   func_screen
     000012EA  C$func_screen.c$16$1$25            func_screen
     000012EA  XG$screen_func_screen_load$0$0     func_screen
     000012EB  A$func_screen$91                   func_screen
     000012EB  C$func_screen.c$18$1$25            func_screen
     000012EB  C$func_screen.c$20$1$27            func_screen
     000012EB  G$screen_func_screen_update$0$0    func_screen
     000012EB  _screen_func_screen_update         func_screen
     000012EE  A$func_screen$95                   func_screen
     000012EE  C$func_screen.c$21$1$27            func_screen
     000012EF  A$func_screen$96                   func_screen
     000012F0  A$func_screen$97                   func_screen
     000012F2  A$func_screen$101                  func_screen
     000012F2  C$func_screen.c$23$2$28            func_screen
     000012F6  A$func_screen$102                  func_screen
     000012F9  A$func_screen$103                  func_screen
     000012FB  A$func_screen$104                  func_screen
     000012FD  A$func_screen$108                  func_screen
     000012FD  C$func_screen.c$25$3$29            func_screen
     00001301  A$func_screen$109                  func_screen
     00001303  A$func_screen$114                  func_screen
     00001303  C$func_screen.c$29$3$30            func_screen
     00001306  A$func_screen$115                  func_screen
     00001307  A$func_screen$120                  func_screen
     00001307  C$func_screen.c$31$2$28            func_screen
     0000130A  A$func_screen$121                  func_screen
     0000130B  A$func_screen$122                  func_screen
     0000130C  A$func_screen$123                  func_screen
     0000130F  A$func_screen$124                  func_screen
     00001310  A$func_screen$125                  func_screen
     00001312  A$func_screen$130                  func_screen
     00001312  C$func_screen.c$35$2$31            func_screen
     00001315  A$func_screen$134                  func_screen
     00001315  C$func_screen.c$36$2$31            func_screen
     00001316  A$func_screen$135                  func_screen
     00001317  A$func_screen$136                  func_screen
     00001319  A$func_screen$140                  func_screen
     00001319  C$func_screen.c$38$3$32            func_screen
     0000131D  A$func_screen$141                  func_screen
     00001320  A$func_screen$142                  func_screen
     00001321  A$func_screen$143                  func_screen
     00001323  A$func_screen$147                  func_screen
     00001323  C$func_screen.c$40$4$33            func_screen
     00001327  A$func_screen$148                  func_screen
     00001329  A$func_screen$153                  func_screen
     00001329  C$func_screen.c$44$4$34            func_screen
ASxxxx Linker V03.00 + NoICE + sdld,  page 50.
Hexadecimal  [32-Bits]

Area                                    Addr        Size        Decimal Bytes (Attributes)
--------------------------------        ----        ----        ------- ----- ------------
_CODE                               00000200    00002076 =        8310. bytes (REL,CON)

      Value  Global                              Global Defined In Module
      -----  --------------------------------   ------------------------
     0000132C  A$func_screen$154                  func_screen
     0000132D  A$func_screen$159                  func_screen
     0000132D  C$func_screen.c$46$3$32            func_screen
     00001330  A$func_screen$160                  func_screen
     00001331  A$func_screen$161                  func_screen
     00001332  A$func_screen$162                  func_screen
     00001335  A$func_screen$163                  func_screen
     00001336  A$func_screen$168                  func_screen
     00001336  C$func_screen.c$50$1$27            func_screen
     00001337  A$func_screen$169                  func_screen
     00001338  A$func_screen$170                  func_screen
     00001339  A$func_screen$171                  func_screen
     0000133A  A$func_screen$172                  func_screen
     0000133C  A$func_screen$177                  func_screen
     0000133C  C$func_screen.c$51$1$27            func_screen
     0000133C  XG$screen_func_screen_update$0$0   func_screen
     0000133D  A$func_screen$190                  func_screen
     0000133D  C$func_screen.c$53$1$27            func_screen
     0000133D  C$func_screen.c$55$1$36            func_screen
     0000133D  Ffunc_screen$draw_screen$0$0       func_screen
     00001340  A$func_screen$194                  func_screen
     00001340  C$func_screen.c$56$1$36            func_screen
     00001343  A$func_screen$195                  func_screen
     00001344  A$func_screen$196                  func_screen
     00001345  A$func_screen$197                  func_screen
     00001346  A$func_screen$198                  func_screen
     00001347  A$func_screen$199                  func_screen
     0000134A  A$func_screen$200                  func_screen
     0000134B  A$func_screen$208                  func_screen
     0000134B  C$func_screen.c$57$1$36            func_screen
     0000134B  C$func_screen.c$58$1$36            func_screen
     0000134B  XFfunc_screen$draw_screen$0$0      func_screen
     0000134E  A$intro_screen$57                  intro_screen
     0000134E  C$intro_screen.c$5$0$0             intro_screen
     0000134E  C$intro_screen.c$7$1$5             intro_screen
     0000134E  G$screen_intro_screen_load$0$0     intro_screen
     0000134E  _screen_intro_screen_load          intro_screen
     00001351  A$intro_screen$58                  intro_screen
     00001352  A$intro_screen$59                  intro_screen
     00001355  A$intro_screen$60                  intro_screen
     00001356  A$intro_screen$61                  intro_screen
     00001359  A$intro_screen$62                  intro_screen
     0000135A  A$intro_screen$63                  intro_screen
     0000135B  A$intro_screen$68                  intro_screen
     0000135B  C$intro_screen.c$8$1$5             intro_screen
     0000135B  XG$screen_intro_screen_load$0$0    intro_screen
     0000135C  Fintro_screen$__str_0$0$0          intro_screen
     0000136B  A$intro_screen$85                  intro_screen
     0000136B  C$intro_screen.c$10$1$5            intro_screen
     0000136B  C$intro_screen.c$12$1$7            intro_screen
     0000136B  G$screen_intro_screen_update$0$0   intro_screen
ASxxxx Linker V03.00 + NoICE + sdld,  page 51.
Hexadecimal  [32-Bits]

Area                                    Addr        Size        Decimal Bytes (Attributes)
--------------------------------        ----        ----        ------- ----- ------------
_CODE                               00000200    00002076 =        8310. bytes (REL,CON)

      Value  Global                              Global Defined In Module
      -----  --------------------------------   ------------------------
     0000136B  _screen_intro_screen_update        intro_screen
     0000136C  A$intro_screen$86                  intro_screen
     0000136D  A$intro_screen$87                  intro_screen
     0000136E  A$intro_screen$88                  intro_screen
     0000136F  A$intro_screen$89                  intro_screen
     00001371  A$intro_screen$94                  intro_screen
     00001371  C$intro_screen.c$13$1$7            intro_screen
     00001371  XG$screen_intro_screen_update$0$   intro_screen
     00001372  A$level_screen$57                  level_screen
     00001372  C$level_screen.c$5$0$0             level_screen
     00001372  C$level_screen.c$7$1$5             level_screen
     00001372  G$screen_level_screen_load$0$0     level_screen
     00001372  _screen_level_screen_load          level_screen
     00001375  A$level_screen$58                  level_screen
     00001376  A$level_screen$59                  level_screen
     00001379  A$level_screen$60                  level_screen
     0000137A  A$level_screen$61                  level_screen
     0000137D  A$level_screen$62                  level_screen
     0000137E  A$level_screen$63                  level_screen
     0000137F  A$level_screen$68                  level_screen
     0000137F  C$level_screen.c$8$1$5             level_screen
     0000137F  XG$screen_level_screen_load$0$0    level_screen
     00001380  Flevel_screen$__str_0$0$0          level_screen
     0000138F  A$level_screen$85                  level_screen
     0000138F  C$level_screen.c$10$1$5            level_screen
     0000138F  C$level_screen.c$12$1$7            level_screen
     0000138F  G$screen_level_screen_update$0$0   level_screen
     0000138F  _screen_level_screen_update        level_screen
     00001390  A$level_screen$86                  level_screen
     00001391  A$level_screen$87                  level_screen
     00001392  A$level_screen$88                  level_screen
     00001393  A$level_screen$89                  level_screen
     00001395  A$level_screen$94                  level_screen
     00001395  C$level_screen.c$13$1$7            level_screen
     00001395  XG$screen_level_screen_update$0$   level_screen
     00001396  A$long_screen$57                   long_screen
     00001396  C$long_screen.c$5$0$0              long_screen
     00001396  C$long_screen.c$7$1$5              long_screen
     00001396  G$screen_long_screen_load$0$0      long_screen
     00001396  _screen_long_screen_load           long_screen
     00001399  A$long_screen$58                   long_screen
     0000139A  A$long_screen$59                   long_screen
     0000139D  A$long_screen$60                   long_screen
     0000139E  A$long_screen$61                   long_screen
     000013A1  A$long_screen$62                   long_screen
     000013A2  A$long_screen$63                   long_screen
     000013A3  A$long_screen$68                   long_screen
     000013A3  C$long_screen.c$8$1$5              long_screen
     000013A3  XG$screen_long_screen_load$0$0     long_screen
     000013A4  Flong_screen$__str_0$0$0           long_screen
     000013B2  A$long_screen$85                   long_screen
ASxxxx Linker V03.00 + NoICE + sdld,  page 52.
Hexadecimal  [32-Bits]

Area                                    Addr        Size        Decimal Bytes (Attributes)
--------------------------------        ----        ----        ------- ----- ------------
_CODE                               00000200    00002076 =        8310. bytes (REL,CON)

      Value  Global                              Global Defined In Module
      -----  --------------------------------   ------------------------
     000013B2  C$long_screen.c$10$1$5             long_screen
     000013B2  C$long_screen.c$12$1$7             long_screen
     000013B2  G$screen_long_screen_update$0$0    long_screen
     000013B2  _screen_long_screen_update         long_screen
     000013B3  A$long_screen$86                   long_screen
     000013B4  A$long_screen$87                   long_screen
     000013B5  A$long_screen$88                   long_screen
     000013B6  A$long_screen$89                   long_screen
     000013B8  A$long_screen$94                   long_screen
     000013B8  C$long_screen.c$13$1$7             long_screen
     000013B8  XG$screen_long_screen_update$0$0   long_screen
     000013B9  A$none_screen$57                   none_screen
     000013B9  C$none_screen.c$5$0$0              none_screen
     000013B9  C$none_screen.c$7$1$5              none_screen
     000013B9  G$screen_none_screen_load$0$0      none_screen
     000013B9  _screen_none_screen_load           none_screen
     000013BC  A$none_screen$58                   none_screen
     000013BD  A$none_screen$59                   none_screen
     000013C0  A$none_screen$60                   none_screen
     000013C1  A$none_screen$61                   none_screen
     000013C4  A$none_screen$62                   none_screen
     000013C5  A$none_screen$63                   none_screen
     000013C6  A$none_screen$68                   none_screen
     000013C6  C$none_screen.c$8$1$5              none_screen
     000013C6  XG$screen_none_screen_load$0$0     none_screen
     000013C7  Fnone_screen$__str_0$0$0           none_screen
     000013D5  A$none_screen$85                   none_screen
     000013D5  C$none_screen.c$10$1$5             none_screen
     000013D5  C$none_screen.c$12$1$7             none_screen
     000013D5  G$screen_none_screen_update$0$0    none_screen
     000013D5  _screen_none_screen_update         none_screen
     000013D6  A$none_screen$86                   none_screen
     000013D7  A$none_screen$87                   none_screen
     000013D8  A$none_screen$88                   none_screen
     000013D9  A$none_screen$89                   none_screen
     000013DB  A$none_screen$94                   none_screen
     000013DB  C$none_screen.c$13$1$7             none_screen
     000013DB  XG$screen_none_screen_update$0$0   none_screen
     000013DC  A$number_screen$57                 number_screen
     000013DC  C$number_screen.c$5$0$0            number_screen
     000013DC  C$number_screen.c$7$1$5            number_screen
     000013DC  G$screen_number_screen_load$0$0    number_screen
     000013DC  _screen_number_screen_load         number_screen
     000013DF  A$number_screen$58                 number_screen
     000013E0  A$number_screen$59                 number_screen
     000013E3  A$number_screen$60                 number_screen
     000013E4  A$number_screen$61                 number_screen
     000013E7  A$number_screen$62                 number_screen
     000013E8  A$number_screen$63                 number_screen
     000013E9  A$number_screen$68                 number_screen
     000013E9  C$number_screen.c$8$1$5            number_screen
ASxxxx Linker V03.00 + NoICE + sdld,  page 53.
Hexadecimal  [32-Bits]

Area                                    Addr        Size        Decimal Bytes (Attributes)
--------------------------------        ----        ----        ------- ----- ------------
_CODE                               00000200    00002076 =        8310. bytes (REL,CON)

      Value  Global                              Global Defined In Module
      -----  --------------------------------   ------------------------
     000013E9  XG$screen_number_screen_load$0$0   number_screen
     000013EA  Fnumber_screen$__str_0$0$0         number_screen
     000013FA  A$number_screen$85                 number_screen
     000013FA  C$number_screen.c$10$1$5           number_screen
     000013FA  C$number_screen.c$12$1$7           number_screen
     000013FA  G$screen_number_screen_update$0$   number_screen
     000013FA  _screen_number_screen_update       number_screen
     000013FB  A$number_screen$86                 number_screen
     000013FC  A$number_screen$87                 number_screen
     000013FD  A$number_screen$88                 number_screen
     000013FE  A$number_screen$89                 number_screen
     00001400  A$number_screen$94                 number_screen
     00001400  C$number_screen.c$13$1$7           number_screen
     00001400  XG$screen_number_screen_update$0   number_screen
     00001401  A$over_screen$57                   over_screen
     00001401  C$over_screen.c$5$0$0              over_screen
     00001401  C$over_screen.c$7$1$5              over_screen
     00001401  G$screen_over_screen_load$0$0      over_screen
     00001401  _screen_over_screen_load           over_screen
     00001404  A$over_screen$58                   over_screen
     00001405  A$over_screen$59                   over_screen
     00001408  A$over_screen$60                   over_screen
     00001409  A$over_screen$61                   over_screen
     0000140C  A$over_screen$62                   over_screen
     0000140D  A$over_screen$63                   over_screen
     0000140E  A$over_screen$68                   over_screen
     0000140E  C$over_screen.c$8$1$5              over_screen
     0000140E  XG$screen_over_screen_load$0$0     over_screen
     0000140F  Fover_screen$__str_0$0$0           over_screen
     0000141D  A$over_screen$85                   over_screen
     0000141D  C$over_screen.c$10$1$5             over_screen
     0000141D  C$over_screen.c$12$1$7             over_screen
     0000141D  G$screen_over_screen_update$0$0    over_screen
     0000141D  _screen_over_screen_update         over_screen
     0000141E  A$over_screen$86                   over_screen
     0000141F  A$over_screen$87                   over_screen
     00001420  A$over_screen$88                   over_screen
     00001421  A$over_screen$89                   over_screen
     00001423  A$over_screen$94                   over_screen
     00001423  C$over_screen.c$13$1$7             over_screen
     00001423  XG$screen_over_screen_update$0$0   over_screen
     00001424  A$play_screen$57                   play_screen
     00001424  C$play_screen.c$5$0$0              play_screen
     00001424  C$play_screen.c$7$1$5              play_screen
     00001424  G$screen_play_screen_load$0$0      play_screen
     00001424  _screen_play_screen_load           play_screen
     00001427  A$play_screen$58                   play_screen
     00001428  A$play_screen$59                   play_screen
     0000142B  A$play_screen$60                   play_screen
     0000142C  A$play_screen$61                   play_screen
     0000142F  A$play_screen$62                   play_screen
ASxxxx Linker V03.00 + NoICE + sdld,  page 54.
Hexadecimal  [32-Bits]

Area                                    Addr        Size        Decimal Bytes (Attributes)
--------------------------------        ----        ----        ------- ----- ------------
_CODE                               00000200    00002076 =        8310. bytes (REL,CON)

      Value  Global                              Global Defined In Module
      -----  --------------------------------   ------------------------
     00001430  A$play_screen$63                   play_screen
     00001431  A$play_screen$68                   play_screen
     00001431  C$play_screen.c$8$1$5              play_screen
     00001431  XG$screen_play_screen_load$0$0     play_screen
     00001432  Fplay_screen$__str_0$0$0           play_screen
     00001440  A$play_screen$85                   play_screen
     00001440  C$play_screen.c$10$1$5             play_screen
     00001440  C$play_screen.c$12$1$7             play_screen
     00001440  G$screen_play_screen_update$0$0    play_screen
     00001440  _screen_play_screen_update         play_screen
     00001441  A$play_screen$86                   play_screen
     00001442  A$play_screen$87                   play_screen
     00001443  A$play_screen$88                   play_screen
     00001444  A$play_screen$89                   play_screen
     00001446  A$play_screen$94                   play_screen
     00001446  C$play_screen.c$13$1$7             play_screen
     00001446  XG$screen_play_screen_update$0$0   play_screen
     00001447  A$quiz_screen$57                   quiz_screen
     00001447  C$quiz_screen.c$5$0$0              quiz_screen
     00001447  C$quiz_screen.c$7$1$5              quiz_screen
     00001447  G$screen_quiz_screen_load$0$0      quiz_screen
     00001447  _screen_quiz_screen_load           quiz_screen
     0000144A  A$quiz_screen$58                   quiz_screen
     0000144B  A$quiz_screen$59                   quiz_screen
     0000144E  A$quiz_screen$60                   quiz_screen
     0000144F  A$quiz_screen$61                   quiz_screen
     00001452  A$quiz_screen$62                   quiz_screen
     00001453  A$quiz_screen$63                   quiz_screen
     00001454  A$quiz_screen$68                   quiz_screen
     00001454  C$quiz_screen.c$8$1$5              quiz_screen
     00001454  XG$screen_quiz_screen_load$0$0     quiz_screen
     00001455  Fquiz_screen$__str_0$0$0           quiz_screen
     00001463  A$quiz_screen$85                   quiz_screen
     00001463  C$quiz_screen.c$10$1$5             quiz_screen
     00001463  C$quiz_screen.c$12$1$7             quiz_screen
     00001463  G$screen_quiz_screen_update$0$0    quiz_screen
     00001463  _screen_quiz_screen_update         quiz_screen
     00001464  A$quiz_screen$86                   quiz_screen
     00001465  A$quiz_screen$87                   quiz_screen
     00001466  A$quiz_screen$88                   quiz_screen
     00001467  A$quiz_screen$89                   quiz_screen
     00001469  A$quiz_screen$94                   quiz_screen
     00001469  C$quiz_screen.c$13$1$7             quiz_screen
     00001469  XG$screen_quiz_screen_update$0$0   quiz_screen
     0000146A  A$ready_screen$57                  ready_screen
     0000146A  C$ready_screen.c$5$0$0             ready_screen
     0000146A  C$ready_screen.c$7$1$5             ready_screen
     0000146A  G$screen_ready_screen_load$0$0     ready_screen
     0000146A  _screen_ready_screen_load          ready_screen
     0000146D  A$ready_screen$58                  ready_screen
     0000146E  A$ready_screen$59                  ready_screen
ASxxxx Linker V03.00 + NoICE + sdld,  page 55.
Hexadecimal  [32-Bits]

Area                                    Addr        Size        Decimal Bytes (Attributes)
--------------------------------        ----        ----        ------- ----- ------------
_CODE                               00000200    00002076 =        8310. bytes (REL,CON)

      Value  Global                              Global Defined In Module
      -----  --------------------------------   ------------------------
     00001471  A$ready_screen$60                  ready_screen
     00001472  A$ready_screen$61                  ready_screen
     00001475  A$ready_screen$62                  ready_screen
     00001476  A$ready_screen$63                  ready_screen
     00001477  A$ready_screen$68                  ready_screen
     00001477  C$ready_screen.c$8$1$5             ready_screen
     00001477  XG$screen_ready_screen_load$0$0    ready_screen
     00001478  Fready_screen$__str_0$0$0          ready_screen
     00001487  A$ready_screen$85                  ready_screen
     00001487  C$ready_screen.c$10$1$5            ready_screen
     00001487  C$ready_screen.c$12$1$7            ready_screen
     00001487  G$screen_ready_screen_update$0$0   ready_screen
     00001487  _screen_ready_screen_update        ready_screen
     00001488  A$ready_screen$86                  ready_screen
     00001489  A$ready_screen$87                  ready_screen
     0000148A  A$ready_screen$88                  ready_screen
     0000148B  A$ready_screen$89                  ready_screen
     0000148D  A$ready_screen$94                  ready_screen
     0000148D  C$ready_screen.c$13$1$7            ready_screen
     0000148D  XG$screen_ready_screen_update$0$   ready_screen
     0000148E  A$score_screen$57                  score_screen
     0000148E  C$score_screen.c$5$0$0             score_screen
     0000148E  C$score_screen.c$7$1$5             score_screen
     0000148E  G$screen_score_screen_load$0$0     score_screen
     0000148E  _screen_score_screen_load          score_screen
     00001491  A$score_screen$58                  score_screen
     00001492  A$score_screen$59                  score_screen
     00001495  A$score_screen$60                  score_screen
     00001496  A$score_screen$61                  score_screen
     00001499  A$score_screen$62                  score_screen
     0000149A  A$score_screen$63                  score_screen
     0000149B  A$score_screen$68                  score_screen
     0000149B  C$score_screen.c$8$1$5             score_screen
     0000149B  XG$screen_score_screen_load$0$0    score_screen
     0000149C  Fscore_screen$__str_0$0$0          score_screen
     000014AB  A$score_screen$85                  score_screen
     000014AB  C$score_screen.c$10$1$5            score_screen
     000014AB  C$score_screen.c$12$1$7            score_screen
     000014AB  G$screen_score_screen_update$0$0   score_screen
     000014AB  _screen_score_screen_update        score_screen
     000014AC  A$score_screen$86                  score_screen
     000014AD  A$score_screen$87                  score_screen
     000014AE  A$score_screen$88                  score_screen
     000014AF  A$score_screen$89                  score_screen
     000014B1  A$score_screen$94                  score_screen
     000014B1  C$score_screen.c$13$1$7            score_screen
     000014B1  XG$screen_score_screen_update$0$   score_screen
     000014B2  A$splash_screen$58                 splash_screen
     000014B2  C$splash_screen.c$6$0$0            splash_screen
     000014B2  C$splash_screen.c$8$1$5            splash_screen
     000014B2  G$screen_splash_screen_load$0$0    splash_screen
ASxxxx Linker V03.00 + NoICE + sdld,  page 56.
Hexadecimal  [32-Bits]

Area                                    Addr        Size        Decimal Bytes (Attributes)
--------------------------------        ----        ----        ------- ----- ------------
_CODE                               00000200    00002076 =        8310. bytes (REL,CON)

      Value  Global                              Global Defined In Module
      -----  --------------------------------   ------------------------
     000014B2  _screen_splash_screen_load         splash_screen
     000014B5  A$splash_screen$62                 splash_screen
     000014B5  C$splash_screen.c$9$1$5            splash_screen
     000014B8  A$splash_screen$63                 splash_screen
     000014B9  A$splash_screen$64                 splash_screen
     000014BC  A$splash_screen$65                 splash_screen
     000014BD  A$splash_screen$66                 splash_screen
     000014C0  A$splash_screen$67                 splash_screen
     000014C1  A$splash_screen$68                 splash_screen
     000014C2  A$splash_screen$73                 splash_screen
     000014C2  C$splash_screen.c$10$1$5           splash_screen
     000014C2  XG$screen_splash_screen_load$0$0   splash_screen
     000014C3  Fsplash_screen$__str_0$0$0         splash_screen
     000014D5  A$splash_screen$90                 splash_screen
     000014D5  C$splash_screen.c$12$1$5           splash_screen
     000014D5  C$splash_screen.c$14$1$7           splash_screen
     000014D5  G$screen_splash_screen_update$0$   splash_screen
     000014D5  _screen_splash_screen_update       splash_screen
     000014D6  A$splash_screen$91                 splash_screen
     000014D7  A$splash_screen$92                 splash_screen
     000014D8  A$splash_screen$93                 splash_screen
     000014D9  A$splash_screen$94                 splash_screen
     000014DB  A$splash_screen$99                 splash_screen
     000014DB  C$splash_screen.c$15$1$7           splash_screen
     000014DB  XG$screen_splash_screen_update$0   splash_screen
     000014DC  A$test_screen$67                   test_screen
     000014DC  C$test_screen.c$11$1$6             test_screen
     000014DC  C$test_screen.c$9$0$0              test_screen
     000014DC  G$screen_test_screen_load$0$0      test_screen
     000014DC  _screen_test_screen_load           test_screen
     000014DF  A$test_screen$68                   test_screen
     000014E0  A$test_screen$69                   test_screen
     000014E3  A$test_screen$70                   test_screen
     000014E4  A$test_screen$71                   test_screen
     000014E7  A$test_screen$72                   test_screen
     000014E8  A$test_screen$73                   test_screen
     000014E9  A$test_screen$78                   test_screen
     000014E9  C$test_screen.c$12$1$6             test_screen
     000014E9  XG$screen_test_screen_load$0$0     test_screen
     000014EA  Ftest_screen$__str_0$0$0           test_screen
     000014FA  A$test_screen$95                   test_screen
     000014FA  C$test_screen.c$14$1$6             test_screen
     000014FA  C$test_screen.c$16$1$8             test_screen
     000014FA  G$screen_test_screen_update$0$0    test_screen
     000014FA  _screen_test_screen_update         test_screen
     000014FD  A$test_screen$99                   test_screen
     000014FD  C$test_screen.c$17$1$8             test_screen
     000014FE  A$test_screen$100                  test_screen
     000014FF  A$test_screen$101                  test_screen
     00001501  A$test_screen$105                  test_screen
     00001501  C$test_screen.c$19$2$9             test_screen
ASxxxx Linker V03.00 + NoICE + sdld,  page 57.
Hexadecimal  [32-Bits]

Area                                    Addr        Size        Decimal Bytes (Attributes)
--------------------------------        ----        ----        ------- ----- ------------
_CODE                               00000200    00002076 =        8310. bytes (REL,CON)

      Value  Global                              Global Defined In Module
      -----  --------------------------------   ------------------------
     00001504  A$test_screen$106                  test_screen
     00001505  A$test_screen$107                  test_screen
     00001508  A$test_screen$108                  test_screen
     00001509  A$test_screen$109                  test_screen
     0000150C  A$test_screen$110                  test_screen
     0000150D  A$test_screen$111                  test_screen
     0000150E  A$test_screen$115                  test_screen
     0000150E  C$test_screen.c$20$2$9             test_screen
     0000150F  A$test_screen$116                  test_screen
     00001510  A$test_screen$117                  test_screen
     00001511  A$test_screen$118                  test_screen
     00001514  A$test_screen$119                  test_screen
     00001515  A$test_screen$120                  test_screen
     00001518  A$test_screen$125                  test_screen
     00001518  C$test_screen.c$24$2$10            test_screen
     0000151B  A$test_screen$129                  test_screen
     0000151B  C$test_screen.c$25$2$10            test_screen
     0000151C  A$test_screen$130                  test_screen
     0000151D  A$test_screen$131                  test_screen
     0000151F  A$test_screen$135                  test_screen
     0000151F  C$test_screen.c$27$3$11            test_screen
     00001522  A$test_screen$136                  test_screen
     00001523  A$test_screen$137                  test_screen
     00001526  A$test_screen$138                  test_screen
     00001527  A$test_screen$139                  test_screen
     0000152A  A$test_screen$140                  test_screen
     0000152B  A$test_screen$144                  test_screen
     0000152B  C$test_screen.c$28$3$11            test_screen
     0000152D  A$test_screen$145                  test_screen
     0000152E  A$test_screen$146                  test_screen
     0000152F  A$test_screen$147                  test_screen
     00001532  A$test_screen$148                  test_screen
     00001533  A$test_screen$149                  test_screen
     00001535  A$test_screen$154                  test_screen
     00001535  C$test_screen.c$32$3$12            test_screen
     00001538  A$test_screen$158                  test_screen
     00001538  C$test_screen.c$33$3$12            test_screen
     00001539  A$test_screen$159                  test_screen
     0000153A  A$test_screen$160                  test_screen
     0000153C  A$test_screen$164                  test_screen
     0000153C  C$test_screen.c$35$4$13            test_screen
     0000153F  A$test_screen$165                  test_screen
     00001540  A$test_screen$166                  test_screen
     00001543  A$test_screen$167                  test_screen
     00001544  A$test_screen$168                  test_screen
     00001547  A$test_screen$169                  test_screen
     00001548  A$test_screen$173                  test_screen
     00001548  C$test_screen.c$36$4$13            test_screen
     0000154A  A$test_screen$174                  test_screen
     0000154B  A$test_screen$175                  test_screen
     0000154C  A$test_screen$176                  test_screen
ASxxxx Linker V03.00 + NoICE + sdld,  page 58.
Hexadecimal  [32-Bits]

Area                                    Addr        Size        Decimal Bytes (Attributes)
--------------------------------        ----        ----        ------- ----- ------------
_CODE                               00000200    00002076 =        8310. bytes (REL,CON)

      Value  Global                              Global Defined In Module
      -----  --------------------------------   ------------------------
     0000154F  A$test_screen$177                  test_screen
     00001550  A$test_screen$178                  test_screen
     00001552  A$test_screen$183                  test_screen
     00001552  C$test_screen.c$40$4$14            test_screen
     00001555  A$test_screen$187                  test_screen
     00001555  C$test_screen.c$41$4$14            test_screen
     00001556  A$test_screen$188                  test_screen
     00001557  A$test_screen$189                  test_screen
     00001559  A$test_screen$193                  test_screen
     00001559  C$test_screen.c$43$5$15            test_screen
     0000155C  A$test_screen$194                  test_screen
     0000155D  A$test_screen$195                  test_screen
     00001560  A$test_screen$196                  test_screen
     00001561  A$test_screen$197                  test_screen
     00001564  A$test_screen$198                  test_screen
     00001565  A$test_screen$202                  test_screen
     00001565  C$test_screen.c$44$5$15            test_screen
     00001567  A$test_screen$203                  test_screen
     00001568  A$test_screen$204                  test_screen
     00001569  A$test_screen$205                  test_screen
     0000156C  A$test_screen$206                  test_screen
     0000156D  A$test_screen$207                  test_screen
     0000156F  A$test_screen$212                  test_screen
     0000156F  C$test_screen.c$48$5$16            test_screen
     00001572  A$test_screen$216                  test_screen
     00001572  C$test_screen.c$49$5$16            test_screen
     00001573  A$test_screen$217                  test_screen
     00001574  A$test_screen$218                  test_screen
     00001576  A$test_screen$222                  test_screen
     00001576  C$test_screen.c$51$6$17            test_screen
     00001579  A$test_screen$223                  test_screen
     0000157A  A$test_screen$224                  test_screen
     0000157D  A$test_screen$225                  test_screen
     0000157E  A$test_screen$226                  test_screen
     00001581  A$test_screen$227                  test_screen
     00001582  A$test_screen$231                  test_screen
     00001582  C$test_screen.c$52$6$17            test_screen
     00001584  A$test_screen$232                  test_screen
     00001585  A$test_screen$233                  test_screen
     00001586  A$test_screen$234                  test_screen
     00001589  A$test_screen$235                  test_screen
     0000158A  A$test_screen$236                  test_screen
     0000158C  A$test_screen$241                  test_screen
     0000158C  C$test_screen.c$56$6$18            test_screen
     0000158F  A$test_screen$245                  test_screen
     0000158F  C$test_screen.c$57$6$18            test_screen
     00001590  A$test_screen$246                  test_screen
     00001591  A$test_screen$247                  test_screen
     00001593  A$test_screen$251                  test_screen
     00001593  C$test_screen.c$59$7$19            test_screen
     00001596  A$test_screen$252                  test_screen
ASxxxx Linker V03.00 + NoICE + sdld,  page 59.
Hexadecimal  [32-Bits]

Area                                    Addr        Size        Decimal Bytes (Attributes)
--------------------------------        ----        ----        ------- ----- ------------
_CODE                               00000200    00002076 =        8310. bytes (REL,CON)

      Value  Global                              Global Defined In Module
      -----  --------------------------------   ------------------------
     00001597  A$test_screen$253                  test_screen
     0000159A  A$test_screen$254                  test_screen
     0000159B  A$test_screen$255                  test_screen
     0000159E  A$test_screen$256                  test_screen
     0000159F  A$test_screen$260                  test_screen
     0000159F  C$test_screen.c$60$7$19            test_screen
     000015A1  A$test_screen$261                  test_screen
     000015A2  A$test_screen$262                  test_screen
     000015A3  A$test_screen$263                  test_screen
     000015A6  A$test_screen$264                  test_screen
     000015A7  A$test_screen$269                  test_screen
     000015A7  C$test_screen.c$68$1$8             test_screen
     000015A8  A$test_screen$270                  test_screen
     000015A9  A$test_screen$271                  test_screen
     000015AA  A$test_screen$272                  test_screen
     000015AB  A$test_screen$273                  test_screen
     000015AD  A$test_screen$278                  test_screen
     000015AD  C$test_screen.c$69$1$8             test_screen
     000015AD  XG$screen_test_screen_update$0$0   test_screen
     000015AE  Ftest_screen$__str_1$0$0           test_screen
     000015BA  Ftest_screen$__str_2$0$0           test_screen
     000015C6  Ftest_screen$__str_3$0$0           test_screen
     000015D2  Ftest_screen$__str_4$0$0           test_screen
     000015DE  Ftest_screen$__str_5$0$0           test_screen
     000015EA  Ftest_screen$__str_6$0$0           test_screen
     000015F6  A$title_screen$60                  title_screen
     000015F6  C$title_screen.c$10$1$23           title_screen
     000015F6  C$title_screen.c$8$0$0             title_screen
     000015F6  G$screen_title_screen_load$0$0     title_screen
     000015F6  _screen_title_screen_load          title_screen
     000015F9  A$title_screen$64                  title_screen
     000015F9  C$title_screen.c$11$1$23           title_screen
     000015FC  A$title_screen$68                  title_screen
     000015FC  C$title_screen.c$12$1$23           title_screen
     000015FF  A$title_screen$69                  title_screen
     00001600  A$title_screen$70                  title_screen
     00001603  A$title_screen$71                  title_screen
     00001604  A$title_screen$72                  title_screen
     00001607  A$title_screen$73                  title_screen
     00001608  A$title_screen$74                  title_screen
     00001609  A$title_screen$82                  title_screen
     00001609  C$title_screen.c$13$1$23           title_screen
     00001609  C$title_screen.c$15$1$23           title_screen
     00001609  XG$screen_title_screen_load$0$0    title_screen
     0000160C  Ftitle_screen$__str_0$0$0          title_screen
     00001611  A$title_screen$99                  title_screen
     00001611  C$title_screen.c$17$1$23           title_screen
     00001611  C$title_screen.c$19$1$25           title_screen
     00001611  G$screen_title_screen_update$0$0   title_screen
     00001611  _screen_title_screen_update        title_screen
     00001612  A$title_screen$100                 title_screen
ASxxxx Linker V03.00 + NoICE + sdld,  page 60.
Hexadecimal  [32-Bits]

Area                                    Addr        Size        Decimal Bytes (Attributes)
--------------------------------        ----        ----        ------- ----- ------------
_CODE                               00000200    00002076 =        8310. bytes (REL,CON)

      Value  Global                              Global Defined In Module
      -----  --------------------------------   ------------------------
     00001613  A$title_screen$101                 title_screen
     00001614  A$title_screen$102                 title_screen
     00001615  A$title_screen$103                 title_screen
     00001617  A$title_screen$108                 title_screen
     00001617  C$title_screen.c$20$1$25           title_screen
     00001617  XG$screen_title_screen_update$0$   title_screen
     00001618  G$font__palette__bin$0$0           gfx
     00001618  _font__palette__bin                gfx
     00001628  G$font__tilemap__bin$0$0           gfx
     00001628  _font__tilemap__bin                gfx
     000016A8  G$font__tiles__psgcompr$0$0        gfx
     000016A8  _font__tiles__psgcompr             gfx
     0000193F  G$right__palette__bin$0$0          gfx
     0000193F  _right__palette__bin               gfx
     0000194F  G$right__tiles__psgcompr$0$0       gfx
     0000194F  _right__tiles__psgcompr            gfx
     000019FE  G$select__palette__bin$0$0         gfx
     000019FE  _select__palette__bin              gfx
     00001A09  G$select__tiles__psgcompr$0$0      gfx
     00001A09  _select__tiles__psgcompr           gfx
     00001AAF  G$wrong__palette__bin$0$0          gfx
     00001AAF  _wrong__palette__bin               gfx
     00001ABF  G$wrong__tiles__psgcompr$0$0       gfx
     00001ABF  _wrong__tiles__psgcompr            gfx
     00001B73  G$sfx_cheat_psg$0$0                psg
     00001B73  _sfx_cheat_psg                     psg
     00001B96  G$sfx_right_psg$0$0                psg
     00001B96  _sfx_right_psg                     psg
     00001BB6  G$sfx_wrong_psg$0$0                psg
     00001BB6  _sfx_wrong_psg                     psg
     00001BD9  __divuint                          
     00001BE1  __divuchar                         
     00001BE8  __divu8                            
     00001BEB  __divu16                           
     00001C1A  _UNSAFE_SMS_copySpritestoSAT       SMSlib_UNSAFE
     00001C32  _UNSAFE_SMS_VRAMmemcpy32           SMSlib_UNSAFE
     00001C4F  _UNSAFE_SMS_VRAMmemcpy64           SMSlib_UNSAFE
     00001C6C  _UNSAFE_SMS_VRAMmemcpy128          SMSlib_UNSAFE
     00001C89  _SMS_init                          SMSlib
     00001CDD  _VDPReg_init                       SMSlib
     00001CE8  _SMS_VDPType                       SMSlib
     00001CF0  _SMS_VDPturnOnFeature              SMSlib
     00001D07  _SMS_VDPturnOffFeature             SMSlib
     00001D20  _SMS_setBGScrollX                  SMSlib
     00001D2A  _SMS_setBGScrollY                  SMSlib
     00001D34  _SMS_setBackdropColor              SMSlib
     00001D3E  _SMS_useFirstHalfTilesforSprites   SMSlib
     00001D52  _SMS_setSpriteMode                 SMSlib
     00001D97  _SMS_setBGPaletteColor             SMSlib
     00001DAB  _SMS_setSpritePaletteColor         SMSlib
     00001DBF  _SMS_loadBGPalette                 SMSlib
ASxxxx Linker V03.00 + NoICE + sdld,  page 61.
Hexadecimal  [32-Bits]

Area                                    Addr        Size        Decimal Bytes (Attributes)
--------------------------------        ----        ----        ------- ----- ------------
_CODE                               00000200    00002076 =        8310. bytes (REL,CON)

      Value  Global                              Global Defined In Module
      -----  --------------------------------   ------------------------
     00001DD3  _SMS_loadSpritePalette             SMSlib
     00001DE7  _SMS_setColor                      SMSlib
     00001DEB  _SMS_initSprites                   SMSlib
     00001DF1  _SMS_addSprite                     SMSlib
     00001E46  _SMS_finalizeSprites               SMSlib
     00001E58  _SMS_copySpritestoSAT              SMSlib
     00001E81  _SMS_waitForVBlank                 SMSlib
     00001E8E  _SMS_getKeysStatus                 SMSlib
     00001E92  _SMS_getKeysPressed                SMSlib
     00001EAF  _SMS_getKeysHeld                   SMSlib
     00001EC6  _SMS_getKeysReleased               SMSlib
     00001EE3  _SMS_queryPauseRequested           SMSlib
     00001EEB  _SMS_resetPauseRequest             SMSlib
     00001EF1  _SMS_setLineInterruptHandler       SMSlib
     00001F02  _SMS_setLineCounter                SMSlib
     00001F11  _SMS_getVCount                     SMSlib
     00001F15  _SMS_getHCount                     SMSlib
     00001F19  _SMS_isr                           SMSlib
     00001F4F  _SMS_nmi_isr                       SMSlib
     00001F62  _SMS_loadSTMcompressedTileMapAre   SMSlib_STMcomp
     00002143  ___sdcc_call_hl                    
     00002144  _SMS_loadPSGaidencompressedTiles   SMSlib_PSGaiden
     00002226  _SMS_loadTileMap                   SMSlib_loadTileMap
     0000225F  __moduchar                         
     0000226B  __moduint                          
ASxxxx Linker V03.00 + NoICE + sdld,  page 62.
Hexadecimal  [32-Bits]

Area                                    Addr        Size        Decimal Bytes (Attributes)
--------------------------------        ----        ----        ------- ----- ------------
_HEADER0                            00000000    00000006 =           6. bytes (ABS,CON)

      Value  Global                              Global Defined In Module
      -----  --------------------------------   ------------------------
     00000006  _SMS_crt0_RST08                    crt0

ASxxxx Linker V03.00 + NoICE + sdld,  page 63.
Hexadecimal  [32-Bits]

Area                                    Addr        Size        Decimal Bytes (Attributes)
--------------------------------        ----        ----        ------- ----- ------------
_HEADER1                            00000000    00000009 =           9. bytes (ABS,CON)

      Value  Global                              Global Defined In Module
      -----  --------------------------------   ------------------------
     00000011  _SMS_crt0_RST18                    crt0

ASxxxx Linker V03.00 + NoICE + sdld,  page 64.
Hexadecimal  [32-Bits]

Area                                    Addr        Size        Decimal Bytes (Attributes)
--------------------------------        ----        ----        ------- ----- ------------
_HEADER2                            00000000    0000000A =          10. bytes (ABS,CON)

      Value  Global                              Global Defined In Module
      -----  --------------------------------   ------------------------
ASxxxx Linker V03.00 + NoICE + sdld,  page 65.
Hexadecimal  [32-Bits]

Area                                    Addr        Size        Decimal Bytes (Attributes)
--------------------------------        ----        ----        ------- ----- ------------
_HEADER3                            00000000    00000003 =           3. bytes (ABS,CON)

      Value  Global                              Global Defined In Module
      -----  --------------------------------   ------------------------
ASxxxx Linker V03.00 + NoICE + sdld,  page 66.
Hexadecimal  [32-Bits]

Area                                    Addr        Size        Decimal Bytes (Attributes)
--------------------------------        ----        ----        ------- ----- ------------
_HEADER4                            00000000    00000003 =           3. bytes (ABS,CON)

      Value  Global                              Global Defined In Module
      -----  --------------------------------   ------------------------
ASxxxx Linker V03.00 + NoICE + sdld,  page 67.
Hexadecimal  [32-Bits]

Area                                    Addr        Size        Decimal Bytes (Attributes)
--------------------------------        ----        ----        ------- ----- ------------
_HEADER5                            00000000    0000012A =         298. bytes (ABS,CON)

      Value  Global                              Global Defined In Module
      -----  --------------------------------   ------------------------
     00000099  _OUTI128                           crt0
     00000119  _OUTI64                            crt0
     00000159  _OUTI32                            crt0
     00000199  _outi_block                        crt0

ASxxxx Linker V03.00 + NoICE + sdld,  page 68.
Hexadecimal  [32-Bits]

Area                                    Addr        Size        Decimal Bytes (Attributes)
--------------------------------        ----        ----        ------- ----- ------------
_INITIALIZER                        00002276    00000016 =          22. bytes (REL,CON)

      Value  Global                              Global Defined In Module
      -----  --------------------------------   ------------------------
     00002276  Finput_manager$__xinit_curr_joyp   input_manager
     00002278  Finput_manager$__xinit_prev_joyp   input_manager
     0000227A  Fsound_object$__xinit_sound_samp   sound_object
     00002286  Ffunc_screen$__xinit_index$0$0     func_screen
     00002287  Ftest_screen$__xinit_index$0$0     test_screen

ASxxxx Linker V03.00 + NoICE + sdld,  page 69.
Hexadecimal  [32-Bits]

Area                                    Addr        Size        Decimal Bytes (Attributes)
--------------------------------        ----        ----        ------- ----- ------------
_GSINIT                             0000228C    0000000F =          15. bytes (REL,CON)

      Value  Global                              Global Defined In Module
      -----  --------------------------------   ------------------------
     0000228C  gsinit                             crt0

ASxxxx Linker V03.00 + NoICE + sdld,  page 70.
Hexadecimal  [32-Bits]

Area                                    Addr        Size        Decimal Bytes (Attributes)
--------------------------------        ----        ----        ------- ----- ------------
_GSFINAL                            0000229B    00000001 =           1. bytes (REL,CON)

      Value  Global                              Global Defined In Module
      -----  --------------------------------   ------------------------
ASxxxx Linker V03.00 + NoICE + sdld,  page 71.
Hexadecimal  [32-Bits]

Area                                    Addr        Size        Decimal Bytes (Attributes)
--------------------------------        ----        ----        ------- ----- ------------
_DATA                               0000C000    00000171 =         369. bytes (REL,CON)

      Value  Global                              Global Defined In Module
      -----  --------------------------------   ------------------------
     0000C000  _PSGMusicStatus                    PSGlib
     0000C001  _PSGMusicStart                     PSGlib
     0000C003  _PSGMusicPointer                   PSGlib
     0000C005  _PSGMusicLoopPoint                 PSGlib
     0000C007  _PSGMusicSkipFrames                PSGlib
     0000C008  _PSGLoopFlag                       PSGlib
     0000C009  _PSGMusicLastLatch                 PSGlib
     0000C00A  _PSGMusicVolumeAttenuation         PSGlib
     0000C00B  _PSGMusicSubstringLen              PSGlib
     0000C00C  _PSGMusicSubstringRetAddr          PSGlib
     0000C00E  _PSGChan0Volume                    PSGlib
     0000C00F  _PSGChan1Volume                    PSGlib
     0000C010  _PSGChan2Volume                    PSGlib
     0000C011  _PSGChan3Volume                    PSGlib
     0000C012  _PSGChan2LowTone                   PSGlib
     0000C013  _PSGChan2HighTone                  PSGlib
     0000C014  _PSGChan3LowTone                   PSGlib
     0000C015  _PSGChannel2SFX                    PSGlib
     0000C016  _PSGChannel3SFX                    PSGlib
     0000C017  _PSGSFXChan2Volume                 PSGlib
     0000C018  _PSGSFXChan3Volume                 PSGlib
     0000C019  _PSGSFXStatus                      PSGlib
     0000C01A  _PSGSFXStart                       PSGlib
     0000C01C  _PSGSFXPointer                     PSGlib
     0000C01E  _PSGSFXLoopPoint                   PSGlib
     0000C020  _PSGSFXSkipFrames                  PSGlib
     0000C021  _PSGSFXLoopFlag                    PSGlib
     0000C022  _PSGSFXSubstringLen                PSGlib
     0000C023  _PSGSFXSubstringRetAddr            PSGlib
     0000C025  Factor_manager$draw_method$0$0     actor_manager
     0000C045  Fscreen_manager$curr_screen_type   screen_manager
     0000C046  Fscreen_manager$next_screen_type   screen_manager
     0000C047  Fscreen_manager$load_method$0$0    screen_manager
     0000C065  Fscreen_manager$update_method$0$   screen_manager
     0000C083  G$screen_bases_screen_count$0$0    timer_object
     0000C083  _screen_bases_screen_count         timer_object
     0000C084  G$screen_bases_screen_timer$0$0    timer_object
     0000C084  _screen_bases_screen_timer         timer_object
     0000C086  _VDPBlank                          SMSlib
     0000C087  _SMS_VDPFlags                      SMSlib
     0000C088  _PauseRequested                    SMSlib
     0000C089  _VDPType                           SMSlib
     0000C08A  _KeysStatus                        SMSlib
     0000C08C  _PreviousKeysStatus                SMSlib
     0000C08E  _SpriteTableY                      SMSlib
     0000C0CE  _SpriteTableXN                     SMSlib
     0000C14E  _SpriteNextFree                    SMSlib
     0000C14F  _SMS_theLineInterruptHandler       SMSlib
     0000C151  _decompBuffer                      SMSlib_PSGaiden

ASxxxx Linker V03.00 + NoICE + sdld,  page 72.
Hexadecimal  [32-Bits]

Area                                    Addr        Size        Decimal Bytes (Attributes)
--------------------------------        ----        ----        ------- ----- ------------
_INITIALIZED                        0000C171    00000016 =          22. bytes (REL,CON)

      Value  Global                              Global Defined In Module
      -----  --------------------------------   ------------------------
     0000C171  Finput_manager$curr_joypad1$0$0    input_manager
     0000C173  Finput_manager$prev_joypad1$0$0    input_manager
     0000C175  G$sound_sample_data$0$0            sound_object
     0000C175  _sound_sample_data                 sound_object
     0000C181  Ffunc_screen$index$0$0             func_screen
     0000C182  Ftest_screen$index$0$0             test_screen
     0000C183  _VDPReg                            SMSlib
     0000C185  _spritesHeight                     SMSlib
     0000C186  _spritesWidth                      SMSlib
ASxxxx Linker V03.00 + NoICE + sdld,  page 73.
Hexadecimal  [32-Bits]

Area                                    Addr        Size        Decimal Bytes (Attributes)
--------------------------------        ----        ----        ------- ----- ------------
_BANK2                              00008000    00003C8C =       15500. bytes (REL,CON)

      Value  Global                              Global Defined In Module
      -----  --------------------------------   ------------------------
     00008000  G$bank2_quiz_line1$0$0             bank2
     00008000  _bank2_quiz_line1                  bank2
     0000860E  G$bank2_quiz_line2$0$0             bank2
     0000860E  _bank2_quiz_line2                  bank2
     00008C1C  G$bank2_quiz_line3$0$0             bank2
     00008C1C  _bank2_quiz_line3                  bank2
     0000922A  G$bank2_opt1_line1$0$0             bank2
     0000922A  _bank2_opt1_line1                  bank2
     000095AE  G$bank2_opt1_line2$0$0             bank2
     000095AE  _bank2_opt1_line2                  bank2
     00009932  G$bank2_opt1_line3$0$0             bank2
     00009932  _bank2_opt1_line3                  bank2
     00009CB6  G$bank2_opt2_line1$0$0             bank2
     00009CB6  _bank2_opt2_line1                  bank2
     0000A03A  G$bank2_opt2_line2$0$0             bank2
     0000A03A  _bank2_opt2_line2                  bank2
     0000A3BE  G$bank2_opt2_line3$0$0             bank2
     0000A3BE  _bank2_opt2_line3                  bank2
     0000A742  G$bank2_opt3_line1$0$0             bank2
     0000A742  _bank2_opt3_line1                  bank2
     0000AAC6  G$bank2_opt3_line2$0$0             bank2
     0000AAC6  _bank2_opt3_line2                  bank2
     0000AE4A  G$bank2_opt3_line3$0$0             bank2
     0000AE4A  _bank2_opt3_line3                  bank2
     0000B1CE  G$bank2_opt4_line1$0$0             bank2
     0000B1CE  _bank2_opt4_line1                  bank2
     0000B552  G$bank2_opt4_line2$0$0             bank2
     0000B552  _bank2_opt4_line2                  bank2
     0000B8D6  G$bank2_opt4_line3$0$0             bank2
     0000B8D6  _bank2_opt4_line3                  bank2
     0000BC5A  G$bank2_soln$0$0                   bank2
     0000BC5A  _bank2_soln                        bank2

ASxxxx Linker V03.00 + NoICE + sdld,  page 74.
Hexadecimal  [32-Bits]

Area                                    Addr        Size        Decimal Bytes (Attributes)
--------------------------------        ----        ----        ------- ----- ------------
_BANK3                              00008000    00003C8C =       15500. bytes (REL,CON)

      Value  Global                              Global Defined In Module
      -----  --------------------------------   ------------------------
     00008000  G$bank3_quiz_line1$0$0             bank3
     00008000  _bank3_quiz_line1                  bank3
     0000860E  G$bank3_quiz_line2$0$0             bank3
     0000860E  _bank3_quiz_line2                  bank3
     00008C1C  G$bank3_quiz_line3$0$0             bank3
     00008C1C  _bank3_quiz_line3                  bank3
     0000922A  G$bank3_opt1_line1$0$0             bank3
     0000922A  _bank3_opt1_line1                  bank3
     000095AE  G$bank3_opt1_line2$0$0             bank3
     000095AE  _bank3_opt1_line2                  bank3
     00009932  G$bank3_opt1_line3$0$0             bank3
     00009932  _bank3_opt1_line3                  bank3
     00009CB6  G$bank3_opt2_line1$0$0             bank3
     00009CB6  _bank3_opt2_line1                  bank3
     0000A03A  G$bank3_opt2_line2$0$0             bank3
     0000A03A  _bank3_opt2_line2                  bank3
     0000A3BE  G$bank3_opt2_line3$0$0             bank3
     0000A3BE  _bank3_opt2_line3                  bank3
     0000A742  G$bank3_opt3_line1$0$0             bank3
     0000A742  _bank3_opt3_line1                  bank3
     0000AAC6  G$bank3_opt3_line2$0$0             bank3
     0000AAC6  _bank3_opt3_line2                  bank3
     0000AE4A  G$bank3_opt3_line3$0$0             bank3
     0000AE4A  _bank3_opt3_line3                  bank3
     0000B1CE  G$bank3_opt4_line1$0$0             bank3
     0000B1CE  _bank3_opt4_line1                  bank3
     0000B552  G$bank3_opt4_line2$0$0             bank3
     0000B552  _bank3_opt4_line2                  bank3
     0000B8D6  G$bank3_opt4_line3$0$0             bank3
     0000B8D6  _bank3_opt4_line3                  bank3
     0000BC5A  G$bank3_soln$0$0                   bank3
     0000BC5A  _bank3_soln                        bank3

ASxxxx Linker V03.00 + NoICE + sdld,  page 75.
Hexadecimal  [32-Bits]

Area                                    Addr        Size        Decimal Bytes (Attributes)
--------------------------------        ----        ----        ------- ----- ------------
_BANK4                              00008000    00003C8C =       15500. bytes (REL,CON)

      Value  Global                              Global Defined In Module
      -----  --------------------------------   ------------------------
     00008000  G$bank4_quiz_line1$0$0             bank4
     00008000  _bank4_quiz_line1                  bank4
     0000860E  G$bank4_quiz_line2$0$0             bank4
     0000860E  _bank4_quiz_line2                  bank4
     00008C1C  G$bank4_quiz_line3$0$0             bank4
     00008C1C  _bank4_quiz_line3                  bank4
     0000922A  G$bank4_opt1_line1$0$0             bank4
     0000922A  _bank4_opt1_line1                  bank4
     000095AE  G$bank4_opt1_line2$0$0             bank4
     000095AE  _bank4_opt1_line2                  bank4
     00009932  G$bank4_opt1_line3$0$0             bank4
     00009932  _bank4_opt1_line3                  bank4
     00009CB6  G$bank4_opt2_line1$0$0             bank4
     00009CB6  _bank4_opt2_line1                  bank4
     0000A03A  G$bank4_opt2_line2$0$0             bank4
     0000A03A  _bank4_opt2_line2                  bank4
     0000A3BE  G$bank4_opt2_line3$0$0             bank4
     0000A3BE  _bank4_opt2_line3                  bank4
     0000A742  G$bank4_opt3_line1$0$0             bank4
     0000A742  _bank4_opt3_line1                  bank4
     0000AAC6  G$bank4_opt3_line2$0$0             bank4
     0000AAC6  _bank4_opt3_line2                  bank4
     0000AE4A  G$bank4_opt3_line3$0$0             bank4
     0000AE4A  _bank4_opt3_line3                  bank4
     0000B1CE  G$bank4_opt4_line1$0$0             bank4
     0000B1CE  _bank4_opt4_line1                  bank4
     0000B552  G$bank4_opt4_line2$0$0             bank4
     0000B552  _bank4_opt4_line2                  bank4
     0000B8D6  G$bank4_opt4_line3$0$0             bank4
     0000B8D6  _bank4_opt4_line3                  bank4
     0000BC5A  G$bank4_soln$0$0                   bank4
     0000BC5A  _bank4_soln                        bank4

ASxxxx Linker V03.00 + NoICE + sdld,  page 76.
Hexadecimal  [32-Bits]

Area                                    Addr        Size        Decimal Bytes (Attributes)
--------------------------------        ----        ----        ------- ----- ------------
_BANK5                              00008000    00003C8C =       15500. bytes (REL,CON)

      Value  Global                              Global Defined In Module
      -----  --------------------------------   ------------------------
     00008000  G$bank5_quiz_line1$0$0             bank5
     00008000  _bank5_quiz_line1                  bank5
     0000860E  G$bank5_quiz_line2$0$0             bank5
     0000860E  _bank5_quiz_line2                  bank5
     00008C1C  G$bank5_quiz_line3$0$0             bank5
     00008C1C  _bank5_quiz_line3                  bank5
     0000922A  G$bank5_opt1_line1$0$0             bank5
     0000922A  _bank5_opt1_line1                  bank5
     000095AE  G$bank5_opt1_line2$0$0             bank5
     000095AE  _bank5_opt1_line2                  bank5
     00009932  G$bank5_opt1_line3$0$0             bank5
     00009932  _bank5_opt1_line3                  bank5
     00009CB6  G$bank5_opt2_line1$0$0             bank5
     00009CB6  _bank5_opt2_line1                  bank5
     0000A03A  G$bank5_opt2_line2$0$0             bank5
     0000A03A  _bank5_opt2_line2                  bank5
     0000A3BE  G$bank5_opt2_line3$0$0             bank5
     0000A3BE  _bank5_opt2_line3                  bank5
     0000A742  G$bank5_opt3_line1$0$0             bank5
     0000A742  _bank5_opt3_line1                  bank5
     0000AAC6  G$bank5_opt3_line2$0$0             bank5
     0000AAC6  _bank5_opt3_line2                  bank5
     0000AE4A  G$bank5_opt3_line3$0$0             bank5
     0000AE4A  _bank5_opt3_line3                  bank5
     0000B1CE  G$bank5_opt4_line1$0$0             bank5
     0000B1CE  _bank5_opt4_line1                  bank5
     0000B552  G$bank5_opt4_line2$0$0             bank5
     0000B552  _bank5_opt4_line2                  bank5
     0000B8D6  G$bank5_opt4_line3$0$0             bank5
     0000B8D6  _bank5_opt4_line3                  bank5
     0000BC5A  G$bank5_soln$0$0                   bank5
     0000BC5A  _bank5_soln                        bank5

ASxxxx Linker V03.00 + NoICE + sdld,  page 77.
Hexadecimal  [32-Bits]

Area                                    Addr        Size        Decimal Bytes (Attributes)
--------------------------------        ----        ----        ------- ----- ------------
_BANK6                              00008000    00002713 =       10003. bytes (REL,CON)

      Value  Global                              Global Defined In Module
      -----  --------------------------------   ------------------------
     00008000  G$actor00__palette__bin$0$0        bank6
     00008000  _actor00__palette__bin             bank6
     00008010  G$actor00__tilemap__stmcompr$0$0   bank6
     00008010  _actor00__tilemap__stmcompr        bank6
     00008065  G$actor00__tiles__psgcompr$0$0     bank6
     00008065  _actor00__tiles__psgcompr          bank6
     00008932  G$actor01__palette__bin$0$0        bank6
     00008932  _actor01__palette__bin             bank6
     00008942  G$actor01__tilemap__stmcompr$0$0   bank6
     00008942  _actor01__tilemap__stmcompr        bank6
     0000898D  G$actor01__tiles__psgcompr$0$0     bank6
     0000898D  _actor01__tiles__psgcompr          bank6
     000090A9  G$actor02__palette__bin$0$0        bank6
     000090A9  _actor02__palette__bin             bank6
     000090B9  G$actor02__tilemap__stmcompr$0$0   bank6
     000090B9  _actor02__tilemap__stmcompr        bank6
     00009114  G$actor02__tiles__psgcompr$0$0     bank6
     00009114  _actor02__tiles__psgcompr          bank6
     00009B29  G$actor03__palette__bin$0$0        bank6
     00009B29  _actor03__palette__bin             bank6
     00009B39  G$actor03__tilemap__stmcompr$0$0   bank6
     00009B39  _actor03__tilemap__stmcompr        bank6
     00009BA2  G$actor03__tiles__psgcompr$0$0     bank6
     00009BA2  _actor03__tiles__psgcompr          bank6
ASxxxx Linker V03.00 + NoICE + sdld,  page 78.
Hexadecimal  [32-Bits]

Area                                    Addr        Size        Decimal Bytes (Attributes)
--------------------------------        ----        ----        ------- ----- ------------
_BANK7                              00008000    00002962 =       10594. bytes (REL,CON)

      Value  Global                              Global Defined In Module
      -----  --------------------------------   ------------------------
     00008000  G$actor04__palette__bin$0$0        bank7
     00008000  _actor04__palette__bin             bank7
     00008010  G$actor04__tilemap__stmcompr$0$0   bank7
     00008010  _actor04__tilemap__stmcompr        bank7
     0000807B  G$actor04__tiles__psgcompr$0$0     bank7
     0000807B  _actor04__tiles__psgcompr          bank7
     00008AC6  G$actor05__palette__bin$0$0        bank7
     00008AC6  _actor05__palette__bin             bank7
     00008AD6  G$actor05__tilemap__stmcompr$0$0   bank7
     00008AD6  _actor05__tilemap__stmcompr        bank7
     00008B34  G$actor05__tiles__psgcompr$0$0     bank7
     00008B34  _actor05__tiles__psgcompr          bank7
     00009463  G$actor06__palette__bin$0$0        bank7
     00009463  _actor06__palette__bin             bank7
     00009473  G$actor06__tilemap__stmcompr$0$0   bank7
     00009473  _actor06__tilemap__stmcompr        bank7
     000094D4  G$actor06__tiles__psgcompr$0$0     bank7
     000094D4  _actor06__tiles__psgcompr          bank7
     00009F96  G$actor07__palette__bin$0$0        bank7
     00009F96  _actor07__palette__bin             bank7
     00009FA6  G$actor07__tilemap__stmcompr$0$0   bank7
     00009FA6  _actor07__tilemap__stmcompr        bank7
     0000A016  G$actor07__tiles__psgcompr$0$0     bank7
     0000A016  _actor07__tiles__psgcompr          bank7
ASxxxx Linker V03.00 + NoICE + sdld,  page 79.
Hexadecimal  [32-Bits]

Area                                    Addr        Size        Decimal Bytes (Attributes)
--------------------------------        ----        ----        ------- ----- ------------
_BANK8                              00008000    000022E4 =        8932. bytes (REL,CON)

      Value  Global                              Global Defined In Module
      -----  --------------------------------   ------------------------
     00008000  G$actor08__palette__bin$0$0        bank8
     00008000  _actor08__palette__bin             bank8
     00008010  G$actor08__tilemap__stmcompr$0$0   bank8
     00008010  _actor08__tilemap__stmcompr        bank8
     0000806C  G$actor08__tiles__psgcompr$0$0     bank8
     0000806C  _actor08__tiles__psgcompr          bank8
     0000885D  G$actor09__palette__bin$0$0        bank8
     0000885D  _actor09__palette__bin             bank8
     0000886D  G$actor09__tilemap__stmcompr$0$0   bank8
     0000886D  _actor09__tilemap__stmcompr        bank8
     000088CC  G$actor09__tiles__psgcompr$0$0     bank8
     000088CC  _actor09__tiles__psgcompr          bank8
     00009005  G$actor10__palette__bin$0$0        bank8
     00009005  _actor10__palette__bin             bank8
     00009015  G$actor10__tilemap__stmcompr$0$0   bank8
     00009015  _actor10__tilemap__stmcompr        bank8
     00009060  G$actor10__tiles__psgcompr$0$0     bank8
     00009060  _actor10__tiles__psgcompr          bank8
     0000989A  G$actor11__palette__bin$0$0        bank8
     0000989A  _actor11__palette__bin             bank8
     000098AA  G$actor11__tilemap__stmcompr$0$0   bank8
     000098AA  _actor11__tilemap__stmcompr        bank8
     000098FD  G$actor11__tiles__psgcompr$0$0     bank8
     000098FD  _actor11__tiles__psgcompr          bank8
ASxxxx Linker V03.00 + NoICE + sdld,  page 80.
Hexadecimal  [32-Bits]

Area                                    Addr        Size        Decimal Bytes (Attributes)
--------------------------------        ----        ----        ------- ----- ------------
_BANK9                              00008000    00002245 =        8773. bytes (REL,CON)

      Value  Global                              Global Defined In Module
      -----  --------------------------------   ------------------------
     00008000  G$actor12__palette__bin$0$0        bank9
     00008000  _actor12__palette__bin             bank9
     00008010  G$actor12__tilemap__stmcompr$0$0   bank9
     00008010  _actor12__tilemap__stmcompr        bank9
     00008059  G$actor12__tiles__psgcompr$0$0     bank9
     00008059  _actor12__tiles__psgcompr          bank9
     000088A1  G$actor13__palette__bin$0$0        bank9
     000088A1  _actor13__palette__bin             bank9
     000088B1  G$actor13__tilemap__stmcompr$0$0   bank9
     000088B1  _actor13__tilemap__stmcompr        bank9
     0000890F  G$actor13__tiles__psgcompr$0$0     bank9
     0000890F  _actor13__tiles__psgcompr          bank9
     000090DB  G$actor14__palette__bin$0$0        bank9
     000090DB  _actor14__palette__bin             bank9
     000090EB  G$actor14__tilemap__stmcompr$0$0   bank9
     000090EB  _actor14__tilemap__stmcompr        bank9
     00009142  G$actor14__tiles__psgcompr$0$0     bank9
     00009142  _actor14__tiles__psgcompr          bank9
     000098A9  G$actor15__palette__bin$0$0        bank9
     000098A9  _actor15__palette__bin             bank9
     000098B9  G$actor15__tilemap__stmcompr$0$0   bank9
     000098B9  _actor15__tilemap__stmcompr        bank9
     0000991D  G$actor15__tiles__psgcompr$0$0     bank9
     0000991D  _actor15__tiles__psgcompr          bank9
ASxxxx Linker V03.00 + NoICE + sdld,  page 81.
Hexadecimal  [32-Bits]

Area                                    Addr        Size        Decimal Bytes (Attributes)
--------------------------------        ----        ----        ------- ----- ------------
_BANK10                             00008000    00003DB9 =       15801. bytes (REL,CON)

      Value  Global                              Global Defined In Module
      -----  --------------------------------   ------------------------
     00008000  G$right02_wav_pcmenc$0$0           bank10
     00008000  _right02_wav_pcmenc                bank10
     0000A38D  G$wrong03_wav_pcmenc$0$0           bank10
     0000A38D  _wrong03_wav_pcmenc                bank10

ASxxxx Linker V03.00 + NoICE + sdld,  page 82.
Hexadecimal  [32-Bits]

Area                                    Addr        Size        Decimal Bytes (Attributes)
--------------------------------        ----        ----        ------- ----- ------------
_BANK11                             00008000    0000300A =       12298. bytes (REL,CON)

      Value  Global                              Global Defined In Module
      -----  --------------------------------   ------------------------
     00008000  G$wrong02_wav_pcmenc$0$0           bank11
     00008000  _wrong02_wav_pcmenc                bank11

ASxxxx Linker V03.00 + NoICE + sdld,  page 83.
Hexadecimal  [32-Bits]

Area                                    Addr        Size        Decimal Bytes (Attributes)
--------------------------------        ----        ----        ------- ----- ------------
_BANK12                             00008000    00003CF3 =       15603. bytes (REL,CON)

      Value  Global                              Global Defined In Module
      -----  --------------------------------   ------------------------
     00008000  G$right01_wav_pcmenc$0$0           bank12
     00008000  _right01_wav_pcmenc                bank12
     0000A2DE  G$wrong01_wav_pcmenc$0$0           bank12
     0000A2DE  _wrong01_wav_pcmenc                bank12

ASxxxx Linker V03.00 + NoICE + sdld,  page 84.
Hexadecimal  [32-Bits]

Area                                    Addr        Size        Decimal Bytes (Attributes)
--------------------------------        ----        ----        ------- ----- ------------
_BANK13                             00008000    000019C6 =        6598. bytes (REL,CON)

      Value  Global                              Global Defined In Module
      -----  --------------------------------   ------------------------
     00008000  G$right03_wav_pcmenc$0$0           bank13
     00008000  _right03_wav_pcmenc                bank13

ASxxxx Linker V03.00 + NoICE + sdld,  page 85.
Hexadecimal  [32-Bits]

Area                                    Addr        Size        Decimal Bytes (Attributes)
--------------------------------        ----        ----        ------- ----- ------------
_BANK14                             00008000    000027B8 =       10168. bytes (REL,CON)

      Value  Global                              Global Defined In Module
      -----  --------------------------------   ------------------------
     00008000  G$simpsons__palette__bin$0$0       bank14
     00008000  _simpsons__palette__bin            bank14
     00008010  G$simpsons__tilemap__stmcompr$0$   bank14
     00008010  _simpsons__tilemap__stmcompr       bank14
     000080D1  G$simpsons__tiles__psgcompr$0$0    bank14
     000080D1  _simpsons__tiles__psgcompr         bank14
     00009F38  G$splash__palette__bin$0$0         bank14
     00009F38  _splash__palette__bin              bank14
     00009F48  G$splash__tilemap__stmcompr$0$0    bank14
     00009F48  _splash__tilemap__stmcompr         bank14
     00009F8F  G$splash__tiles__psgcompr$0$0      bank14
     00009F8F  _splash__tiles__psgcompr           bank14
ASxxxx Linker V03.00 + NoICE + sdld,  page 86.
Hexadecimal  [32-Bits]

Area                                    Addr        Size        Decimal Bytes (Attributes)
--------------------------------        ----        ----        ------- ----- ------------
_BANK15                             00008000    00001F88 =        8072. bytes (REL,CON)

      Value  Global                              Global Defined In Module
      -----  --------------------------------   ------------------------
     00008000  G$finish_psg$0$0                   bank15
     00008000  _finish_psg                        bank15
     00008220  G$music_psg$0$0                    bank15
     00008220  _music_psg                         bank15

ASxxxx Linker V03.00 + NoICE + sdld,  page 87.
Hexadecimal  [32-Bits]

Area                                    Addr        Size        Decimal Bytes (Attributes)
--------------------------------        ----        ----        ------- ----- ------------
_CABS0                              00000000    00000010 =          16. bytes (ABS,CON)

      Value  Global                              Global Defined In Module
      -----  --------------------------------   ------------------------
     00007FF0  G$__SMS__SEGA_signature$0$0        _sms_manager
     00007FF0  ___SMS__SEGA_signature             _sms_manager

ASxxxx Linker V03.00 + NoICE + sdld,  page 88.
Hexadecimal  [32-Bits]

Area                                    Addr        Size        Decimal Bytes (Attributes)
--------------------------------        ----        ----        ------- ----- ------------
_CABS1                              00000000    0000000E =          14. bytes (ABS,CON)

      Value  Global                              Global Defined In Module
      -----  --------------------------------   ------------------------
     00007FD2  G$__SMS__SDSC_author$0$0           _sms_manager
     00007FD2  ___SMS__SDSC_author                _sms_manager

ASxxxx Linker V03.00 + NoICE + sdld,  page 89.
Hexadecimal  [32-Bits]

Area                                    Addr        Size        Decimal Bytes (Attributes)
--------------------------------        ----        ----        ------- ----- ------------
_CABS2                              00000000    0000000E =          14. bytes (ABS,CON)

      Value  Global                              Global Defined In Module
      -----  --------------------------------   ------------------------
     00007FC4  G$__SMS__SDSC_name$0$0             _sms_manager
     00007FC4  ___SMS__SDSC_name                  _sms_manager

ASxxxx Linker V03.00 + NoICE + sdld,  page 90.
Hexadecimal  [32-Bits]

Area                                    Addr        Size        Decimal Bytes (Attributes)
--------------------------------        ----        ----        ------- ----- ------------
_CABS3                              00000000    00000038 =          56. bytes (ABS,CON)

      Value  Global                              Global Defined In Module
      -----  --------------------------------   ------------------------
     00007F8C  G$__SMS__SDSC_descr$0$0            _sms_manager
     00007F8C  ___SMS__SDSC_descr                 _sms_manager

ASxxxx Linker V03.00 + NoICE + sdld,  page 91.
Hexadecimal  [32-Bits]

Area                                    Addr        Size        Decimal Bytes (Attributes)
--------------------------------        ----        ----        ------- ----- ------------
_CABS4                              00000000    00000010 =          16. bytes (ABS,CON)

      Value  Global                              Global Defined In Module
      -----  --------------------------------   ------------------------
     00007FE0  G$__SMS__SDSC_signature$0$0        _sms_manager
     00007FE0  ___SMS__SDSC_signature             _sms_manager

ASxxxx Linker V03.00 + NoICE + sdld,  page 92.

Files Linked                              [ module(s) ]

../crt0/crt0_sms.rel                      [ crt0 ]
main.rel                                  [ main ]
../lib/PSGlib.rel                         [ PSGlib ]
banks/bank2.rel                           [ bank2 ]
banks/bank3.rel                           [ bank3 ]
banks/bank4.rel                           [ bank4 ]
banks/bank5.rel                           [ bank5 ]
banks/bank6.rel                           [ bank6 ]
banks/bank7.rel                           [ bank7 ]
banks/bank8.rel                           [ bank8 ]
banks/bank9.rel                           [ bank9 ]
banks/bank10.rel                          [ bank10 ]
banks/bank11.rel                          [ bank11 ]
banks/bank12.rel                          [ bank12 ]
banks/bank13.rel                          [ bank13 ]
banks/bank14.rel                          [ bank14 ]
banks/bank15.rel                          [ bank15 ]
devkit/_sms_manager.rel                   [ _sms_manager ]
devkit/_snd_manager.rel                   [ _snd_manager ]
engine/actor_manager.rel                  [ actor_manager ]
engine/asm_manager.rel                    [ asm_manager ]
engine/audio_manager.rel                  [ audio_manager ]
engine/content_manager.rel                [ content_manager ]
engine/enum_manager.rel                   [ enum_manager ]
engine/font_manager.rel                   [ font_manager ]
engine/global_manager.rel                 [ global_manager ]
engine/hack_manager.rel                   [ hack_manager ]
engine/input_manager.rel                  [ input_manager ]
engine/locale_manager.rel                 [ locale_manager ]
engine/sample_manager.rel                 [ sample_manager ]
engine/screen_manager.rel                 [ screen_manager ]
engine/sound_manager.rel                  [ sound_manager ]
engine/timer_manager.rel                  [ timer_manager ]
object/sound_object.rel                   [ sound_object ]
object/timer_object.rel                   [ timer_object ]
screen/diff_screen.rel                    [ diff_screen ]
screen/func_screen.rel                    [ func_screen ]
screen/intro_screen.rel                   [ intro_screen ]
screen/level_screen.rel                   [ level_screen ]
screen/long_screen.rel                    [ long_screen ]
screen/none_screen.rel                    [ none_screen ]
screen/number_screen.rel                  [ number_screen ]
screen/over_screen.rel                    [ over_screen ]
screen/play_screen.rel                    [ play_screen ]
screen/quiz_screen.rel                    [ quiz_screen ]
screen/ready_screen.rel                   [ ready_screen ]
screen/score_screen.rel                   [ score_screen ]
screen/splash_screen.rel                  [ splash_screen ]
screen/test_screen.rel                    [ test_screen ]
screen/title_screen.rel                   [ title_screen ]
gfx.rel                                   [ gfx ]
psg.rel                                   [ psg ]


Libraries Linked                          [ object file ]

C:\Program Files\SDCC\bin\..\lib\z80/z80.lib
                                          [ divunsigned.rel ]
../lib/SMSlib.lib                         [ SMSlib_UNSAFE.rel ]
../lib/SMSlib.lib                         [ SMSlib.rel ]
../lib/SMSlib.lib                         [ SMSlib_STMcomp.rel ]
C:\Program Files\SDCC\bin\..\lib\z80/z80.lib
                                          [ __sdcc_call_hl.rel ]
../lib/SMSlib.lib                         [ SMSlib_PSGaiden.rel ]
../lib/SMSlib.lib                         [ SMSlib_loadTileMap.rel ]
C:\Program Files\SDCC\bin\..\lib\z80/z80.lib
                                          [ modunsigned.rel ]

ASxxxx Linker V03.00 + NoICE + sdld,  page 93.

User Base Address Definitions

_CODE = 0x0200
_DATA = 0xc000
_BANK2=0x8000
_BANK3=0x8000
_BANK4=0x8000
_BANK5=0x8000
_BANK6=0x8000
_BANK7=0x8000
_BANK8=0x8000
_BANK9=0x8000
_BANK10=0x8000
_BANK11=0x8000
_BANK12=0x8000
_BANK13=0x8000
_BANK14=0x8000
_BANK15=0x8000

